ARM GAS  C:\Users\Xwx47\AppData\Local\Temp\ccuVyguK.s 			page 1


   1              		.syntax unified
   2              		.cpu cortex-m0
   3              		.fpu softvfp
   4              		.eabi_attribute 20, 1
   5              		.eabi_attribute 21, 1
   6              		.eabi_attribute 23, 3
   7              		.eabi_attribute 24, 1
   8              		.eabi_attribute 25, 1
   9              		.eabi_attribute 26, 1
  10              		.eabi_attribute 30, 1
  11              		.eabi_attribute 34, 0
  12              		.eabi_attribute 18, 4
  13              		.thumb
  14              		.syntax unified
  15              		.file	"event_groups.c"
  16              		.text
  17              	.Ltext0:
  18              		.cfi_sections	.debug_frame
  19              		.section	.text.prvTestWaitCondition,"ax",%progbits
  20              		.align	2
  21              		.code	16
  22              		.thumb_func
  23              		.type	prvTestWaitCondition, %function
  24              	prvTestWaitCondition:
  25              	.LFB41:
  26              		.file 1 "..\\FreeRTOS10\\event_groups.c"
   1:..\FreeRTOS10/event_groups.c **** /*
   2:..\FreeRTOS10/event_groups.c ****  * FreeRTOS Kernel V10.0.0
   3:..\FreeRTOS10/event_groups.c ****  * Copyright (C) 2017 Amazon.com, Inc. or its affiliates.  All Rights Reserved.
   4:..\FreeRTOS10/event_groups.c ****  *
   5:..\FreeRTOS10/event_groups.c ****  * Permission is hereby granted, free of charge, to any person obtaining a copy of
   6:..\FreeRTOS10/event_groups.c ****  * this software and associated documentation files (the "Software"), to deal in
   7:..\FreeRTOS10/event_groups.c ****  * the Software without restriction, including without limitation the rights to
   8:..\FreeRTOS10/event_groups.c ****  * use, copy, modify, merge, publish, distribute, sublicense, and/or sell copies of
   9:..\FreeRTOS10/event_groups.c ****  * the Software, and to permit persons to whom the Software is furnished to do so,
  10:..\FreeRTOS10/event_groups.c ****  * subject to the following conditions:
  11:..\FreeRTOS10/event_groups.c ****  *
  12:..\FreeRTOS10/event_groups.c ****  * The above copyright notice and this permission notice shall be included in all
  13:..\FreeRTOS10/event_groups.c ****  * copies or substantial portions of the Software. If you wish to use our Amazon
  14:..\FreeRTOS10/event_groups.c ****  * FreeRTOS name, please do so in a fair use way that does not cause confusion.
  15:..\FreeRTOS10/event_groups.c ****  *
  16:..\FreeRTOS10/event_groups.c ****  * THE SOFTWARE IS PROVIDED "AS IS", WITHOUT WARRANTY OF ANY KIND, EXPRESS OR
  17:..\FreeRTOS10/event_groups.c ****  * IMPLIED, INCLUDING BUT NOT LIMITED TO THE WARRANTIES OF MERCHANTABILITY, FITNESS
  18:..\FreeRTOS10/event_groups.c ****  * FOR A PARTICULAR PURPOSE AND NONINFRINGEMENT. IN NO EVENT SHALL THE AUTHORS OR
  19:..\FreeRTOS10/event_groups.c ****  * COPYRIGHT HOLDERS BE LIABLE FOR ANY CLAIM, DAMAGES OR OTHER LIABILITY, WHETHER
  20:..\FreeRTOS10/event_groups.c ****  * IN AN ACTION OF CONTRACT, TORT OR OTHERWISE, ARISING FROM, OUT OF OR IN
  21:..\FreeRTOS10/event_groups.c ****  * CONNECTION WITH THE SOFTWARE OR THE USE OR OTHER DEALINGS IN THE SOFTWARE.
  22:..\FreeRTOS10/event_groups.c ****  *
  23:..\FreeRTOS10/event_groups.c ****  * http://www.FreeRTOS.org
  24:..\FreeRTOS10/event_groups.c ****  * http://aws.amazon.com/freertos
  25:..\FreeRTOS10/event_groups.c ****  *
  26:..\FreeRTOS10/event_groups.c ****  * 1 tab == 4 spaces!
  27:..\FreeRTOS10/event_groups.c ****  */
  28:..\FreeRTOS10/event_groups.c **** 
  29:..\FreeRTOS10/event_groups.c **** /* Standard includes. */
  30:..\FreeRTOS10/event_groups.c **** #include <stdlib.h>
  31:..\FreeRTOS10/event_groups.c **** 
ARM GAS  C:\Users\Xwx47\AppData\Local\Temp\ccuVyguK.s 			page 2


  32:..\FreeRTOS10/event_groups.c **** /* Defining MPU_WRAPPERS_INCLUDED_FROM_API_FILE prevents task.h from redefining
  33:..\FreeRTOS10/event_groups.c **** all the API functions to use the MPU wrappers.  That should only be done when
  34:..\FreeRTOS10/event_groups.c **** task.h is included from an application file. */
  35:..\FreeRTOS10/event_groups.c **** #define MPU_WRAPPERS_INCLUDED_FROM_API_FILE
  36:..\FreeRTOS10/event_groups.c **** 
  37:..\FreeRTOS10/event_groups.c **** /* FreeRTOS includes. */
  38:..\FreeRTOS10/event_groups.c **** #include "FreeRTOS.h"
  39:..\FreeRTOS10/event_groups.c **** #include "task.h"
  40:..\FreeRTOS10/event_groups.c **** #include "timers.h"
  41:..\FreeRTOS10/event_groups.c **** #include "event_groups.h"
  42:..\FreeRTOS10/event_groups.c **** 
  43:..\FreeRTOS10/event_groups.c **** /* Lint e961 and e750 are suppressed as a MISRA exception justified because the
  44:..\FreeRTOS10/event_groups.c **** MPU ports require MPU_WRAPPERS_INCLUDED_FROM_API_FILE to be defined for the
  45:..\FreeRTOS10/event_groups.c **** header files above, but not in this file, in order to generate the correct
  46:..\FreeRTOS10/event_groups.c **** privileged Vs unprivileged linkage and placement. */
  47:..\FreeRTOS10/event_groups.c **** #undef MPU_WRAPPERS_INCLUDED_FROM_API_FILE /*lint !e961 !e750. */
  48:..\FreeRTOS10/event_groups.c **** 
  49:..\FreeRTOS10/event_groups.c **** /* The following bit fields convey control information in a task's event list
  50:..\FreeRTOS10/event_groups.c **** item value.  It is important they don't clash with the
  51:..\FreeRTOS10/event_groups.c **** taskEVENT_LIST_ITEM_VALUE_IN_USE definition. */
  52:..\FreeRTOS10/event_groups.c **** #if configUSE_16_BIT_TICKS == 1
  53:..\FreeRTOS10/event_groups.c **** 	#define eventCLEAR_EVENTS_ON_EXIT_BIT	0x0100U
  54:..\FreeRTOS10/event_groups.c **** 	#define eventUNBLOCKED_DUE_TO_BIT_SET	0x0200U
  55:..\FreeRTOS10/event_groups.c **** 	#define eventWAIT_FOR_ALL_BITS			0x0400U
  56:..\FreeRTOS10/event_groups.c **** 	#define eventEVENT_BITS_CONTROL_BYTES	0xff00U
  57:..\FreeRTOS10/event_groups.c **** #else
  58:..\FreeRTOS10/event_groups.c **** 	#define eventCLEAR_EVENTS_ON_EXIT_BIT	0x01000000UL
  59:..\FreeRTOS10/event_groups.c **** 	#define eventUNBLOCKED_DUE_TO_BIT_SET	0x02000000UL
  60:..\FreeRTOS10/event_groups.c **** 	#define eventWAIT_FOR_ALL_BITS			0x04000000UL
  61:..\FreeRTOS10/event_groups.c **** 	#define eventEVENT_BITS_CONTROL_BYTES	0xff000000UL
  62:..\FreeRTOS10/event_groups.c **** #endif
  63:..\FreeRTOS10/event_groups.c **** 
  64:..\FreeRTOS10/event_groups.c **** typedef struct xEventGroupDefinition
  65:..\FreeRTOS10/event_groups.c **** {
  66:..\FreeRTOS10/event_groups.c **** 	EventBits_t uxEventBits;
  67:..\FreeRTOS10/event_groups.c **** 	List_t xTasksWaitingForBits;		/*< List of tasks waiting for a bit to be set. */
  68:..\FreeRTOS10/event_groups.c **** 
  69:..\FreeRTOS10/event_groups.c **** 	#if( configUSE_TRACE_FACILITY == 1 )
  70:..\FreeRTOS10/event_groups.c **** 		UBaseType_t uxEventGroupNumber;
  71:..\FreeRTOS10/event_groups.c **** 	#endif
  72:..\FreeRTOS10/event_groups.c **** 
  73:..\FreeRTOS10/event_groups.c **** 	#if( ( configSUPPORT_STATIC_ALLOCATION == 1 ) && ( configSUPPORT_DYNAMIC_ALLOCATION == 1 ) )
  74:..\FreeRTOS10/event_groups.c **** 		uint8_t ucStaticallyAllocated; /*< Set to pdTRUE if the event group is statically allocated to en
  75:..\FreeRTOS10/event_groups.c **** 	#endif
  76:..\FreeRTOS10/event_groups.c **** } EventGroup_t;
  77:..\FreeRTOS10/event_groups.c **** 
  78:..\FreeRTOS10/event_groups.c **** /*-----------------------------------------------------------*/
  79:..\FreeRTOS10/event_groups.c **** 
  80:..\FreeRTOS10/event_groups.c **** /*
  81:..\FreeRTOS10/event_groups.c ****  * Test the bits set in uxCurrentEventBits to see if the wait condition is met.
  82:..\FreeRTOS10/event_groups.c ****  * The wait condition is defined by xWaitForAllBits.  If xWaitForAllBits is
  83:..\FreeRTOS10/event_groups.c ****  * pdTRUE then the wait condition is met if all the bits set in uxBitsToWaitFor
  84:..\FreeRTOS10/event_groups.c ****  * are also set in uxCurrentEventBits.  If xWaitForAllBits is pdFALSE then the
  85:..\FreeRTOS10/event_groups.c ****  * wait condition is met if any of the bits set in uxBitsToWait for are also set
  86:..\FreeRTOS10/event_groups.c ****  * in uxCurrentEventBits.
  87:..\FreeRTOS10/event_groups.c ****  */
  88:..\FreeRTOS10/event_groups.c **** static BaseType_t prvTestWaitCondition( const EventBits_t uxCurrentEventBits, const EventBits_t uxB
ARM GAS  C:\Users\Xwx47\AppData\Local\Temp\ccuVyguK.s 			page 3


  89:..\FreeRTOS10/event_groups.c **** 
  90:..\FreeRTOS10/event_groups.c **** /*-----------------------------------------------------------*/
  91:..\FreeRTOS10/event_groups.c **** 
  92:..\FreeRTOS10/event_groups.c **** #if( configSUPPORT_STATIC_ALLOCATION == 1 )
  93:..\FreeRTOS10/event_groups.c **** 
  94:..\FreeRTOS10/event_groups.c **** 	EventGroupHandle_t xEventGroupCreateStatic( StaticEventGroup_t *pxEventGroupBuffer )
  95:..\FreeRTOS10/event_groups.c **** 	{
  96:..\FreeRTOS10/event_groups.c **** 	EventGroup_t *pxEventBits;
  97:..\FreeRTOS10/event_groups.c **** 
  98:..\FreeRTOS10/event_groups.c **** 		/* A StaticEventGroup_t object must be provided. */
  99:..\FreeRTOS10/event_groups.c **** 		configASSERT( pxEventGroupBuffer );
 100:..\FreeRTOS10/event_groups.c **** 
 101:..\FreeRTOS10/event_groups.c **** 		#if( configASSERT_DEFINED == 1 )
 102:..\FreeRTOS10/event_groups.c **** 		{
 103:..\FreeRTOS10/event_groups.c **** 			/* Sanity check that the size of the structure used to declare a
 104:..\FreeRTOS10/event_groups.c **** 			variable of type StaticEventGroup_t equals the size of the real
 105:..\FreeRTOS10/event_groups.c **** 			event group structure. */
 106:..\FreeRTOS10/event_groups.c **** 			volatile size_t xSize = sizeof( StaticEventGroup_t );
 107:..\FreeRTOS10/event_groups.c **** 			configASSERT( xSize == sizeof( EventGroup_t ) );
 108:..\FreeRTOS10/event_groups.c **** 		}
 109:..\FreeRTOS10/event_groups.c **** 		#endif /* configASSERT_DEFINED */
 110:..\FreeRTOS10/event_groups.c **** 
 111:..\FreeRTOS10/event_groups.c **** 		/* The user has provided a statically allocated event group - use it. */
 112:..\FreeRTOS10/event_groups.c **** 		pxEventBits = ( EventGroup_t * ) pxEventGroupBuffer; /*lint !e740 EventGroup_t and StaticEventGro
 113:..\FreeRTOS10/event_groups.c **** 
 114:..\FreeRTOS10/event_groups.c **** 		if( pxEventBits != NULL )
 115:..\FreeRTOS10/event_groups.c **** 		{
 116:..\FreeRTOS10/event_groups.c **** 			pxEventBits->uxEventBits = 0;
 117:..\FreeRTOS10/event_groups.c **** 			vListInitialise( &( pxEventBits->xTasksWaitingForBits ) );
 118:..\FreeRTOS10/event_groups.c **** 
 119:..\FreeRTOS10/event_groups.c **** 			#if( configSUPPORT_DYNAMIC_ALLOCATION == 1 )
 120:..\FreeRTOS10/event_groups.c **** 			{
 121:..\FreeRTOS10/event_groups.c **** 				/* Both static and dynamic allocation can be used, so note that
 122:..\FreeRTOS10/event_groups.c **** 				this event group was created statically in case the event group
 123:..\FreeRTOS10/event_groups.c **** 				is later deleted. */
 124:..\FreeRTOS10/event_groups.c **** 				pxEventBits->ucStaticallyAllocated = pdTRUE;
 125:..\FreeRTOS10/event_groups.c **** 			}
 126:..\FreeRTOS10/event_groups.c **** 			#endif /* configSUPPORT_DYNAMIC_ALLOCATION */
 127:..\FreeRTOS10/event_groups.c **** 
 128:..\FreeRTOS10/event_groups.c **** 			traceEVENT_GROUP_CREATE( pxEventBits );
 129:..\FreeRTOS10/event_groups.c **** 		}
 130:..\FreeRTOS10/event_groups.c **** 		else
 131:..\FreeRTOS10/event_groups.c **** 		{
 132:..\FreeRTOS10/event_groups.c **** 			traceEVENT_GROUP_CREATE_FAILED();
 133:..\FreeRTOS10/event_groups.c **** 		}
 134:..\FreeRTOS10/event_groups.c **** 
 135:..\FreeRTOS10/event_groups.c **** 		return ( EventGroupHandle_t ) pxEventBits;
 136:..\FreeRTOS10/event_groups.c **** 	}
 137:..\FreeRTOS10/event_groups.c **** 
 138:..\FreeRTOS10/event_groups.c **** #endif /* configSUPPORT_STATIC_ALLOCATION */
 139:..\FreeRTOS10/event_groups.c **** /*-----------------------------------------------------------*/
 140:..\FreeRTOS10/event_groups.c **** 
 141:..\FreeRTOS10/event_groups.c **** #if( configSUPPORT_DYNAMIC_ALLOCATION == 1 )
 142:..\FreeRTOS10/event_groups.c **** 
 143:..\FreeRTOS10/event_groups.c **** 	EventGroupHandle_t xEventGroupCreate( void )
 144:..\FreeRTOS10/event_groups.c **** 	{
 145:..\FreeRTOS10/event_groups.c **** 	EventGroup_t *pxEventBits;
ARM GAS  C:\Users\Xwx47\AppData\Local\Temp\ccuVyguK.s 			page 4


 146:..\FreeRTOS10/event_groups.c **** 
 147:..\FreeRTOS10/event_groups.c **** 		/* Allocate the event group. */
 148:..\FreeRTOS10/event_groups.c **** 		pxEventBits = ( EventGroup_t * ) pvPortMalloc( sizeof( EventGroup_t ) );
 149:..\FreeRTOS10/event_groups.c **** 
 150:..\FreeRTOS10/event_groups.c **** 		if( pxEventBits != NULL )
 151:..\FreeRTOS10/event_groups.c **** 		{
 152:..\FreeRTOS10/event_groups.c **** 			pxEventBits->uxEventBits = 0;
 153:..\FreeRTOS10/event_groups.c **** 			vListInitialise( &( pxEventBits->xTasksWaitingForBits ) );
 154:..\FreeRTOS10/event_groups.c **** 
 155:..\FreeRTOS10/event_groups.c **** 			#if( configSUPPORT_STATIC_ALLOCATION == 1 )
 156:..\FreeRTOS10/event_groups.c **** 			{
 157:..\FreeRTOS10/event_groups.c **** 				/* Both static and dynamic allocation can be used, so note this
 158:..\FreeRTOS10/event_groups.c **** 				event group was allocated statically in case the event group is
 159:..\FreeRTOS10/event_groups.c **** 				later deleted. */
 160:..\FreeRTOS10/event_groups.c **** 				pxEventBits->ucStaticallyAllocated = pdFALSE;
 161:..\FreeRTOS10/event_groups.c **** 			}
 162:..\FreeRTOS10/event_groups.c **** 			#endif /* configSUPPORT_STATIC_ALLOCATION */
 163:..\FreeRTOS10/event_groups.c **** 
 164:..\FreeRTOS10/event_groups.c **** 			traceEVENT_GROUP_CREATE( pxEventBits );
 165:..\FreeRTOS10/event_groups.c **** 		}
 166:..\FreeRTOS10/event_groups.c **** 		else
 167:..\FreeRTOS10/event_groups.c **** 		{
 168:..\FreeRTOS10/event_groups.c **** 			traceEVENT_GROUP_CREATE_FAILED();
 169:..\FreeRTOS10/event_groups.c **** 		}
 170:..\FreeRTOS10/event_groups.c **** 
 171:..\FreeRTOS10/event_groups.c **** 		return ( EventGroupHandle_t ) pxEventBits;
 172:..\FreeRTOS10/event_groups.c **** 	}
 173:..\FreeRTOS10/event_groups.c **** 
 174:..\FreeRTOS10/event_groups.c **** #endif /* configSUPPORT_DYNAMIC_ALLOCATION */
 175:..\FreeRTOS10/event_groups.c **** /*-----------------------------------------------------------*/
 176:..\FreeRTOS10/event_groups.c **** 
 177:..\FreeRTOS10/event_groups.c **** EventBits_t xEventGroupSync( EventGroupHandle_t xEventGroup, const EventBits_t uxBitsToSet, const E
 178:..\FreeRTOS10/event_groups.c **** {
 179:..\FreeRTOS10/event_groups.c **** EventBits_t uxOriginalBitValue, uxReturn;
 180:..\FreeRTOS10/event_groups.c **** EventGroup_t *pxEventBits = ( EventGroup_t * ) xEventGroup;
 181:..\FreeRTOS10/event_groups.c **** BaseType_t xAlreadyYielded;
 182:..\FreeRTOS10/event_groups.c **** BaseType_t xTimeoutOccurred = pdFALSE;
 183:..\FreeRTOS10/event_groups.c **** 
 184:..\FreeRTOS10/event_groups.c **** 	configASSERT( ( uxBitsToWaitFor & eventEVENT_BITS_CONTROL_BYTES ) == 0 );
 185:..\FreeRTOS10/event_groups.c **** 	configASSERT( uxBitsToWaitFor != 0 );
 186:..\FreeRTOS10/event_groups.c **** 	#if ( ( INCLUDE_xTaskGetSchedulerState == 1 ) || ( configUSE_TIMERS == 1 ) )
 187:..\FreeRTOS10/event_groups.c **** 	{
 188:..\FreeRTOS10/event_groups.c **** 		configASSERT( !( ( xTaskGetSchedulerState() == taskSCHEDULER_SUSPENDED ) && ( xTicksToWait != 0 )
 189:..\FreeRTOS10/event_groups.c **** 	}
 190:..\FreeRTOS10/event_groups.c **** 	#endif
 191:..\FreeRTOS10/event_groups.c **** 
 192:..\FreeRTOS10/event_groups.c **** 	vTaskSuspendAll();
 193:..\FreeRTOS10/event_groups.c **** 	{
 194:..\FreeRTOS10/event_groups.c **** 		uxOriginalBitValue = pxEventBits->uxEventBits;
 195:..\FreeRTOS10/event_groups.c **** 
 196:..\FreeRTOS10/event_groups.c **** 		( void ) xEventGroupSetBits( xEventGroup, uxBitsToSet );
 197:..\FreeRTOS10/event_groups.c **** 
 198:..\FreeRTOS10/event_groups.c **** 		if( ( ( uxOriginalBitValue | uxBitsToSet ) & uxBitsToWaitFor ) == uxBitsToWaitFor )
 199:..\FreeRTOS10/event_groups.c **** 		{
 200:..\FreeRTOS10/event_groups.c **** 			/* All the rendezvous bits are now set - no need to block. */
 201:..\FreeRTOS10/event_groups.c **** 			uxReturn = ( uxOriginalBitValue | uxBitsToSet );
 202:..\FreeRTOS10/event_groups.c **** 
ARM GAS  C:\Users\Xwx47\AppData\Local\Temp\ccuVyguK.s 			page 5


 203:..\FreeRTOS10/event_groups.c **** 			/* Rendezvous always clear the bits.  They will have been cleared
 204:..\FreeRTOS10/event_groups.c **** 			already unless this is the only task in the rendezvous. */
 205:..\FreeRTOS10/event_groups.c **** 			pxEventBits->uxEventBits &= ~uxBitsToWaitFor;
 206:..\FreeRTOS10/event_groups.c **** 
 207:..\FreeRTOS10/event_groups.c **** 			xTicksToWait = 0;
 208:..\FreeRTOS10/event_groups.c **** 		}
 209:..\FreeRTOS10/event_groups.c **** 		else
 210:..\FreeRTOS10/event_groups.c **** 		{
 211:..\FreeRTOS10/event_groups.c **** 			if( xTicksToWait != ( TickType_t ) 0 )
 212:..\FreeRTOS10/event_groups.c **** 			{
 213:..\FreeRTOS10/event_groups.c **** 				traceEVENT_GROUP_SYNC_BLOCK( xEventGroup, uxBitsToSet, uxBitsToWaitFor );
 214:..\FreeRTOS10/event_groups.c **** 
 215:..\FreeRTOS10/event_groups.c **** 				/* Store the bits that the calling task is waiting for in the
 216:..\FreeRTOS10/event_groups.c **** 				task's event list item so the kernel knows when a match is
 217:..\FreeRTOS10/event_groups.c **** 				found.  Then enter the blocked state. */
 218:..\FreeRTOS10/event_groups.c **** 				vTaskPlaceOnUnorderedEventList( &( pxEventBits->xTasksWaitingForBits ), ( uxBitsToWaitFor | eve
 219:..\FreeRTOS10/event_groups.c **** 
 220:..\FreeRTOS10/event_groups.c **** 				/* This assignment is obsolete as uxReturn will get set after
 221:..\FreeRTOS10/event_groups.c **** 				the task unblocks, but some compilers mistakenly generate a
 222:..\FreeRTOS10/event_groups.c **** 				warning about uxReturn being returned without being set if the
 223:..\FreeRTOS10/event_groups.c **** 				assignment is omitted. */
 224:..\FreeRTOS10/event_groups.c **** 				uxReturn = 0;
 225:..\FreeRTOS10/event_groups.c **** 			}
 226:..\FreeRTOS10/event_groups.c **** 			else
 227:..\FreeRTOS10/event_groups.c **** 			{
 228:..\FreeRTOS10/event_groups.c **** 				/* The rendezvous bits were not set, but no block time was
 229:..\FreeRTOS10/event_groups.c **** 				specified - just return the current event bit value. */
 230:..\FreeRTOS10/event_groups.c **** 				uxReturn = pxEventBits->uxEventBits;
 231:..\FreeRTOS10/event_groups.c **** 				xTimeoutOccurred = pdTRUE;
 232:..\FreeRTOS10/event_groups.c **** 			}
 233:..\FreeRTOS10/event_groups.c **** 		}
 234:..\FreeRTOS10/event_groups.c **** 	}
 235:..\FreeRTOS10/event_groups.c **** 	xAlreadyYielded = xTaskResumeAll();
 236:..\FreeRTOS10/event_groups.c **** 
 237:..\FreeRTOS10/event_groups.c **** 	if( xTicksToWait != ( TickType_t ) 0 )
 238:..\FreeRTOS10/event_groups.c **** 	{
 239:..\FreeRTOS10/event_groups.c **** 		if( xAlreadyYielded == pdFALSE )
 240:..\FreeRTOS10/event_groups.c **** 		{
 241:..\FreeRTOS10/event_groups.c **** 			portYIELD_WITHIN_API();
 242:..\FreeRTOS10/event_groups.c **** 		}
 243:..\FreeRTOS10/event_groups.c **** 		else
 244:..\FreeRTOS10/event_groups.c **** 		{
 245:..\FreeRTOS10/event_groups.c **** 			mtCOVERAGE_TEST_MARKER();
 246:..\FreeRTOS10/event_groups.c **** 		}
 247:..\FreeRTOS10/event_groups.c **** 
 248:..\FreeRTOS10/event_groups.c **** 		/* The task blocked to wait for its required bits to be set - at this
 249:..\FreeRTOS10/event_groups.c **** 		point either the required bits were set or the block time expired.  If
 250:..\FreeRTOS10/event_groups.c **** 		the required bits were set they will have been stored in the task's
 251:..\FreeRTOS10/event_groups.c **** 		event list item, and they should now be retrieved then cleared. */
 252:..\FreeRTOS10/event_groups.c **** 		uxReturn = uxTaskResetEventItemValue();
 253:..\FreeRTOS10/event_groups.c **** 
 254:..\FreeRTOS10/event_groups.c **** 		if( ( uxReturn & eventUNBLOCKED_DUE_TO_BIT_SET ) == ( EventBits_t ) 0 )
 255:..\FreeRTOS10/event_groups.c **** 		{
 256:..\FreeRTOS10/event_groups.c **** 			/* The task timed out, just return the current event bit value. */
 257:..\FreeRTOS10/event_groups.c **** 			taskENTER_CRITICAL();
 258:..\FreeRTOS10/event_groups.c **** 			{
 259:..\FreeRTOS10/event_groups.c **** 				uxReturn = pxEventBits->uxEventBits;
ARM GAS  C:\Users\Xwx47\AppData\Local\Temp\ccuVyguK.s 			page 6


 260:..\FreeRTOS10/event_groups.c **** 
 261:..\FreeRTOS10/event_groups.c **** 				/* Although the task got here because it timed out before the
 262:..\FreeRTOS10/event_groups.c **** 				bits it was waiting for were set, it is possible that since it
 263:..\FreeRTOS10/event_groups.c **** 				unblocked another task has set the bits.  If this is the case
 264:..\FreeRTOS10/event_groups.c **** 				then it needs to clear the bits before exiting. */
 265:..\FreeRTOS10/event_groups.c **** 				if( ( uxReturn & uxBitsToWaitFor ) == uxBitsToWaitFor )
 266:..\FreeRTOS10/event_groups.c **** 				{
 267:..\FreeRTOS10/event_groups.c **** 					pxEventBits->uxEventBits &= ~uxBitsToWaitFor;
 268:..\FreeRTOS10/event_groups.c **** 				}
 269:..\FreeRTOS10/event_groups.c **** 				else
 270:..\FreeRTOS10/event_groups.c **** 				{
 271:..\FreeRTOS10/event_groups.c **** 					mtCOVERAGE_TEST_MARKER();
 272:..\FreeRTOS10/event_groups.c **** 				}
 273:..\FreeRTOS10/event_groups.c **** 			}
 274:..\FreeRTOS10/event_groups.c **** 			taskEXIT_CRITICAL();
 275:..\FreeRTOS10/event_groups.c **** 
 276:..\FreeRTOS10/event_groups.c **** 			xTimeoutOccurred = pdTRUE;
 277:..\FreeRTOS10/event_groups.c **** 		}
 278:..\FreeRTOS10/event_groups.c **** 		else
 279:..\FreeRTOS10/event_groups.c **** 		{
 280:..\FreeRTOS10/event_groups.c **** 			/* The task unblocked because the bits were set. */
 281:..\FreeRTOS10/event_groups.c **** 		}
 282:..\FreeRTOS10/event_groups.c **** 
 283:..\FreeRTOS10/event_groups.c **** 		/* Control bits might be set as the task had blocked should not be
 284:..\FreeRTOS10/event_groups.c **** 		returned. */
 285:..\FreeRTOS10/event_groups.c **** 		uxReturn &= ~eventEVENT_BITS_CONTROL_BYTES;
 286:..\FreeRTOS10/event_groups.c **** 	}
 287:..\FreeRTOS10/event_groups.c **** 
 288:..\FreeRTOS10/event_groups.c **** 	traceEVENT_GROUP_SYNC_END( xEventGroup, uxBitsToSet, uxBitsToWaitFor, xTimeoutOccurred );
 289:..\FreeRTOS10/event_groups.c **** 
 290:..\FreeRTOS10/event_groups.c **** 	/* Prevent compiler warnings when trace macros are not used. */
 291:..\FreeRTOS10/event_groups.c **** 	( void ) xTimeoutOccurred;
 292:..\FreeRTOS10/event_groups.c **** 
 293:..\FreeRTOS10/event_groups.c **** 	return uxReturn;
 294:..\FreeRTOS10/event_groups.c **** }
 295:..\FreeRTOS10/event_groups.c **** /*-----------------------------------------------------------*/
 296:..\FreeRTOS10/event_groups.c **** 
 297:..\FreeRTOS10/event_groups.c **** EventBits_t xEventGroupWaitBits( EventGroupHandle_t xEventGroup, const EventBits_t uxBitsToWaitFor,
 298:..\FreeRTOS10/event_groups.c **** {
 299:..\FreeRTOS10/event_groups.c **** EventGroup_t *pxEventBits = ( EventGroup_t * ) xEventGroup;
 300:..\FreeRTOS10/event_groups.c **** EventBits_t uxReturn, uxControlBits = 0;
 301:..\FreeRTOS10/event_groups.c **** BaseType_t xWaitConditionMet, xAlreadyYielded;
 302:..\FreeRTOS10/event_groups.c **** BaseType_t xTimeoutOccurred = pdFALSE;
 303:..\FreeRTOS10/event_groups.c **** 
 304:..\FreeRTOS10/event_groups.c **** 	/* Check the user is not attempting to wait on the bits used by the kernel
 305:..\FreeRTOS10/event_groups.c **** 	itself, and that at least one bit is being requested. */
 306:..\FreeRTOS10/event_groups.c **** 	configASSERT( xEventGroup );
 307:..\FreeRTOS10/event_groups.c **** 	configASSERT( ( uxBitsToWaitFor & eventEVENT_BITS_CONTROL_BYTES ) == 0 );
 308:..\FreeRTOS10/event_groups.c **** 	configASSERT( uxBitsToWaitFor != 0 );
 309:..\FreeRTOS10/event_groups.c **** 	#if ( ( INCLUDE_xTaskGetSchedulerState == 1 ) || ( configUSE_TIMERS == 1 ) )
 310:..\FreeRTOS10/event_groups.c **** 	{
 311:..\FreeRTOS10/event_groups.c **** 		configASSERT( !( ( xTaskGetSchedulerState() == taskSCHEDULER_SUSPENDED ) && ( xTicksToWait != 0 )
 312:..\FreeRTOS10/event_groups.c **** 	}
 313:..\FreeRTOS10/event_groups.c **** 	#endif
 314:..\FreeRTOS10/event_groups.c **** 
 315:..\FreeRTOS10/event_groups.c **** 	vTaskSuspendAll();
 316:..\FreeRTOS10/event_groups.c **** 	{
ARM GAS  C:\Users\Xwx47\AppData\Local\Temp\ccuVyguK.s 			page 7


 317:..\FreeRTOS10/event_groups.c **** 		const EventBits_t uxCurrentEventBits = pxEventBits->uxEventBits;
 318:..\FreeRTOS10/event_groups.c **** 
 319:..\FreeRTOS10/event_groups.c **** 		/* Check to see if the wait condition is already met or not. */
 320:..\FreeRTOS10/event_groups.c **** 		xWaitConditionMet = prvTestWaitCondition( uxCurrentEventBits, uxBitsToWaitFor, xWaitForAllBits );
 321:..\FreeRTOS10/event_groups.c **** 
 322:..\FreeRTOS10/event_groups.c **** 		if( xWaitConditionMet != pdFALSE )
 323:..\FreeRTOS10/event_groups.c **** 		{
 324:..\FreeRTOS10/event_groups.c **** 			/* The wait condition has already been met so there is no need to
 325:..\FreeRTOS10/event_groups.c **** 			block. */
 326:..\FreeRTOS10/event_groups.c **** 			uxReturn = uxCurrentEventBits;
 327:..\FreeRTOS10/event_groups.c **** 			xTicksToWait = ( TickType_t ) 0;
 328:..\FreeRTOS10/event_groups.c **** 
 329:..\FreeRTOS10/event_groups.c **** 			/* Clear the wait bits if requested to do so. */
 330:..\FreeRTOS10/event_groups.c **** 			if( xClearOnExit != pdFALSE )
 331:..\FreeRTOS10/event_groups.c **** 			{
 332:..\FreeRTOS10/event_groups.c **** 				pxEventBits->uxEventBits &= ~uxBitsToWaitFor;
 333:..\FreeRTOS10/event_groups.c **** 			}
 334:..\FreeRTOS10/event_groups.c **** 			else
 335:..\FreeRTOS10/event_groups.c **** 			{
 336:..\FreeRTOS10/event_groups.c **** 				mtCOVERAGE_TEST_MARKER();
 337:..\FreeRTOS10/event_groups.c **** 			}
 338:..\FreeRTOS10/event_groups.c **** 		}
 339:..\FreeRTOS10/event_groups.c **** 		else if( xTicksToWait == ( TickType_t ) 0 )
 340:..\FreeRTOS10/event_groups.c **** 		{
 341:..\FreeRTOS10/event_groups.c **** 			/* The wait condition has not been met, but no block time was
 342:..\FreeRTOS10/event_groups.c **** 			specified, so just return the current value. */
 343:..\FreeRTOS10/event_groups.c **** 			uxReturn = uxCurrentEventBits;
 344:..\FreeRTOS10/event_groups.c **** 			xTimeoutOccurred = pdTRUE;
 345:..\FreeRTOS10/event_groups.c **** 		}
 346:..\FreeRTOS10/event_groups.c **** 		else
 347:..\FreeRTOS10/event_groups.c **** 		{
 348:..\FreeRTOS10/event_groups.c **** 			/* The task is going to block to wait for its required bits to be
 349:..\FreeRTOS10/event_groups.c **** 			set.  uxControlBits are used to remember the specified behaviour of
 350:..\FreeRTOS10/event_groups.c **** 			this call to xEventGroupWaitBits() - for use when the event bits
 351:..\FreeRTOS10/event_groups.c **** 			unblock the task. */
 352:..\FreeRTOS10/event_groups.c **** 			if( xClearOnExit != pdFALSE )
 353:..\FreeRTOS10/event_groups.c **** 			{
 354:..\FreeRTOS10/event_groups.c **** 				uxControlBits |= eventCLEAR_EVENTS_ON_EXIT_BIT;
 355:..\FreeRTOS10/event_groups.c **** 			}
 356:..\FreeRTOS10/event_groups.c **** 			else
 357:..\FreeRTOS10/event_groups.c **** 			{
 358:..\FreeRTOS10/event_groups.c **** 				mtCOVERAGE_TEST_MARKER();
 359:..\FreeRTOS10/event_groups.c **** 			}
 360:..\FreeRTOS10/event_groups.c **** 
 361:..\FreeRTOS10/event_groups.c **** 			if( xWaitForAllBits != pdFALSE )
 362:..\FreeRTOS10/event_groups.c **** 			{
 363:..\FreeRTOS10/event_groups.c **** 				uxControlBits |= eventWAIT_FOR_ALL_BITS;
 364:..\FreeRTOS10/event_groups.c **** 			}
 365:..\FreeRTOS10/event_groups.c **** 			else
 366:..\FreeRTOS10/event_groups.c **** 			{
 367:..\FreeRTOS10/event_groups.c **** 				mtCOVERAGE_TEST_MARKER();
 368:..\FreeRTOS10/event_groups.c **** 			}
 369:..\FreeRTOS10/event_groups.c **** 
 370:..\FreeRTOS10/event_groups.c **** 			/* Store the bits that the calling task is waiting for in the
 371:..\FreeRTOS10/event_groups.c **** 			task's event list item so the kernel knows when a match is
 372:..\FreeRTOS10/event_groups.c **** 			found.  Then enter the blocked state. */
 373:..\FreeRTOS10/event_groups.c **** 			vTaskPlaceOnUnorderedEventList( &( pxEventBits->xTasksWaitingForBits ), ( uxBitsToWaitFor | uxCo
ARM GAS  C:\Users\Xwx47\AppData\Local\Temp\ccuVyguK.s 			page 8


 374:..\FreeRTOS10/event_groups.c **** 
 375:..\FreeRTOS10/event_groups.c **** 			/* This is obsolete as it will get set after the task unblocks, but
 376:..\FreeRTOS10/event_groups.c **** 			some compilers mistakenly generate a warning about the variable
 377:..\FreeRTOS10/event_groups.c **** 			being returned without being set if it is not done. */
 378:..\FreeRTOS10/event_groups.c **** 			uxReturn = 0;
 379:..\FreeRTOS10/event_groups.c **** 
 380:..\FreeRTOS10/event_groups.c **** 			traceEVENT_GROUP_WAIT_BITS_BLOCK( xEventGroup, uxBitsToWaitFor );
 381:..\FreeRTOS10/event_groups.c **** 		}
 382:..\FreeRTOS10/event_groups.c **** 	}
 383:..\FreeRTOS10/event_groups.c **** 	xAlreadyYielded = xTaskResumeAll();
 384:..\FreeRTOS10/event_groups.c **** 
 385:..\FreeRTOS10/event_groups.c **** 	if( xTicksToWait != ( TickType_t ) 0 )
 386:..\FreeRTOS10/event_groups.c **** 	{
 387:..\FreeRTOS10/event_groups.c **** 		if( xAlreadyYielded == pdFALSE )
 388:..\FreeRTOS10/event_groups.c **** 		{
 389:..\FreeRTOS10/event_groups.c **** 			portYIELD_WITHIN_API();
 390:..\FreeRTOS10/event_groups.c **** 		}
 391:..\FreeRTOS10/event_groups.c **** 		else
 392:..\FreeRTOS10/event_groups.c **** 		{
 393:..\FreeRTOS10/event_groups.c **** 			mtCOVERAGE_TEST_MARKER();
 394:..\FreeRTOS10/event_groups.c **** 		}
 395:..\FreeRTOS10/event_groups.c **** 
 396:..\FreeRTOS10/event_groups.c **** 		/* The task blocked to wait for its required bits to be set - at this
 397:..\FreeRTOS10/event_groups.c **** 		point either the required bits were set or the block time expired.  If
 398:..\FreeRTOS10/event_groups.c **** 		the required bits were set they will have been stored in the task's
 399:..\FreeRTOS10/event_groups.c **** 		event list item, and they should now be retrieved then cleared. */
 400:..\FreeRTOS10/event_groups.c **** 		uxReturn = uxTaskResetEventItemValue();
 401:..\FreeRTOS10/event_groups.c **** 
 402:..\FreeRTOS10/event_groups.c **** 		if( ( uxReturn & eventUNBLOCKED_DUE_TO_BIT_SET ) == ( EventBits_t ) 0 )
 403:..\FreeRTOS10/event_groups.c **** 		{
 404:..\FreeRTOS10/event_groups.c **** 			taskENTER_CRITICAL();
 405:..\FreeRTOS10/event_groups.c **** 			{
 406:..\FreeRTOS10/event_groups.c **** 				/* The task timed out, just return the current event bit value. */
 407:..\FreeRTOS10/event_groups.c **** 				uxReturn = pxEventBits->uxEventBits;
 408:..\FreeRTOS10/event_groups.c **** 
 409:..\FreeRTOS10/event_groups.c **** 				/* It is possible that the event bits were updated between this
 410:..\FreeRTOS10/event_groups.c **** 				task leaving the Blocked state and running again. */
 411:..\FreeRTOS10/event_groups.c **** 				if( prvTestWaitCondition( uxReturn, uxBitsToWaitFor, xWaitForAllBits ) != pdFALSE )
 412:..\FreeRTOS10/event_groups.c **** 				{
 413:..\FreeRTOS10/event_groups.c **** 					if( xClearOnExit != pdFALSE )
 414:..\FreeRTOS10/event_groups.c **** 					{
 415:..\FreeRTOS10/event_groups.c **** 						pxEventBits->uxEventBits &= ~uxBitsToWaitFor;
 416:..\FreeRTOS10/event_groups.c **** 					}
 417:..\FreeRTOS10/event_groups.c **** 					else
 418:..\FreeRTOS10/event_groups.c **** 					{
 419:..\FreeRTOS10/event_groups.c **** 						mtCOVERAGE_TEST_MARKER();
 420:..\FreeRTOS10/event_groups.c **** 					}
 421:..\FreeRTOS10/event_groups.c **** 				}
 422:..\FreeRTOS10/event_groups.c **** 				else
 423:..\FreeRTOS10/event_groups.c **** 				{
 424:..\FreeRTOS10/event_groups.c **** 					mtCOVERAGE_TEST_MARKER();
 425:..\FreeRTOS10/event_groups.c **** 				}
 426:..\FreeRTOS10/event_groups.c **** 				xTimeoutOccurred = pdTRUE;
 427:..\FreeRTOS10/event_groups.c **** 			}
 428:..\FreeRTOS10/event_groups.c **** 			taskEXIT_CRITICAL();
 429:..\FreeRTOS10/event_groups.c **** 		}
 430:..\FreeRTOS10/event_groups.c **** 		else
ARM GAS  C:\Users\Xwx47\AppData\Local\Temp\ccuVyguK.s 			page 9


 431:..\FreeRTOS10/event_groups.c **** 		{
 432:..\FreeRTOS10/event_groups.c **** 			/* The task unblocked because the bits were set. */
 433:..\FreeRTOS10/event_groups.c **** 		}
 434:..\FreeRTOS10/event_groups.c **** 
 435:..\FreeRTOS10/event_groups.c **** 		/* The task blocked so control bits may have been set. */
 436:..\FreeRTOS10/event_groups.c **** 		uxReturn &= ~eventEVENT_BITS_CONTROL_BYTES;
 437:..\FreeRTOS10/event_groups.c **** 	}
 438:..\FreeRTOS10/event_groups.c **** 	traceEVENT_GROUP_WAIT_BITS_END( xEventGroup, uxBitsToWaitFor, xTimeoutOccurred );
 439:..\FreeRTOS10/event_groups.c **** 
 440:..\FreeRTOS10/event_groups.c **** 	/* Prevent compiler warnings when trace macros are not used. */
 441:..\FreeRTOS10/event_groups.c **** 	( void ) xTimeoutOccurred;
 442:..\FreeRTOS10/event_groups.c **** 
 443:..\FreeRTOS10/event_groups.c **** 	return uxReturn;
 444:..\FreeRTOS10/event_groups.c **** }
 445:..\FreeRTOS10/event_groups.c **** /*-----------------------------------------------------------*/
 446:..\FreeRTOS10/event_groups.c **** 
 447:..\FreeRTOS10/event_groups.c **** EventBits_t xEventGroupClearBits( EventGroupHandle_t xEventGroup, const EventBits_t uxBitsToClear )
 448:..\FreeRTOS10/event_groups.c **** {
 449:..\FreeRTOS10/event_groups.c **** EventGroup_t *pxEventBits = ( EventGroup_t * ) xEventGroup;
 450:..\FreeRTOS10/event_groups.c **** EventBits_t uxReturn;
 451:..\FreeRTOS10/event_groups.c **** 
 452:..\FreeRTOS10/event_groups.c **** 	/* Check the user is not attempting to clear the bits used by the kernel
 453:..\FreeRTOS10/event_groups.c **** 	itself. */
 454:..\FreeRTOS10/event_groups.c **** 	configASSERT( xEventGroup );
 455:..\FreeRTOS10/event_groups.c **** 	configASSERT( ( uxBitsToClear & eventEVENT_BITS_CONTROL_BYTES ) == 0 );
 456:..\FreeRTOS10/event_groups.c **** 
 457:..\FreeRTOS10/event_groups.c **** 	taskENTER_CRITICAL();
 458:..\FreeRTOS10/event_groups.c **** 	{
 459:..\FreeRTOS10/event_groups.c **** 		traceEVENT_GROUP_CLEAR_BITS( xEventGroup, uxBitsToClear );
 460:..\FreeRTOS10/event_groups.c **** 
 461:..\FreeRTOS10/event_groups.c **** 		/* The value returned is the event group value prior to the bits being
 462:..\FreeRTOS10/event_groups.c **** 		cleared. */
 463:..\FreeRTOS10/event_groups.c **** 		uxReturn = pxEventBits->uxEventBits;
 464:..\FreeRTOS10/event_groups.c **** 
 465:..\FreeRTOS10/event_groups.c **** 		/* Clear the bits. */
 466:..\FreeRTOS10/event_groups.c **** 		pxEventBits->uxEventBits &= ~uxBitsToClear;
 467:..\FreeRTOS10/event_groups.c **** 	}
 468:..\FreeRTOS10/event_groups.c **** 	taskEXIT_CRITICAL();
 469:..\FreeRTOS10/event_groups.c **** 
 470:..\FreeRTOS10/event_groups.c **** 	return uxReturn;
 471:..\FreeRTOS10/event_groups.c **** }
 472:..\FreeRTOS10/event_groups.c **** /*-----------------------------------------------------------*/
 473:..\FreeRTOS10/event_groups.c **** 
 474:..\FreeRTOS10/event_groups.c **** #if ( ( configUSE_TRACE_FACILITY == 1 ) && ( INCLUDE_xTimerPendFunctionCall == 1 ) && ( configUSE_T
 475:..\FreeRTOS10/event_groups.c **** 
 476:..\FreeRTOS10/event_groups.c **** 	BaseType_t xEventGroupClearBitsFromISR( EventGroupHandle_t xEventGroup, const EventBits_t uxBitsTo
 477:..\FreeRTOS10/event_groups.c **** 	{
 478:..\FreeRTOS10/event_groups.c **** 		BaseType_t xReturn;
 479:..\FreeRTOS10/event_groups.c **** 
 480:..\FreeRTOS10/event_groups.c **** 		traceEVENT_GROUP_CLEAR_BITS_FROM_ISR( xEventGroup, uxBitsToClear );
 481:..\FreeRTOS10/event_groups.c **** 		xReturn = xTimerPendFunctionCallFromISR( vEventGroupClearBitsCallback, ( void * ) xEventGroup, ( 
 482:..\FreeRTOS10/event_groups.c **** 
 483:..\FreeRTOS10/event_groups.c **** 		return xReturn;
 484:..\FreeRTOS10/event_groups.c **** 	}
 485:..\FreeRTOS10/event_groups.c **** 
 486:..\FreeRTOS10/event_groups.c **** #endif
 487:..\FreeRTOS10/event_groups.c **** /*-----------------------------------------------------------*/
ARM GAS  C:\Users\Xwx47\AppData\Local\Temp\ccuVyguK.s 			page 10


 488:..\FreeRTOS10/event_groups.c **** 
 489:..\FreeRTOS10/event_groups.c **** EventBits_t xEventGroupGetBitsFromISR( EventGroupHandle_t xEventGroup )
 490:..\FreeRTOS10/event_groups.c **** {
 491:..\FreeRTOS10/event_groups.c **** UBaseType_t uxSavedInterruptStatus;
 492:..\FreeRTOS10/event_groups.c **** EventGroup_t *pxEventBits = ( EventGroup_t * ) xEventGroup;
 493:..\FreeRTOS10/event_groups.c **** EventBits_t uxReturn;
 494:..\FreeRTOS10/event_groups.c **** 
 495:..\FreeRTOS10/event_groups.c **** 	uxSavedInterruptStatus = portSET_INTERRUPT_MASK_FROM_ISR();
 496:..\FreeRTOS10/event_groups.c **** 	{
 497:..\FreeRTOS10/event_groups.c **** 		uxReturn = pxEventBits->uxEventBits;
 498:..\FreeRTOS10/event_groups.c **** 	}
 499:..\FreeRTOS10/event_groups.c **** 	portCLEAR_INTERRUPT_MASK_FROM_ISR( uxSavedInterruptStatus );
 500:..\FreeRTOS10/event_groups.c **** 
 501:..\FreeRTOS10/event_groups.c **** 	return uxReturn;
 502:..\FreeRTOS10/event_groups.c **** }
 503:..\FreeRTOS10/event_groups.c **** /*-----------------------------------------------------------*/
 504:..\FreeRTOS10/event_groups.c **** 
 505:..\FreeRTOS10/event_groups.c **** EventBits_t xEventGroupSetBits( EventGroupHandle_t xEventGroup, const EventBits_t uxBitsToSet )
 506:..\FreeRTOS10/event_groups.c **** {
 507:..\FreeRTOS10/event_groups.c **** ListItem_t *pxListItem, *pxNext;
 508:..\FreeRTOS10/event_groups.c **** ListItem_t const *pxListEnd;
 509:..\FreeRTOS10/event_groups.c **** List_t *pxList;
 510:..\FreeRTOS10/event_groups.c **** EventBits_t uxBitsToClear = 0, uxBitsWaitedFor, uxControlBits;
 511:..\FreeRTOS10/event_groups.c **** EventGroup_t *pxEventBits = ( EventGroup_t * ) xEventGroup;
 512:..\FreeRTOS10/event_groups.c **** BaseType_t xMatchFound = pdFALSE;
 513:..\FreeRTOS10/event_groups.c **** 
 514:..\FreeRTOS10/event_groups.c **** 	/* Check the user is not attempting to set the bits used by the kernel
 515:..\FreeRTOS10/event_groups.c **** 	itself. */
 516:..\FreeRTOS10/event_groups.c **** 	configASSERT( xEventGroup );
 517:..\FreeRTOS10/event_groups.c **** 	configASSERT( ( uxBitsToSet & eventEVENT_BITS_CONTROL_BYTES ) == 0 );
 518:..\FreeRTOS10/event_groups.c **** 
 519:..\FreeRTOS10/event_groups.c **** 	pxList = &( pxEventBits->xTasksWaitingForBits );
 520:..\FreeRTOS10/event_groups.c **** 	pxListEnd = listGET_END_MARKER( pxList ); /*lint !e826 !e740 The mini list structure is used as th
 521:..\FreeRTOS10/event_groups.c **** 	vTaskSuspendAll();
 522:..\FreeRTOS10/event_groups.c **** 	{
 523:..\FreeRTOS10/event_groups.c **** 		traceEVENT_GROUP_SET_BITS( xEventGroup, uxBitsToSet );
 524:..\FreeRTOS10/event_groups.c **** 
 525:..\FreeRTOS10/event_groups.c **** 		pxListItem = listGET_HEAD_ENTRY( pxList );
 526:..\FreeRTOS10/event_groups.c **** 
 527:..\FreeRTOS10/event_groups.c **** 		/* Set the bits. */
 528:..\FreeRTOS10/event_groups.c **** 		pxEventBits->uxEventBits |= uxBitsToSet;
 529:..\FreeRTOS10/event_groups.c **** 
 530:..\FreeRTOS10/event_groups.c **** 		/* See if the new bit value should unblock any tasks. */
 531:..\FreeRTOS10/event_groups.c **** 		while( pxListItem != pxListEnd )
 532:..\FreeRTOS10/event_groups.c **** 		{
 533:..\FreeRTOS10/event_groups.c **** 			pxNext = listGET_NEXT( pxListItem );
 534:..\FreeRTOS10/event_groups.c **** 			uxBitsWaitedFor = listGET_LIST_ITEM_VALUE( pxListItem );
 535:..\FreeRTOS10/event_groups.c **** 			xMatchFound = pdFALSE;
 536:..\FreeRTOS10/event_groups.c **** 
 537:..\FreeRTOS10/event_groups.c **** 			/* Split the bits waited for from the control bits. */
 538:..\FreeRTOS10/event_groups.c **** 			uxControlBits = uxBitsWaitedFor & eventEVENT_BITS_CONTROL_BYTES;
 539:..\FreeRTOS10/event_groups.c **** 			uxBitsWaitedFor &= ~eventEVENT_BITS_CONTROL_BYTES;
 540:..\FreeRTOS10/event_groups.c **** 
 541:..\FreeRTOS10/event_groups.c **** 			if( ( uxControlBits & eventWAIT_FOR_ALL_BITS ) == ( EventBits_t ) 0 )
 542:..\FreeRTOS10/event_groups.c **** 			{
 543:..\FreeRTOS10/event_groups.c **** 				/* Just looking for single bit being set. */
 544:..\FreeRTOS10/event_groups.c **** 				if( ( uxBitsWaitedFor & pxEventBits->uxEventBits ) != ( EventBits_t ) 0 )
ARM GAS  C:\Users\Xwx47\AppData\Local\Temp\ccuVyguK.s 			page 11


 545:..\FreeRTOS10/event_groups.c **** 				{
 546:..\FreeRTOS10/event_groups.c **** 					xMatchFound = pdTRUE;
 547:..\FreeRTOS10/event_groups.c **** 				}
 548:..\FreeRTOS10/event_groups.c **** 				else
 549:..\FreeRTOS10/event_groups.c **** 				{
 550:..\FreeRTOS10/event_groups.c **** 					mtCOVERAGE_TEST_MARKER();
 551:..\FreeRTOS10/event_groups.c **** 				}
 552:..\FreeRTOS10/event_groups.c **** 			}
 553:..\FreeRTOS10/event_groups.c **** 			else if( ( uxBitsWaitedFor & pxEventBits->uxEventBits ) == uxBitsWaitedFor )
 554:..\FreeRTOS10/event_groups.c **** 			{
 555:..\FreeRTOS10/event_groups.c **** 				/* All bits are set. */
 556:..\FreeRTOS10/event_groups.c **** 				xMatchFound = pdTRUE;
 557:..\FreeRTOS10/event_groups.c **** 			}
 558:..\FreeRTOS10/event_groups.c **** 			else
 559:..\FreeRTOS10/event_groups.c **** 			{
 560:..\FreeRTOS10/event_groups.c **** 				/* Need all bits to be set, but not all the bits were set. */
 561:..\FreeRTOS10/event_groups.c **** 			}
 562:..\FreeRTOS10/event_groups.c **** 
 563:..\FreeRTOS10/event_groups.c **** 			if( xMatchFound != pdFALSE )
 564:..\FreeRTOS10/event_groups.c **** 			{
 565:..\FreeRTOS10/event_groups.c **** 				/* The bits match.  Should the bits be cleared on exit? */
 566:..\FreeRTOS10/event_groups.c **** 				if( ( uxControlBits & eventCLEAR_EVENTS_ON_EXIT_BIT ) != ( EventBits_t ) 0 )
 567:..\FreeRTOS10/event_groups.c **** 				{
 568:..\FreeRTOS10/event_groups.c **** 					uxBitsToClear |= uxBitsWaitedFor;
 569:..\FreeRTOS10/event_groups.c **** 				}
 570:..\FreeRTOS10/event_groups.c **** 				else
 571:..\FreeRTOS10/event_groups.c **** 				{
 572:..\FreeRTOS10/event_groups.c **** 					mtCOVERAGE_TEST_MARKER();
 573:..\FreeRTOS10/event_groups.c **** 				}
 574:..\FreeRTOS10/event_groups.c **** 
 575:..\FreeRTOS10/event_groups.c **** 				/* Store the actual event flag value in the task's event list
 576:..\FreeRTOS10/event_groups.c **** 				item before removing the task from the event list.  The
 577:..\FreeRTOS10/event_groups.c **** 				eventUNBLOCKED_DUE_TO_BIT_SET bit is set so the task knows
 578:..\FreeRTOS10/event_groups.c **** 				that is was unblocked due to its required bits matching, rather
 579:..\FreeRTOS10/event_groups.c **** 				than because it timed out. */
 580:..\FreeRTOS10/event_groups.c **** 				vTaskRemoveFromUnorderedEventList( pxListItem, pxEventBits->uxEventBits | eventUNBLOCKED_DUE_TO
 581:..\FreeRTOS10/event_groups.c **** 			}
 582:..\FreeRTOS10/event_groups.c **** 
 583:..\FreeRTOS10/event_groups.c **** 			/* Move onto the next list item.  Note pxListItem->pxNext is not
 584:..\FreeRTOS10/event_groups.c **** 			used here as the list item may have been removed from the event list
 585:..\FreeRTOS10/event_groups.c **** 			and inserted into the ready/pending reading list. */
 586:..\FreeRTOS10/event_groups.c **** 			pxListItem = pxNext;
 587:..\FreeRTOS10/event_groups.c **** 		}
 588:..\FreeRTOS10/event_groups.c **** 
 589:..\FreeRTOS10/event_groups.c **** 		/* Clear any bits that matched when the eventCLEAR_EVENTS_ON_EXIT_BIT
 590:..\FreeRTOS10/event_groups.c **** 		bit was set in the control word. */
 591:..\FreeRTOS10/event_groups.c **** 		pxEventBits->uxEventBits &= ~uxBitsToClear;
 592:..\FreeRTOS10/event_groups.c **** 	}
 593:..\FreeRTOS10/event_groups.c **** 	( void ) xTaskResumeAll();
 594:..\FreeRTOS10/event_groups.c **** 
 595:..\FreeRTOS10/event_groups.c **** 	return pxEventBits->uxEventBits;
 596:..\FreeRTOS10/event_groups.c **** }
 597:..\FreeRTOS10/event_groups.c **** /*-----------------------------------------------------------*/
 598:..\FreeRTOS10/event_groups.c **** 
 599:..\FreeRTOS10/event_groups.c **** void vEventGroupDelete( EventGroupHandle_t xEventGroup )
 600:..\FreeRTOS10/event_groups.c **** {
 601:..\FreeRTOS10/event_groups.c **** EventGroup_t *pxEventBits = ( EventGroup_t * ) xEventGroup;
ARM GAS  C:\Users\Xwx47\AppData\Local\Temp\ccuVyguK.s 			page 12


 602:..\FreeRTOS10/event_groups.c **** const List_t *pxTasksWaitingForBits = &( pxEventBits->xTasksWaitingForBits );
 603:..\FreeRTOS10/event_groups.c **** 
 604:..\FreeRTOS10/event_groups.c **** 	vTaskSuspendAll();
 605:..\FreeRTOS10/event_groups.c **** 	{
 606:..\FreeRTOS10/event_groups.c **** 		traceEVENT_GROUP_DELETE( xEventGroup );
 607:..\FreeRTOS10/event_groups.c **** 
 608:..\FreeRTOS10/event_groups.c **** 		while( listCURRENT_LIST_LENGTH( pxTasksWaitingForBits ) > ( UBaseType_t ) 0 )
 609:..\FreeRTOS10/event_groups.c **** 		{
 610:..\FreeRTOS10/event_groups.c **** 			/* Unblock the task, returning 0 as the event list is being deleted
 611:..\FreeRTOS10/event_groups.c **** 			and cannot therefore have any bits set. */
 612:..\FreeRTOS10/event_groups.c **** 			configASSERT( pxTasksWaitingForBits->xListEnd.pxNext != ( const ListItem_t * ) &( pxTasksWaiting
 613:..\FreeRTOS10/event_groups.c **** 			vTaskRemoveFromUnorderedEventList( pxTasksWaitingForBits->xListEnd.pxNext, eventUNBLOCKED_DUE_TO
 614:..\FreeRTOS10/event_groups.c **** 		}
 615:..\FreeRTOS10/event_groups.c **** 
 616:..\FreeRTOS10/event_groups.c **** 		#if( ( configSUPPORT_DYNAMIC_ALLOCATION == 1 ) && ( configSUPPORT_STATIC_ALLOCATION == 0 ) )
 617:..\FreeRTOS10/event_groups.c **** 		{
 618:..\FreeRTOS10/event_groups.c **** 			/* The event group can only have been allocated dynamically - free
 619:..\FreeRTOS10/event_groups.c **** 			it again. */
 620:..\FreeRTOS10/event_groups.c **** 			vPortFree( pxEventBits );
 621:..\FreeRTOS10/event_groups.c **** 		}
 622:..\FreeRTOS10/event_groups.c **** 		#elif( ( configSUPPORT_DYNAMIC_ALLOCATION == 1 ) && ( configSUPPORT_STATIC_ALLOCATION == 1 ) )
 623:..\FreeRTOS10/event_groups.c **** 		{
 624:..\FreeRTOS10/event_groups.c **** 			/* The event group could have been allocated statically or
 625:..\FreeRTOS10/event_groups.c **** 			dynamically, so check before attempting to free the memory. */
 626:..\FreeRTOS10/event_groups.c **** 			if( pxEventBits->ucStaticallyAllocated == ( uint8_t ) pdFALSE )
 627:..\FreeRTOS10/event_groups.c **** 			{
 628:..\FreeRTOS10/event_groups.c **** 				vPortFree( pxEventBits );
 629:..\FreeRTOS10/event_groups.c **** 			}
 630:..\FreeRTOS10/event_groups.c **** 			else
 631:..\FreeRTOS10/event_groups.c **** 			{
 632:..\FreeRTOS10/event_groups.c **** 				mtCOVERAGE_TEST_MARKER();
 633:..\FreeRTOS10/event_groups.c **** 			}
 634:..\FreeRTOS10/event_groups.c **** 		}
 635:..\FreeRTOS10/event_groups.c **** 		#endif /* configSUPPORT_DYNAMIC_ALLOCATION */
 636:..\FreeRTOS10/event_groups.c **** 	}
 637:..\FreeRTOS10/event_groups.c **** 	( void ) xTaskResumeAll();
 638:..\FreeRTOS10/event_groups.c **** }
 639:..\FreeRTOS10/event_groups.c **** /*-----------------------------------------------------------*/
 640:..\FreeRTOS10/event_groups.c **** 
 641:..\FreeRTOS10/event_groups.c **** /* For internal use only - execute a 'set bits' command that was pended from
 642:..\FreeRTOS10/event_groups.c **** an interrupt. */
 643:..\FreeRTOS10/event_groups.c **** void vEventGroupSetBitsCallback( void *pvEventGroup, const uint32_t ulBitsToSet )
 644:..\FreeRTOS10/event_groups.c **** {
 645:..\FreeRTOS10/event_groups.c **** 	( void ) xEventGroupSetBits( pvEventGroup, ( EventBits_t ) ulBitsToSet );
 646:..\FreeRTOS10/event_groups.c **** }
 647:..\FreeRTOS10/event_groups.c **** /*-----------------------------------------------------------*/
 648:..\FreeRTOS10/event_groups.c **** 
 649:..\FreeRTOS10/event_groups.c **** /* For internal use only - execute a 'clear bits' command that was pended from
 650:..\FreeRTOS10/event_groups.c **** an interrupt. */
 651:..\FreeRTOS10/event_groups.c **** void vEventGroupClearBitsCallback( void *pvEventGroup, const uint32_t ulBitsToClear )
 652:..\FreeRTOS10/event_groups.c **** {
 653:..\FreeRTOS10/event_groups.c **** 	( void ) xEventGroupClearBits( pvEventGroup, ( EventBits_t ) ulBitsToClear );
 654:..\FreeRTOS10/event_groups.c **** }
 655:..\FreeRTOS10/event_groups.c **** /*-----------------------------------------------------------*/
 656:..\FreeRTOS10/event_groups.c **** 
 657:..\FreeRTOS10/event_groups.c **** static BaseType_t prvTestWaitCondition( const EventBits_t uxCurrentEventBits, const EventBits_t uxB
 658:..\FreeRTOS10/event_groups.c **** {
ARM GAS  C:\Users\Xwx47\AppData\Local\Temp\ccuVyguK.s 			page 13


  27              		.loc 1 658 0
  28              		.cfi_startproc
  29              		@ args = 0, pretend = 0, frame = 0
  30              		@ frame_needed = 0, uses_anonymous_args = 0
  31              		@ link register save eliminated.
  32              	.LVL0:
 659:..\FreeRTOS10/event_groups.c **** BaseType_t xWaitConditionMet = pdFALSE;
 660:..\FreeRTOS10/event_groups.c **** 
 661:..\FreeRTOS10/event_groups.c **** 	if( xWaitForAllBits == pdFALSE )
  33              		.loc 1 661 0
  34 0000 002A     		cmp	r2, #0
  35 0002 03D1     		bne	.L2
 662:..\FreeRTOS10/event_groups.c **** 	{
 663:..\FreeRTOS10/event_groups.c **** 		/* Task only has to wait for one bit within uxBitsToWaitFor to be
 664:..\FreeRTOS10/event_groups.c **** 		set.  Is one already set? */
 665:..\FreeRTOS10/event_groups.c **** 		if( ( uxCurrentEventBits & uxBitsToWaitFor ) != ( EventBits_t ) 0 )
  36              		.loc 1 665 0
  37 0004 0142     		tst	r1, r0
  38 0006 06D1     		bne	.L4
 659:..\FreeRTOS10/event_groups.c **** BaseType_t xWaitConditionMet = pdFALSE;
  39              		.loc 1 659 0
  40 0008 0020     		movs	r0, #0
  41              	.LVL1:
  42 000a 07E0     		b	.L3
  43              	.LVL2:
  44              	.L2:
 666:..\FreeRTOS10/event_groups.c **** 		{
 667:..\FreeRTOS10/event_groups.c **** 			xWaitConditionMet = pdTRUE;
 668:..\FreeRTOS10/event_groups.c **** 		}
 669:..\FreeRTOS10/event_groups.c **** 		else
 670:..\FreeRTOS10/event_groups.c **** 		{
 671:..\FreeRTOS10/event_groups.c **** 			mtCOVERAGE_TEST_MARKER();
 672:..\FreeRTOS10/event_groups.c **** 		}
 673:..\FreeRTOS10/event_groups.c **** 	}
 674:..\FreeRTOS10/event_groups.c **** 	else
 675:..\FreeRTOS10/event_groups.c **** 	{
 676:..\FreeRTOS10/event_groups.c **** 		/* Task has to wait for all the bits in uxBitsToWaitFor to be set.
 677:..\FreeRTOS10/event_groups.c **** 		Are they set already? */
 678:..\FreeRTOS10/event_groups.c **** 		if( ( uxCurrentEventBits & uxBitsToWaitFor ) == uxBitsToWaitFor )
  45              		.loc 1 678 0
  46 000c 0840     		ands	r0, r1
  47              	.LVL3:
  48 000e 8142     		cmp	r1, r0
  49 0010 03D0     		beq	.L5
 659:..\FreeRTOS10/event_groups.c **** 
  50              		.loc 1 659 0
  51 0012 0020     		movs	r0, #0
  52 0014 02E0     		b	.L3
  53              	.LVL4:
  54              	.L4:
 667:..\FreeRTOS10/event_groups.c **** 		}
  55              		.loc 1 667 0
  56 0016 0120     		movs	r0, #1
  57              	.LVL5:
  58 0018 00E0     		b	.L3
  59              	.L5:
 679:..\FreeRTOS10/event_groups.c **** 		{
ARM GAS  C:\Users\Xwx47\AppData\Local\Temp\ccuVyguK.s 			page 14


 680:..\FreeRTOS10/event_groups.c **** 			xWaitConditionMet = pdTRUE;
  60              		.loc 1 680 0
  61 001a 0120     		movs	r0, #1
  62              	.L3:
  63              	.LVL6:
 681:..\FreeRTOS10/event_groups.c **** 		}
 682:..\FreeRTOS10/event_groups.c **** 		else
 683:..\FreeRTOS10/event_groups.c **** 		{
 684:..\FreeRTOS10/event_groups.c **** 			mtCOVERAGE_TEST_MARKER();
 685:..\FreeRTOS10/event_groups.c **** 		}
 686:..\FreeRTOS10/event_groups.c **** 	}
 687:..\FreeRTOS10/event_groups.c **** 
 688:..\FreeRTOS10/event_groups.c **** 	return xWaitConditionMet;
 689:..\FreeRTOS10/event_groups.c **** }
  64              		.loc 1 689 0
  65              		@ sp needed
  66 001c 7047     		bx	lr
  67              		.cfi_endproc
  68              	.LFE41:
  69              		.size	prvTestWaitCondition, .-prvTestWaitCondition
  70 001e C046     		.section	.text.xEventGroupCreate,"ax",%progbits
  71              		.align	2
  72              		.global	xEventGroupCreate
  73              		.code	16
  74              		.thumb_func
  75              		.type	xEventGroupCreate, %function
  76              	xEventGroupCreate:
  77              	.LFB32:
 144:..\FreeRTOS10/event_groups.c **** 	EventGroup_t *pxEventBits;
  78              		.loc 1 144 0
  79              		.cfi_startproc
  80              		@ args = 0, pretend = 0, frame = 0
  81              		@ frame_needed = 0, uses_anonymous_args = 0
  82 0000 10B5     		push	{r4, lr}
  83              		.cfi_def_cfa_offset 8
  84              		.cfi_offset 4, -8
  85              		.cfi_offset 14, -4
 148:..\FreeRTOS10/event_groups.c **** 
  86              		.loc 1 148 0
  87 0002 1820     		movs	r0, #24
  88 0004 FFF7FEFF 		bl	pvPortMalloc
  89              	.LVL7:
  90 0008 041E     		subs	r4, r0, #0
  91              	.LVL8:
 150:..\FreeRTOS10/event_groups.c **** 		{
  92              		.loc 1 150 0
  93 000a 03D0     		beq	.L7
 152:..\FreeRTOS10/event_groups.c **** 			vListInitialise( &( pxEventBits->xTasksWaitingForBits ) );
  94              		.loc 1 152 0
  95 000c 0023     		movs	r3, #0
  96 000e 08C0     		stmia	r0!, {r3}
  97              	.LVL9:
 153:..\FreeRTOS10/event_groups.c **** 
  98              		.loc 1 153 0
  99 0010 FFF7FEFF 		bl	vListInitialise
 100              	.LVL10:
 101              	.L7:
ARM GAS  C:\Users\Xwx47\AppData\Local\Temp\ccuVyguK.s 			page 15


 172:..\FreeRTOS10/event_groups.c **** 
 102              		.loc 1 172 0
 103 0014 2000     		movs	r0, r4
 104              		@ sp needed
 105              	.LVL11:
 106 0016 10BD     		pop	{r4, pc}
 107              		.cfi_endproc
 108              	.LFE32:
 109              		.size	xEventGroupCreate, .-xEventGroupCreate
 110              		.section	.text.xEventGroupWaitBits,"ax",%progbits
 111              		.align	2
 112              		.global	xEventGroupWaitBits
 113              		.code	16
 114              		.thumb_func
 115              		.type	xEventGroupWaitBits, %function
 116              	xEventGroupWaitBits:
 117              	.LFB34:
 298:..\FreeRTOS10/event_groups.c **** EventGroup_t *pxEventBits = ( EventGroup_t * ) xEventGroup;
 118              		.loc 1 298 0
 119              		.cfi_startproc
 120              		@ args = 4, pretend = 0, frame = 8
 121              		@ frame_needed = 0, uses_anonymous_args = 0
 122              	.LVL12:
 123 0000 F0B5     		push	{r4, r5, r6, r7, lr}
 124              		.cfi_def_cfa_offset 20
 125              		.cfi_offset 4, -20
 126              		.cfi_offset 5, -16
 127              		.cfi_offset 6, -12
 128              		.cfi_offset 7, -8
 129              		.cfi_offset 14, -4
 130 0002 83B0     		sub	sp, sp, #12
 131              		.cfi_def_cfa_offset 32
 132 0004 0700     		movs	r7, r0
 133 0006 0D00     		movs	r5, r1
 134 0008 1600     		movs	r6, r2
 135 000a 0193     		str	r3, [sp, #4]
 136              	.LVL13:
 315:..\FreeRTOS10/event_groups.c **** 	{
 137              		.loc 1 315 0
 138 000c FFF7FEFF 		bl	vTaskSuspendAll
 139              	.LVL14:
 140              	.LBB2:
 317:..\FreeRTOS10/event_groups.c **** 
 141              		.loc 1 317 0
 142 0010 3C68     		ldr	r4, [r7]
 143              	.LVL15:
 320:..\FreeRTOS10/event_groups.c **** 
 144              		.loc 1 320 0
 145 0012 019A     		ldr	r2, [sp, #4]
 146 0014 2900     		movs	r1, r5
 147 0016 2000     		movs	r0, r4
 148 0018 FFF7FEFF 		bl	prvTestWaitCondition
 149              	.LVL16:
 322:..\FreeRTOS10/event_groups.c **** 		{
 150              		.loc 1 322 0
 151 001c 0028     		cmp	r0, #0
 152 001e 07D0     		beq	.L9
ARM GAS  C:\Users\Xwx47\AppData\Local\Temp\ccuVyguK.s 			page 16


 153              	.LVL17:
 330:..\FreeRTOS10/event_groups.c **** 			{
 154              		.loc 1 330 0
 155 0020 002E     		cmp	r6, #0
 156 0022 1BD0     		beq	.L17
 332:..\FreeRTOS10/event_groups.c **** 			}
 157              		.loc 1 332 0
 158 0024 2300     		movs	r3, r4
 159 0026 AB43     		bics	r3, r5
 160 0028 3B60     		str	r3, [r7]
 327:..\FreeRTOS10/event_groups.c **** 
 161              		.loc 1 327 0
 162 002a 0023     		movs	r3, #0
 163 002c 0893     		str	r3, [sp, #32]
 164 002e 17E0     		b	.L10
 165              	.LVL18:
 166              	.L9:
 339:..\FreeRTOS10/event_groups.c **** 		{
 167              		.loc 1 339 0
 168 0030 089B     		ldr	r3, [sp, #32]
 169 0032 002B     		cmp	r3, #0
 170 0034 14D0     		beq	.L10
 352:..\FreeRTOS10/event_groups.c **** 			{
 171              		.loc 1 352 0
 172 0036 002E     		cmp	r6, #0
 173 0038 01D1     		bne	.L18
 174              	.LBE2:
 300:..\FreeRTOS10/event_groups.c **** BaseType_t xWaitConditionMet, xAlreadyYielded;
 175              		.loc 1 300 0
 176 003a 0021     		movs	r1, #0
 177 003c 01E0     		b	.L11
 178              	.L18:
 179              	.LBB3:
 354:..\FreeRTOS10/event_groups.c **** 			}
 180              		.loc 1 354 0
 181 003e 8021     		movs	r1, #128
 182 0040 4904     		lsls	r1, r1, #17
 183              	.L11:
 184              	.LVL19:
 361:..\FreeRTOS10/event_groups.c **** 			{
 185              		.loc 1 361 0
 186 0042 019B     		ldr	r3, [sp, #4]
 187 0044 002B     		cmp	r3, #0
 188 0046 02D0     		beq	.L12
 363:..\FreeRTOS10/event_groups.c **** 			}
 189              		.loc 1 363 0
 190 0048 8023     		movs	r3, #128
 191 004a DB04     		lsls	r3, r3, #19
 192 004c 1943     		orrs	r1, r3
 193              	.LVL20:
 194              	.L12:
 373:..\FreeRTOS10/event_groups.c **** 
 195              		.loc 1 373 0
 196 004e 2943     		orrs	r1, r5
 197              	.LVL21:
 198 0050 381D     		adds	r0, r7, #4
 199              	.LVL22:
ARM GAS  C:\Users\Xwx47\AppData\Local\Temp\ccuVyguK.s 			page 17


 200 0052 089A     		ldr	r2, [sp, #32]
 201 0054 FFF7FEFF 		bl	vTaskPlaceOnUnorderedEventList
 202              	.LVL23:
 378:..\FreeRTOS10/event_groups.c **** 
 203              		.loc 1 378 0
 204 0058 0024     		movs	r4, #0
 205              	.LVL24:
 206 005a 01E0     		b	.L10
 207              	.LVL25:
 208              	.L17:
 327:..\FreeRTOS10/event_groups.c **** 
 209              		.loc 1 327 0
 210 005c 0023     		movs	r3, #0
 211 005e 0893     		str	r3, [sp, #32]
 212              	.LVL26:
 213              	.L10:
 214              	.LBE3:
 383:..\FreeRTOS10/event_groups.c **** 
 215              		.loc 1 383 0
 216 0060 FFF7FEFF 		bl	xTaskResumeAll
 217              	.LVL27:
 385:..\FreeRTOS10/event_groups.c **** 	{
 218              		.loc 1 385 0
 219 0064 089B     		ldr	r3, [sp, #32]
 220 0066 002B     		cmp	r3, #0
 221 0068 1BD0     		beq	.L13
 387:..\FreeRTOS10/event_groups.c **** 		{
 222              		.loc 1 387 0
 223 006a 0028     		cmp	r0, #0
 224 006c 01D1     		bne	.L14
 389:..\FreeRTOS10/event_groups.c **** 		}
 225              		.loc 1 389 0
 226 006e FFF7FEFF 		bl	vPortYield
 227              	.LVL28:
 228              	.L14:
 400:..\FreeRTOS10/event_groups.c **** 
 229              		.loc 1 400 0
 230 0072 FFF7FEFF 		bl	uxTaskResetEventItemValue
 231              	.LVL29:
 232 0076 0400     		movs	r4, r0
 233              	.LVL30:
 402:..\FreeRTOS10/event_groups.c **** 		{
 234              		.loc 1 402 0
 235 0078 8301     		lsls	r3, r0, #6
 236 007a 10D4     		bmi	.L15
 404:..\FreeRTOS10/event_groups.c **** 			{
 237              		.loc 1 404 0
 238 007c FFF7FEFF 		bl	vPortEnterCritical
 239              	.LVL31:
 407:..\FreeRTOS10/event_groups.c **** 
 240              		.loc 1 407 0
 241 0080 3C68     		ldr	r4, [r7]
 242              	.LVL32:
 411:..\FreeRTOS10/event_groups.c **** 				{
 243              		.loc 1 411 0
 244 0082 019A     		ldr	r2, [sp, #4]
 245 0084 2900     		movs	r1, r5
ARM GAS  C:\Users\Xwx47\AppData\Local\Temp\ccuVyguK.s 			page 18


 246 0086 2000     		movs	r0, r4
 247 0088 FFF7FEFF 		bl	prvTestWaitCondition
 248              	.LVL33:
 249 008c 0028     		cmp	r0, #0
 250 008e 04D0     		beq	.L16
 413:..\FreeRTOS10/event_groups.c **** 					{
 251              		.loc 1 413 0
 252 0090 002E     		cmp	r6, #0
 253 0092 02D0     		beq	.L16
 415:..\FreeRTOS10/event_groups.c **** 					}
 254              		.loc 1 415 0
 255 0094 2300     		movs	r3, r4
 256 0096 AB43     		bics	r3, r5
 257 0098 3B60     		str	r3, [r7]
 258              	.L16:
 259              	.LVL34:
 428:..\FreeRTOS10/event_groups.c **** 		}
 260              		.loc 1 428 0
 261 009a FFF7FEFF 		bl	vPortExitCritical
 262              	.LVL35:
 263              	.L15:
 436:..\FreeRTOS10/event_groups.c **** 	}
 264              		.loc 1 436 0
 265 009e 2402     		lsls	r4, r4, #8
 266              	.LVL36:
 267 00a0 240A     		lsrs	r4, r4, #8
 268              	.LVL37:
 269              	.L13:
 444:..\FreeRTOS10/event_groups.c **** /*-----------------------------------------------------------*/
 270              		.loc 1 444 0
 271 00a2 2000     		movs	r0, r4
 272 00a4 03B0     		add	sp, sp, #12
 273              		@ sp needed
 274              	.LVL38:
 275              	.LVL39:
 276              	.LVL40:
 277              	.LVL41:
 278 00a6 F0BD     		pop	{r4, r5, r6, r7, pc}
 279              		.cfi_endproc
 280              	.LFE34:
 281              		.size	xEventGroupWaitBits, .-xEventGroupWaitBits
 282              		.section	.text.xEventGroupClearBits,"ax",%progbits
 283              		.align	2
 284              		.global	xEventGroupClearBits
 285              		.code	16
 286              		.thumb_func
 287              		.type	xEventGroupClearBits, %function
 288              	xEventGroupClearBits:
 289              	.LFB35:
 448:..\FreeRTOS10/event_groups.c **** EventGroup_t *pxEventBits = ( EventGroup_t * ) xEventGroup;
 290              		.loc 1 448 0
 291              		.cfi_startproc
 292              		@ args = 0, pretend = 0, frame = 0
 293              		@ frame_needed = 0, uses_anonymous_args = 0
 294              	.LVL42:
 295 0000 70B5     		push	{r4, r5, r6, lr}
 296              		.cfi_def_cfa_offset 16
ARM GAS  C:\Users\Xwx47\AppData\Local\Temp\ccuVyguK.s 			page 19


 297              		.cfi_offset 4, -16
 298              		.cfi_offset 5, -12
 299              		.cfi_offset 6, -8
 300              		.cfi_offset 14, -4
 301 0002 0500     		movs	r5, r0
 302 0004 0E00     		movs	r6, r1
 303              	.LVL43:
 457:..\FreeRTOS10/event_groups.c **** 	{
 304              		.loc 1 457 0
 305 0006 FFF7FEFF 		bl	vPortEnterCritical
 306              	.LVL44:
 463:..\FreeRTOS10/event_groups.c **** 
 307              		.loc 1 463 0
 308 000a 2C68     		ldr	r4, [r5]
 309              	.LVL45:
 466:..\FreeRTOS10/event_groups.c **** 	}
 310              		.loc 1 466 0
 311 000c 2300     		movs	r3, r4
 312 000e B343     		bics	r3, r6
 313 0010 2B60     		str	r3, [r5]
 468:..\FreeRTOS10/event_groups.c **** 
 314              		.loc 1 468 0
 315 0012 FFF7FEFF 		bl	vPortExitCritical
 316              	.LVL46:
 471:..\FreeRTOS10/event_groups.c **** /*-----------------------------------------------------------*/
 317              		.loc 1 471 0
 318 0016 2000     		movs	r0, r4
 319              		@ sp needed
 320              	.LVL47:
 321              	.LVL48:
 322              	.LVL49:
 323 0018 70BD     		pop	{r4, r5, r6, pc}
 324              		.cfi_endproc
 325              	.LFE35:
 326              		.size	xEventGroupClearBits, .-xEventGroupClearBits
 327 001a C046     		.section	.text.xEventGroupGetBitsFromISR,"ax",%progbits
 328              		.align	2
 329              		.global	xEventGroupGetBitsFromISR
 330              		.code	16
 331              		.thumb_func
 332              		.type	xEventGroupGetBitsFromISR, %function
 333              	xEventGroupGetBitsFromISR:
 334              	.LFB36:
 490:..\FreeRTOS10/event_groups.c **** UBaseType_t uxSavedInterruptStatus;
 335              		.loc 1 490 0
 336              		.cfi_startproc
 337              		@ args = 0, pretend = 0, frame = 0
 338              		@ frame_needed = 0, uses_anonymous_args = 0
 339              	.LVL50:
 340 0000 10B5     		push	{r4, lr}
 341              		.cfi_def_cfa_offset 8
 342              		.cfi_offset 4, -8
 343              		.cfi_offset 14, -4
 344 0002 0400     		movs	r4, r0
 345              	.LVL51:
 495:..\FreeRTOS10/event_groups.c **** 	{
 346              		.loc 1 495 0
ARM GAS  C:\Users\Xwx47\AppData\Local\Temp\ccuVyguK.s 			page 20


 347 0004 FFF7FEFF 		bl	ulSetInterruptMaskFromISR
 348              	.LVL52:
 497:..\FreeRTOS10/event_groups.c **** 	}
 349              		.loc 1 497 0
 350 0008 2468     		ldr	r4, [r4]
 351              	.LVL53:
 499:..\FreeRTOS10/event_groups.c **** 
 352              		.loc 1 499 0
 353 000a FFF7FEFF 		bl	vClearInterruptMaskFromISR
 354              	.LVL54:
 502:..\FreeRTOS10/event_groups.c **** /*-----------------------------------------------------------*/
 355              		.loc 1 502 0
 356 000e 2000     		movs	r0, r4
 357              		@ sp needed
 358              	.LVL55:
 359 0010 10BD     		pop	{r4, pc}
 360              		.cfi_endproc
 361              	.LFE36:
 362              		.size	xEventGroupGetBitsFromISR, .-xEventGroupGetBitsFromISR
 363 0012 C046     		.section	.text.xEventGroupSetBits,"ax",%progbits
 364              		.align	2
 365              		.global	xEventGroupSetBits
 366              		.code	16
 367              		.thumb_func
 368              		.type	xEventGroupSetBits, %function
 369              	xEventGroupSetBits:
 370              	.LFB37:
 506:..\FreeRTOS10/event_groups.c **** ListItem_t *pxListItem, *pxNext;
 371              		.loc 1 506 0
 372              		.cfi_startproc
 373              		@ args = 0, pretend = 0, frame = 0
 374              		@ frame_needed = 0, uses_anonymous_args = 0
 375              	.LVL56:
 376 0000 F8B5     		push	{r3, r4, r5, r6, r7, lr}
 377              		.cfi_def_cfa_offset 24
 378              		.cfi_offset 3, -24
 379              		.cfi_offset 4, -20
 380              		.cfi_offset 5, -16
 381              		.cfi_offset 6, -12
 382              		.cfi_offset 7, -8
 383              		.cfi_offset 14, -4
 384 0002 0400     		movs	r4, r0
 385 0004 0D00     		movs	r5, r1
 386              	.LVL57:
 520:..\FreeRTOS10/event_groups.c **** 	vTaskSuspendAll();
 387              		.loc 1 520 0
 388 0006 0600     		movs	r6, r0
 389 0008 0C36     		adds	r6, r6, #12
 390              	.LVL58:
 521:..\FreeRTOS10/event_groups.c **** 	{
 391              		.loc 1 521 0
 392 000a FFF7FEFF 		bl	vTaskSuspendAll
 393              	.LVL59:
 525:..\FreeRTOS10/event_groups.c **** 
 394              		.loc 1 525 0
 395 000e 2069     		ldr	r0, [r4, #16]
 396              	.LVL60:
ARM GAS  C:\Users\Xwx47\AppData\Local\Temp\ccuVyguK.s 			page 21


 528:..\FreeRTOS10/event_groups.c **** 
 397              		.loc 1 528 0
 398 0010 2368     		ldr	r3, [r4]
 399 0012 1D43     		orrs	r5, r3
 400              	.LVL61:
 401 0014 2560     		str	r5, [r4]
 510:..\FreeRTOS10/event_groups.c **** EventGroup_t *pxEventBits = ( EventGroup_t * ) xEventGroup;
 402              		.loc 1 510 0
 403 0016 0027     		movs	r7, #0
 531:..\FreeRTOS10/event_groups.c **** 		{
 404              		.loc 1 531 0
 405 0018 1FE0     		b	.L22
 406              	.LVL62:
 407              	.L27:
 533:..\FreeRTOS10/event_groups.c **** 			uxBitsWaitedFor = listGET_LIST_ITEM_VALUE( pxListItem );
 408              		.loc 1 533 0
 409 001a 4568     		ldr	r5, [r0, #4]
 410              	.LVL63:
 534:..\FreeRTOS10/event_groups.c **** 			xMatchFound = pdFALSE;
 411              		.loc 1 534 0
 412 001c 0268     		ldr	r2, [r0]
 413              	.LVL64:
 539:..\FreeRTOS10/event_groups.c **** 
 414              		.loc 1 539 0
 415 001e 1302     		lsls	r3, r2, #8
 416 0020 1B0A     		lsrs	r3, r3, #8
 417              	.LVL65:
 541:..\FreeRTOS10/event_groups.c **** 			{
 418              		.loc 1 541 0
 419 0022 5101     		lsls	r1, r2, #5
 420 0024 04D4     		bmi	.L23
 544:..\FreeRTOS10/event_groups.c **** 				{
 421              		.loc 1 544 0
 422 0026 2168     		ldr	r1, [r4]
 423 0028 1942     		tst	r1, r3
 424 002a 07D1     		bne	.L28
 535:..\FreeRTOS10/event_groups.c **** 
 425              		.loc 1 535 0
 426 002c 0021     		movs	r1, #0
 427 002e 08E0     		b	.L24
 428              	.L23:
 553:..\FreeRTOS10/event_groups.c **** 			{
 429              		.loc 1 553 0
 430 0030 2168     		ldr	r1, [r4]
 431 0032 1940     		ands	r1, r3
 432 0034 8B42     		cmp	r3, r1
 433 0036 03D0     		beq	.L29
 535:..\FreeRTOS10/event_groups.c **** 
 434              		.loc 1 535 0
 435 0038 0021     		movs	r1, #0
 436 003a 02E0     		b	.L24
 437              	.L28:
 546:..\FreeRTOS10/event_groups.c **** 				}
 438              		.loc 1 546 0
 439 003c 0121     		movs	r1, #1
 440 003e 00E0     		b	.L24
 441              	.L29:
ARM GAS  C:\Users\Xwx47\AppData\Local\Temp\ccuVyguK.s 			page 22


 556:..\FreeRTOS10/event_groups.c **** 			}
 442              		.loc 1 556 0
 443 0040 0121     		movs	r1, #1
 444              	.L24:
 445              	.LVL66:
 563:..\FreeRTOS10/event_groups.c **** 			{
 446              		.loc 1 563 0
 447 0042 0029     		cmp	r1, #0
 448 0044 08D0     		beq	.L25
 566:..\FreeRTOS10/event_groups.c **** 				{
 449              		.loc 1 566 0
 450 0046 D201     		lsls	r2, r2, #7
 451 0048 00D5     		bpl	.L26
 452              	.LVL67:
 568:..\FreeRTOS10/event_groups.c **** 				}
 453              		.loc 1 568 0
 454 004a 1F43     		orrs	r7, r3
 455              	.LVL68:
 456              	.L26:
 580:..\FreeRTOS10/event_groups.c **** 			}
 457              		.loc 1 580 0
 458 004c 8021     		movs	r1, #128
 459              	.LVL69:
 460 004e 8904     		lsls	r1, r1, #18
 461 0050 2368     		ldr	r3, [r4]
 462              	.LVL70:
 463 0052 1943     		orrs	r1, r3
 464 0054 FFF7FEFF 		bl	vTaskRemoveFromUnorderedEventList
 465              	.LVL71:
 466              	.L25:
 535:..\FreeRTOS10/event_groups.c **** 
 467              		.loc 1 535 0
 468 0058 2800     		movs	r0, r5
 469              	.LVL72:
 470              	.L22:
 531:..\FreeRTOS10/event_groups.c **** 		{
 471              		.loc 1 531 0
 472 005a B042     		cmp	r0, r6
 473 005c DDD1     		bne	.L27
 591:..\FreeRTOS10/event_groups.c **** 	}
 474              		.loc 1 591 0
 475 005e 2368     		ldr	r3, [r4]
 476 0060 BB43     		bics	r3, r7
 477 0062 2360     		str	r3, [r4]
 593:..\FreeRTOS10/event_groups.c **** 
 478              		.loc 1 593 0
 479 0064 FFF7FEFF 		bl	xTaskResumeAll
 480              	.LVL73:
 595:..\FreeRTOS10/event_groups.c **** }
 481              		.loc 1 595 0
 482 0068 2068     		ldr	r0, [r4]
 596:..\FreeRTOS10/event_groups.c **** /*-----------------------------------------------------------*/
 483              		.loc 1 596 0
 484              		@ sp needed
 485              	.LVL74:
 486              	.LVL75:
 487              	.LVL76:
ARM GAS  C:\Users\Xwx47\AppData\Local\Temp\ccuVyguK.s 			page 23


 488 006a F8BD     		pop	{r3, r4, r5, r6, r7, pc}
 489              		.cfi_endproc
 490              	.LFE37:
 491              		.size	xEventGroupSetBits, .-xEventGroupSetBits
 492              		.section	.text.xEventGroupSync,"ax",%progbits
 493              		.align	2
 494              		.global	xEventGroupSync
 495              		.code	16
 496              		.thumb_func
 497              		.type	xEventGroupSync, %function
 498              	xEventGroupSync:
 499              	.LFB33:
 178:..\FreeRTOS10/event_groups.c **** EventBits_t uxOriginalBitValue, uxReturn;
 500              		.loc 1 178 0
 501              		.cfi_startproc
 502              		@ args = 0, pretend = 0, frame = 8
 503              		@ frame_needed = 0, uses_anonymous_args = 0
 504              	.LVL77:
 505 0000 F0B5     		push	{r4, r5, r6, r7, lr}
 506              		.cfi_def_cfa_offset 20
 507              		.cfi_offset 4, -20
 508              		.cfi_offset 5, -16
 509              		.cfi_offset 6, -12
 510              		.cfi_offset 7, -8
 511              		.cfi_offset 14, -4
 512 0002 83B0     		sub	sp, sp, #12
 513              		.cfi_def_cfa_offset 32
 514 0004 0600     		movs	r6, r0
 515 0006 0191     		str	r1, [sp, #4]
 516 0008 1700     		movs	r7, r2
 517 000a 1D00     		movs	r5, r3
 518              	.LVL78:
 192:..\FreeRTOS10/event_groups.c **** 	{
 519              		.loc 1 192 0
 520 000c FFF7FEFF 		bl	vTaskSuspendAll
 521              	.LVL79:
 194:..\FreeRTOS10/event_groups.c **** 
 522              		.loc 1 194 0
 523 0010 3468     		ldr	r4, [r6]
 524              	.LVL80:
 196:..\FreeRTOS10/event_groups.c **** 
 525              		.loc 1 196 0
 526 0012 0199     		ldr	r1, [sp, #4]
 527 0014 3000     		movs	r0, r6
 528 0016 FFF7FEFF 		bl	xEventGroupSetBits
 529              	.LVL81:
 198:..\FreeRTOS10/event_groups.c **** 		{
 530              		.loc 1 198 0
 531 001a 019B     		ldr	r3, [sp, #4]
 532 001c 1C43     		orrs	r4, r3
 533              	.LVL82:
 534 001e 3B00     		movs	r3, r7
 535 0020 2340     		ands	r3, r4
 536 0022 9F42     		cmp	r7, r3
 537 0024 04D1     		bne	.L31
 538              	.LVL83:
 205:..\FreeRTOS10/event_groups.c **** 
ARM GAS  C:\Users\Xwx47\AppData\Local\Temp\ccuVyguK.s 			page 24


 539              		.loc 1 205 0
 540 0026 3368     		ldr	r3, [r6]
 541 0028 BB43     		bics	r3, r7
 542 002a 3360     		str	r3, [r6]
 543              	.LVL84:
 207:..\FreeRTOS10/event_groups.c **** 		}
 544              		.loc 1 207 0
 545 002c 0025     		movs	r5, #0
 546 002e 0BE0     		b	.L32
 547              	.LVL85:
 548              	.L31:
 211:..\FreeRTOS10/event_groups.c **** 			{
 549              		.loc 1 211 0
 550 0030 002D     		cmp	r5, #0
 551 0032 08D0     		beq	.L33
 218:..\FreeRTOS10/event_groups.c **** 
 552              		.loc 1 218 0
 553 0034 A021     		movs	r1, #160
 554 0036 C904     		lsls	r1, r1, #19
 555 0038 3943     		orrs	r1, r7
 556 003a 301D     		adds	r0, r6, #4
 557 003c 2A00     		movs	r2, r5
 558 003e FFF7FEFF 		bl	vTaskPlaceOnUnorderedEventList
 559              	.LVL86:
 224:..\FreeRTOS10/event_groups.c **** 			}
 560              		.loc 1 224 0
 561 0042 0024     		movs	r4, #0
 562 0044 00E0     		b	.L32
 563              	.LVL87:
 564              	.L33:
 230:..\FreeRTOS10/event_groups.c **** 				xTimeoutOccurred = pdTRUE;
 565              		.loc 1 230 0
 566 0046 3468     		ldr	r4, [r6]
 567              	.LVL88:
 568              	.L32:
 235:..\FreeRTOS10/event_groups.c **** 
 569              		.loc 1 235 0
 570 0048 FFF7FEFF 		bl	xTaskResumeAll
 571              	.LVL89:
 237:..\FreeRTOS10/event_groups.c **** 	{
 572              		.loc 1 237 0
 573 004c 002D     		cmp	r5, #0
 574 004e 16D0     		beq	.L34
 239:..\FreeRTOS10/event_groups.c **** 		{
 575              		.loc 1 239 0
 576 0050 0028     		cmp	r0, #0
 577 0052 01D1     		bne	.L35
 241:..\FreeRTOS10/event_groups.c **** 		}
 578              		.loc 1 241 0
 579 0054 FFF7FEFF 		bl	vPortYield
 580              	.LVL90:
 581              	.L35:
 252:..\FreeRTOS10/event_groups.c **** 
 582              		.loc 1 252 0
 583 0058 FFF7FEFF 		bl	uxTaskResetEventItemValue
 584              	.LVL91:
 585 005c 0400     		movs	r4, r0
ARM GAS  C:\Users\Xwx47\AppData\Local\Temp\ccuVyguK.s 			page 25


 586              	.LVL92:
 254:..\FreeRTOS10/event_groups.c **** 		{
 587              		.loc 1 254 0
 588 005e 8301     		lsls	r3, r0, #6
 589 0060 0BD4     		bmi	.L36
 257:..\FreeRTOS10/event_groups.c **** 			{
 590              		.loc 1 257 0
 591 0062 FFF7FEFF 		bl	vPortEnterCritical
 592              	.LVL93:
 259:..\FreeRTOS10/event_groups.c **** 
 593              		.loc 1 259 0
 594 0066 3468     		ldr	r4, [r6]
 595              	.LVL94:
 265:..\FreeRTOS10/event_groups.c **** 				{
 596              		.loc 1 265 0
 597 0068 2300     		movs	r3, r4
 598 006a 3B40     		ands	r3, r7
 599 006c 9F42     		cmp	r7, r3
 600 006e 02D1     		bne	.L37
 267:..\FreeRTOS10/event_groups.c **** 				}
 601              		.loc 1 267 0
 602 0070 2300     		movs	r3, r4
 603 0072 BB43     		bics	r3, r7
 604 0074 3360     		str	r3, [r6]
 605              	.L37:
 274:..\FreeRTOS10/event_groups.c **** 
 606              		.loc 1 274 0
 607 0076 FFF7FEFF 		bl	vPortExitCritical
 608              	.LVL95:
 609              	.L36:
 285:..\FreeRTOS10/event_groups.c **** 	}
 610              		.loc 1 285 0
 611 007a 2402     		lsls	r4, r4, #8
 612              	.LVL96:
 613 007c 240A     		lsrs	r4, r4, #8
 614              	.LVL97:
 615              	.L34:
 294:..\FreeRTOS10/event_groups.c **** /*-----------------------------------------------------------*/
 616              		.loc 1 294 0
 617 007e 2000     		movs	r0, r4
 618 0080 03B0     		add	sp, sp, #12
 619              		@ sp needed
 620              	.LVL98:
 621              	.LVL99:
 622              	.LVL100:
 623              	.LVL101:
 624 0082 F0BD     		pop	{r4, r5, r6, r7, pc}
 625              		.cfi_endproc
 626              	.LFE33:
 627              		.size	xEventGroupSync, .-xEventGroupSync
 628              		.section	.text.vEventGroupDelete,"ax",%progbits
 629              		.align	2
 630              		.global	vEventGroupDelete
 631              		.code	16
 632              		.thumb_func
 633              		.type	vEventGroupDelete, %function
 634              	vEventGroupDelete:
ARM GAS  C:\Users\Xwx47\AppData\Local\Temp\ccuVyguK.s 			page 26


 635              	.LFB38:
 600:..\FreeRTOS10/event_groups.c **** EventGroup_t *pxEventBits = ( EventGroup_t * ) xEventGroup;
 636              		.loc 1 600 0
 637              		.cfi_startproc
 638              		@ args = 0, pretend = 0, frame = 0
 639              		@ frame_needed = 0, uses_anonymous_args = 0
 640              	.LVL102:
 641 0000 10B5     		push	{r4, lr}
 642              		.cfi_def_cfa_offset 8
 643              		.cfi_offset 4, -8
 644              		.cfi_offset 14, -4
 645 0002 0400     		movs	r4, r0
 646              	.LVL103:
 604:..\FreeRTOS10/event_groups.c **** 	{
 647              		.loc 1 604 0
 648 0004 FFF7FEFF 		bl	vTaskSuspendAll
 649              	.LVL104:
 608:..\FreeRTOS10/event_groups.c **** 		{
 650              		.loc 1 608 0
 651 0008 04E0     		b	.L39
 652              	.L40:
 613:..\FreeRTOS10/event_groups.c **** 		}
 653              		.loc 1 613 0
 654 000a 8021     		movs	r1, #128
 655 000c 8904     		lsls	r1, r1, #18
 656 000e 2069     		ldr	r0, [r4, #16]
 657 0010 FFF7FEFF 		bl	vTaskRemoveFromUnorderedEventList
 658              	.LVL105:
 659              	.L39:
 608:..\FreeRTOS10/event_groups.c **** 		{
 660              		.loc 1 608 0
 661 0014 6368     		ldr	r3, [r4, #4]
 662 0016 002B     		cmp	r3, #0
 663 0018 F7D1     		bne	.L40
 620:..\FreeRTOS10/event_groups.c **** 		}
 664              		.loc 1 620 0
 665 001a 2000     		movs	r0, r4
 666 001c FFF7FEFF 		bl	vPortFree
 667              	.LVL106:
 637:..\FreeRTOS10/event_groups.c **** }
 668              		.loc 1 637 0
 669 0020 FFF7FEFF 		bl	xTaskResumeAll
 670              	.LVL107:
 638:..\FreeRTOS10/event_groups.c **** /*-----------------------------------------------------------*/
 671              		.loc 1 638 0
 672              		@ sp needed
 673              	.LVL108:
 674 0024 10BD     		pop	{r4, pc}
 675              		.cfi_endproc
 676              	.LFE38:
 677              		.size	vEventGroupDelete, .-vEventGroupDelete
 678 0026 C046     		.section	.text.vEventGroupSetBitsCallback,"ax",%progbits
 679              		.align	2
 680              		.global	vEventGroupSetBitsCallback
 681              		.code	16
 682              		.thumb_func
 683              		.type	vEventGroupSetBitsCallback, %function
ARM GAS  C:\Users\Xwx47\AppData\Local\Temp\ccuVyguK.s 			page 27


 684              	vEventGroupSetBitsCallback:
 685              	.LFB39:
 644:..\FreeRTOS10/event_groups.c **** 	( void ) xEventGroupSetBits( pvEventGroup, ( EventBits_t ) ulBitsToSet );
 686              		.loc 1 644 0
 687              		.cfi_startproc
 688              		@ args = 0, pretend = 0, frame = 0
 689              		@ frame_needed = 0, uses_anonymous_args = 0
 690              	.LVL109:
 691 0000 10B5     		push	{r4, lr}
 692              		.cfi_def_cfa_offset 8
 693              		.cfi_offset 4, -8
 694              		.cfi_offset 14, -4
 645:..\FreeRTOS10/event_groups.c **** }
 695              		.loc 1 645 0
 696 0002 FFF7FEFF 		bl	xEventGroupSetBits
 697              	.LVL110:
 646:..\FreeRTOS10/event_groups.c **** /*-----------------------------------------------------------*/
 698              		.loc 1 646 0
 699              		@ sp needed
 700 0006 10BD     		pop	{r4, pc}
 701              		.cfi_endproc
 702              	.LFE39:
 703              		.size	vEventGroupSetBitsCallback, .-vEventGroupSetBitsCallback
 704              		.section	.text.vEventGroupClearBitsCallback,"ax",%progbits
 705              		.align	2
 706              		.global	vEventGroupClearBitsCallback
 707              		.code	16
 708              		.thumb_func
 709              		.type	vEventGroupClearBitsCallback, %function
 710              	vEventGroupClearBitsCallback:
 711              	.LFB40:
 652:..\FreeRTOS10/event_groups.c **** 	( void ) xEventGroupClearBits( pvEventGroup, ( EventBits_t ) ulBitsToClear );
 712              		.loc 1 652 0
 713              		.cfi_startproc
 714              		@ args = 0, pretend = 0, frame = 0
 715              		@ frame_needed = 0, uses_anonymous_args = 0
 716              	.LVL111:
 717 0000 10B5     		push	{r4, lr}
 718              		.cfi_def_cfa_offset 8
 719              		.cfi_offset 4, -8
 720              		.cfi_offset 14, -4
 653:..\FreeRTOS10/event_groups.c **** }
 721              		.loc 1 653 0
 722 0002 FFF7FEFF 		bl	xEventGroupClearBits
 723              	.LVL112:
 654:..\FreeRTOS10/event_groups.c **** /*-----------------------------------------------------------*/
 724              		.loc 1 654 0
 725              		@ sp needed
 726 0006 10BD     		pop	{r4, pc}
 727              		.cfi_endproc
 728              	.LFE40:
 729              		.size	vEventGroupClearBitsCallback, .-vEventGroupClearBitsCallback
 730              		.text
 731              	.Letext0:
 732              		.file 2 "c:\\program files (x86)\\cypress\\psoc creator\\4.1\\psoc creator\\import\\gnu\\arm\\5.4.
 733              		.file 3 "c:\\program files (x86)\\cypress\\psoc creator\\4.1\\psoc creator\\import\\gnu\\arm\\5.4.
 734              		.file 4 "..\\FreeRTOS10\\portable\\GCC\\ARM_CM0/portmacro.h"
ARM GAS  C:\Users\Xwx47\AppData\Local\Temp\ccuVyguK.s 			page 28


 735              		.file 5 "..\\FreeRTOS10\\include/list.h"
 736              		.file 6 "..\\FreeRTOS10\\include/event_groups.h"
 737              		.file 7 "..\\FreeRTOS10\\include/portable.h"
 738              		.file 8 "..\\FreeRTOS10\\include/task.h"