ARM GAS  C:\Users\Xwx47\AppData\Local\Temp\ccHl3y9k.s 			page 1


   1              		.syntax unified
   2              		.cpu cortex-m0
   3              		.fpu softvfp
   4              		.eabi_attribute 20, 1
   5              		.eabi_attribute 21, 1
   6              		.eabi_attribute 23, 3
   7              		.eabi_attribute 24, 1
   8              		.eabi_attribute 25, 1
   9              		.eabi_attribute 26, 1
  10              		.eabi_attribute 30, 1
  11              		.eabi_attribute 34, 0
  12              		.eabi_attribute 18, 4
  13              		.thumb
  14              		.syntax unified
  15              		.file	"event_groups.c"
  16              		.text
  17              	.Ltext0:
  18              		.cfi_sections	.debug_frame
  19              		.section	.text.prvTestWaitCondition,"ax",%progbits
  20              		.align	2
  21              		.code	16
  22              		.thumb_func
  23              		.type	prvTestWaitCondition, %function
  24              	prvTestWaitCondition:
  25              	.LFB41:
  26              		.file 1 "..\\FreeRTOS\\event_groups.c"
   1:..\FreeRTOS/event_groups.c **** /*
   2:..\FreeRTOS/event_groups.c ****     FreeRTOS V9.0.0 - Copyright (C) 2016 Real Time Engineers Ltd.
   3:..\FreeRTOS/event_groups.c ****     All rights reserved
   4:..\FreeRTOS/event_groups.c **** 
   5:..\FreeRTOS/event_groups.c ****     VISIT http://www.FreeRTOS.org TO ENSURE YOU ARE USING THE LATEST VERSION.
   6:..\FreeRTOS/event_groups.c **** 
   7:..\FreeRTOS/event_groups.c ****     This file is part of the FreeRTOS distribution.
   8:..\FreeRTOS/event_groups.c **** 
   9:..\FreeRTOS/event_groups.c ****     FreeRTOS is free software; you can redistribute it and/or modify it under
  10:..\FreeRTOS/event_groups.c ****     the terms of the GNU General Public License (version 2) as published by the
  11:..\FreeRTOS/event_groups.c ****     Free Software Foundation >>>> AND MODIFIED BY <<<< the FreeRTOS exception.
  12:..\FreeRTOS/event_groups.c **** 
  13:..\FreeRTOS/event_groups.c ****     ***************************************************************************
  14:..\FreeRTOS/event_groups.c ****     >>!   NOTE: The modification to the GPL is included to allow you to     !<<
  15:..\FreeRTOS/event_groups.c ****     >>!   distribute a combined work that includes FreeRTOS without being   !<<
  16:..\FreeRTOS/event_groups.c ****     >>!   obliged to provide the source code for proprietary components     !<<
  17:..\FreeRTOS/event_groups.c ****     >>!   outside of the FreeRTOS kernel.                                   !<<
  18:..\FreeRTOS/event_groups.c ****     ***************************************************************************
  19:..\FreeRTOS/event_groups.c **** 
  20:..\FreeRTOS/event_groups.c ****     FreeRTOS is distributed in the hope that it will be useful, but WITHOUT ANY
  21:..\FreeRTOS/event_groups.c ****     WARRANTY; without even the implied warranty of MERCHANTABILITY or FITNESS
  22:..\FreeRTOS/event_groups.c ****     FOR A PARTICULAR PURPOSE.  Full license text is available on the following
  23:..\FreeRTOS/event_groups.c ****     link: http://www.freertos.org/a00114.html
  24:..\FreeRTOS/event_groups.c **** 
  25:..\FreeRTOS/event_groups.c ****     ***************************************************************************
  26:..\FreeRTOS/event_groups.c ****      *                                                                       *
  27:..\FreeRTOS/event_groups.c ****      *    FreeRTOS provides completely free yet professionally developed,    *
  28:..\FreeRTOS/event_groups.c ****      *    robust, strictly quality controlled, supported, and cross          *
  29:..\FreeRTOS/event_groups.c ****      *    platform software that is more than just the market leader, it     *
  30:..\FreeRTOS/event_groups.c ****      *    is the industry's de facto standard.                               *
  31:..\FreeRTOS/event_groups.c ****      *                                                                       *
ARM GAS  C:\Users\Xwx47\AppData\Local\Temp\ccHl3y9k.s 			page 2


  32:..\FreeRTOS/event_groups.c ****      *    Help yourself get started quickly while simultaneously helping     *
  33:..\FreeRTOS/event_groups.c ****      *    to support the FreeRTOS project by purchasing a FreeRTOS           *
  34:..\FreeRTOS/event_groups.c ****      *    tutorial book, reference manual, or both:                          *
  35:..\FreeRTOS/event_groups.c ****      *    http://www.FreeRTOS.org/Documentation                              *
  36:..\FreeRTOS/event_groups.c ****      *                                                                       *
  37:..\FreeRTOS/event_groups.c ****     ***************************************************************************
  38:..\FreeRTOS/event_groups.c **** 
  39:..\FreeRTOS/event_groups.c ****     http://www.FreeRTOS.org/FAQHelp.html - Having a problem?  Start by reading
  40:..\FreeRTOS/event_groups.c ****     the FAQ page "My application does not run, what could be wrong?".  Have you
  41:..\FreeRTOS/event_groups.c ****     defined configASSERT()?
  42:..\FreeRTOS/event_groups.c **** 
  43:..\FreeRTOS/event_groups.c ****     http://www.FreeRTOS.org/support - In return for receiving this top quality
  44:..\FreeRTOS/event_groups.c ****     embedded software for free we request you assist our global community by
  45:..\FreeRTOS/event_groups.c ****     participating in the support forum.
  46:..\FreeRTOS/event_groups.c **** 
  47:..\FreeRTOS/event_groups.c ****     http://www.FreeRTOS.org/training - Investing in training allows your team to
  48:..\FreeRTOS/event_groups.c ****     be as productive as possible as early as possible.  Now you can receive
  49:..\FreeRTOS/event_groups.c ****     FreeRTOS training directly from Richard Barry, CEO of Real Time Engineers
  50:..\FreeRTOS/event_groups.c ****     Ltd, and the world's leading authority on the world's leading RTOS.
  51:..\FreeRTOS/event_groups.c **** 
  52:..\FreeRTOS/event_groups.c ****     http://www.FreeRTOS.org/plus - A selection of FreeRTOS ecosystem products,
  53:..\FreeRTOS/event_groups.c ****     including FreeRTOS+Trace - an indispensable productivity tool, a DOS
  54:..\FreeRTOS/event_groups.c ****     compatible FAT file system, and our tiny thread aware UDP/IP stack.
  55:..\FreeRTOS/event_groups.c **** 
  56:..\FreeRTOS/event_groups.c ****     http://www.FreeRTOS.org/labs - Where new FreeRTOS products go to incubate.
  57:..\FreeRTOS/event_groups.c ****     Come and try FreeRTOS+TCP, our new open source TCP/IP stack for FreeRTOS.
  58:..\FreeRTOS/event_groups.c **** 
  59:..\FreeRTOS/event_groups.c ****     http://www.OpenRTOS.com - Real Time Engineers ltd. license FreeRTOS to High
  60:..\FreeRTOS/event_groups.c ****     Integrity Systems ltd. to sell under the OpenRTOS brand.  Low cost OpenRTOS
  61:..\FreeRTOS/event_groups.c ****     licenses offer ticketed support, indemnification and commercial middleware.
  62:..\FreeRTOS/event_groups.c **** 
  63:..\FreeRTOS/event_groups.c ****     http://www.SafeRTOS.com - High Integrity Systems also provide a safety
  64:..\FreeRTOS/event_groups.c ****     engineered and independently SIL3 certified version for use in safety and
  65:..\FreeRTOS/event_groups.c ****     mission critical applications that require provable dependability.
  66:..\FreeRTOS/event_groups.c **** 
  67:..\FreeRTOS/event_groups.c ****     1 tab == 4 spaces!
  68:..\FreeRTOS/event_groups.c **** */
  69:..\FreeRTOS/event_groups.c **** 
  70:..\FreeRTOS/event_groups.c **** /* Standard includes. */
  71:..\FreeRTOS/event_groups.c **** #include <stdlib.h>
  72:..\FreeRTOS/event_groups.c **** 
  73:..\FreeRTOS/event_groups.c **** /* Defining MPU_WRAPPERS_INCLUDED_FROM_API_FILE prevents task.h from redefining
  74:..\FreeRTOS/event_groups.c **** all the API functions to use the MPU wrappers.  That should only be done when
  75:..\FreeRTOS/event_groups.c **** task.h is included from an application file. */
  76:..\FreeRTOS/event_groups.c **** #define MPU_WRAPPERS_INCLUDED_FROM_API_FILE
  77:..\FreeRTOS/event_groups.c **** 
  78:..\FreeRTOS/event_groups.c **** /* FreeRTOS includes. */
  79:..\FreeRTOS/event_groups.c **** #include "FreeRTOS.h"
  80:..\FreeRTOS/event_groups.c **** #include "task.h"
  81:..\FreeRTOS/event_groups.c **** #include "timers.h"
  82:..\FreeRTOS/event_groups.c **** #include "event_groups.h"
  83:..\FreeRTOS/event_groups.c **** 
  84:..\FreeRTOS/event_groups.c **** /* Lint e961 and e750 are suppressed as a MISRA exception justified because the
  85:..\FreeRTOS/event_groups.c **** MPU ports require MPU_WRAPPERS_INCLUDED_FROM_API_FILE to be defined for the
  86:..\FreeRTOS/event_groups.c **** header files above, but not in this file, in order to generate the correct
  87:..\FreeRTOS/event_groups.c **** privileged Vs unprivileged linkage and placement. */
  88:..\FreeRTOS/event_groups.c **** #undef MPU_WRAPPERS_INCLUDED_FROM_API_FILE /*lint !e961 !e750. */
ARM GAS  C:\Users\Xwx47\AppData\Local\Temp\ccHl3y9k.s 			page 3


  89:..\FreeRTOS/event_groups.c **** 
  90:..\FreeRTOS/event_groups.c **** /* The following bit fields convey control information in a task's event list
  91:..\FreeRTOS/event_groups.c **** item value.  It is important they don't clash with the
  92:..\FreeRTOS/event_groups.c **** taskEVENT_LIST_ITEM_VALUE_IN_USE definition. */
  93:..\FreeRTOS/event_groups.c **** #if configUSE_16_BIT_TICKS == 1
  94:..\FreeRTOS/event_groups.c **** 	#define eventCLEAR_EVENTS_ON_EXIT_BIT	0x0100U
  95:..\FreeRTOS/event_groups.c **** 	#define eventUNBLOCKED_DUE_TO_BIT_SET	0x0200U
  96:..\FreeRTOS/event_groups.c **** 	#define eventWAIT_FOR_ALL_BITS			0x0400U
  97:..\FreeRTOS/event_groups.c **** 	#define eventEVENT_BITS_CONTROL_BYTES	0xff00U
  98:..\FreeRTOS/event_groups.c **** #else
  99:..\FreeRTOS/event_groups.c **** 	#define eventCLEAR_EVENTS_ON_EXIT_BIT	0x01000000UL
 100:..\FreeRTOS/event_groups.c **** 	#define eventUNBLOCKED_DUE_TO_BIT_SET	0x02000000UL
 101:..\FreeRTOS/event_groups.c **** 	#define eventWAIT_FOR_ALL_BITS			0x04000000UL
 102:..\FreeRTOS/event_groups.c **** 	#define eventEVENT_BITS_CONTROL_BYTES	0xff000000UL
 103:..\FreeRTOS/event_groups.c **** #endif
 104:..\FreeRTOS/event_groups.c **** 
 105:..\FreeRTOS/event_groups.c **** typedef struct xEventGroupDefinition
 106:..\FreeRTOS/event_groups.c **** {
 107:..\FreeRTOS/event_groups.c **** 	EventBits_t uxEventBits;
 108:..\FreeRTOS/event_groups.c **** 	List_t xTasksWaitingForBits;		/*< List of tasks waiting for a bit to be set. */
 109:..\FreeRTOS/event_groups.c **** 
 110:..\FreeRTOS/event_groups.c **** 	#if( configUSE_TRACE_FACILITY == 1 )
 111:..\FreeRTOS/event_groups.c **** 		UBaseType_t uxEventGroupNumber;
 112:..\FreeRTOS/event_groups.c **** 	#endif
 113:..\FreeRTOS/event_groups.c **** 
 114:..\FreeRTOS/event_groups.c **** 	#if( ( configSUPPORT_STATIC_ALLOCATION == 1 ) && ( configSUPPORT_DYNAMIC_ALLOCATION == 1 ) )
 115:..\FreeRTOS/event_groups.c **** 		uint8_t ucStaticallyAllocated; /*< Set to pdTRUE if the event group is statically allocated to en
 116:..\FreeRTOS/event_groups.c **** 	#endif
 117:..\FreeRTOS/event_groups.c **** } EventGroup_t;
 118:..\FreeRTOS/event_groups.c **** 
 119:..\FreeRTOS/event_groups.c **** /*-----------------------------------------------------------*/
 120:..\FreeRTOS/event_groups.c **** 
 121:..\FreeRTOS/event_groups.c **** /*
 122:..\FreeRTOS/event_groups.c ****  * Test the bits set in uxCurrentEventBits to see if the wait condition is met.
 123:..\FreeRTOS/event_groups.c ****  * The wait condition is defined by xWaitForAllBits.  If xWaitForAllBits is
 124:..\FreeRTOS/event_groups.c ****  * pdTRUE then the wait condition is met if all the bits set in uxBitsToWaitFor
 125:..\FreeRTOS/event_groups.c ****  * are also set in uxCurrentEventBits.  If xWaitForAllBits is pdFALSE then the
 126:..\FreeRTOS/event_groups.c ****  * wait condition is met if any of the bits set in uxBitsToWait for are also set
 127:..\FreeRTOS/event_groups.c ****  * in uxCurrentEventBits.
 128:..\FreeRTOS/event_groups.c ****  */
 129:..\FreeRTOS/event_groups.c **** static BaseType_t prvTestWaitCondition( const EventBits_t uxCurrentEventBits, const EventBits_t uxB
 130:..\FreeRTOS/event_groups.c **** 
 131:..\FreeRTOS/event_groups.c **** /*-----------------------------------------------------------*/
 132:..\FreeRTOS/event_groups.c **** 
 133:..\FreeRTOS/event_groups.c **** #if( configSUPPORT_STATIC_ALLOCATION == 1 )
 134:..\FreeRTOS/event_groups.c **** 
 135:..\FreeRTOS/event_groups.c **** 	EventGroupHandle_t xEventGroupCreateStatic( StaticEventGroup_t *pxEventGroupBuffer )
 136:..\FreeRTOS/event_groups.c **** 	{
 137:..\FreeRTOS/event_groups.c **** 	EventGroup_t *pxEventBits;
 138:..\FreeRTOS/event_groups.c **** 
 139:..\FreeRTOS/event_groups.c **** 		/* A StaticEventGroup_t object must be provided. */
 140:..\FreeRTOS/event_groups.c **** 		configASSERT( pxEventGroupBuffer );
 141:..\FreeRTOS/event_groups.c **** 
 142:..\FreeRTOS/event_groups.c **** 		/* The user has provided a statically allocated event group - use it. */
 143:..\FreeRTOS/event_groups.c **** 		pxEventBits = ( EventGroup_t * ) pxEventGroupBuffer; /*lint !e740 EventGroup_t and StaticEventGro
 144:..\FreeRTOS/event_groups.c **** 
 145:..\FreeRTOS/event_groups.c **** 		if( pxEventBits != NULL )
ARM GAS  C:\Users\Xwx47\AppData\Local\Temp\ccHl3y9k.s 			page 4


 146:..\FreeRTOS/event_groups.c **** 		{
 147:..\FreeRTOS/event_groups.c **** 			pxEventBits->uxEventBits = 0;
 148:..\FreeRTOS/event_groups.c **** 			vListInitialise( &( pxEventBits->xTasksWaitingForBits ) );
 149:..\FreeRTOS/event_groups.c **** 
 150:..\FreeRTOS/event_groups.c **** 			#if( configSUPPORT_DYNAMIC_ALLOCATION == 1 )
 151:..\FreeRTOS/event_groups.c **** 			{
 152:..\FreeRTOS/event_groups.c **** 				/* Both static and dynamic allocation can be used, so note that
 153:..\FreeRTOS/event_groups.c **** 				this event group was created statically in case the event group
 154:..\FreeRTOS/event_groups.c **** 				is later deleted. */
 155:..\FreeRTOS/event_groups.c **** 				pxEventBits->ucStaticallyAllocated = pdTRUE;
 156:..\FreeRTOS/event_groups.c **** 			}
 157:..\FreeRTOS/event_groups.c **** 			#endif /* configSUPPORT_DYNAMIC_ALLOCATION */
 158:..\FreeRTOS/event_groups.c **** 
 159:..\FreeRTOS/event_groups.c **** 			traceEVENT_GROUP_CREATE( pxEventBits );
 160:..\FreeRTOS/event_groups.c **** 		}
 161:..\FreeRTOS/event_groups.c **** 		else
 162:..\FreeRTOS/event_groups.c **** 		{
 163:..\FreeRTOS/event_groups.c **** 			traceEVENT_GROUP_CREATE_FAILED();
 164:..\FreeRTOS/event_groups.c **** 		}
 165:..\FreeRTOS/event_groups.c **** 
 166:..\FreeRTOS/event_groups.c **** 		return ( EventGroupHandle_t ) pxEventBits;
 167:..\FreeRTOS/event_groups.c **** 	}
 168:..\FreeRTOS/event_groups.c **** 
 169:..\FreeRTOS/event_groups.c **** #endif /* configSUPPORT_STATIC_ALLOCATION */
 170:..\FreeRTOS/event_groups.c **** /*-----------------------------------------------------------*/
 171:..\FreeRTOS/event_groups.c **** 
 172:..\FreeRTOS/event_groups.c **** #if( configSUPPORT_DYNAMIC_ALLOCATION == 1 )
 173:..\FreeRTOS/event_groups.c **** 
 174:..\FreeRTOS/event_groups.c **** 	EventGroupHandle_t xEventGroupCreate( void )
 175:..\FreeRTOS/event_groups.c **** 	{
 176:..\FreeRTOS/event_groups.c **** 	EventGroup_t *pxEventBits;
 177:..\FreeRTOS/event_groups.c **** 
 178:..\FreeRTOS/event_groups.c **** 		/* Allocate the event group. */
 179:..\FreeRTOS/event_groups.c **** 		pxEventBits = ( EventGroup_t * ) pvPortMalloc( sizeof( EventGroup_t ) );
 180:..\FreeRTOS/event_groups.c **** 
 181:..\FreeRTOS/event_groups.c **** 		if( pxEventBits != NULL )
 182:..\FreeRTOS/event_groups.c **** 		{
 183:..\FreeRTOS/event_groups.c **** 			pxEventBits->uxEventBits = 0;
 184:..\FreeRTOS/event_groups.c **** 			vListInitialise( &( pxEventBits->xTasksWaitingForBits ) );
 185:..\FreeRTOS/event_groups.c **** 
 186:..\FreeRTOS/event_groups.c **** 			#if( configSUPPORT_STATIC_ALLOCATION == 1 )
 187:..\FreeRTOS/event_groups.c **** 			{
 188:..\FreeRTOS/event_groups.c **** 				/* Both static and dynamic allocation can be used, so note this
 189:..\FreeRTOS/event_groups.c **** 				event group was allocated statically in case the event group is
 190:..\FreeRTOS/event_groups.c **** 				later deleted. */
 191:..\FreeRTOS/event_groups.c **** 				pxEventBits->ucStaticallyAllocated = pdFALSE;
 192:..\FreeRTOS/event_groups.c **** 			}
 193:..\FreeRTOS/event_groups.c **** 			#endif /* configSUPPORT_STATIC_ALLOCATION */
 194:..\FreeRTOS/event_groups.c **** 
 195:..\FreeRTOS/event_groups.c **** 			traceEVENT_GROUP_CREATE( pxEventBits );
 196:..\FreeRTOS/event_groups.c **** 		}
 197:..\FreeRTOS/event_groups.c **** 		else
 198:..\FreeRTOS/event_groups.c **** 		{
 199:..\FreeRTOS/event_groups.c **** 			traceEVENT_GROUP_CREATE_FAILED();
 200:..\FreeRTOS/event_groups.c **** 		}
 201:..\FreeRTOS/event_groups.c **** 
 202:..\FreeRTOS/event_groups.c **** 		return ( EventGroupHandle_t ) pxEventBits;
ARM GAS  C:\Users\Xwx47\AppData\Local\Temp\ccHl3y9k.s 			page 5


 203:..\FreeRTOS/event_groups.c **** 	}
 204:..\FreeRTOS/event_groups.c **** 
 205:..\FreeRTOS/event_groups.c **** #endif /* configSUPPORT_DYNAMIC_ALLOCATION */
 206:..\FreeRTOS/event_groups.c **** /*-----------------------------------------------------------*/
 207:..\FreeRTOS/event_groups.c **** 
 208:..\FreeRTOS/event_groups.c **** EventBits_t xEventGroupSync( EventGroupHandle_t xEventGroup, const EventBits_t uxBitsToSet, const E
 209:..\FreeRTOS/event_groups.c **** {
 210:..\FreeRTOS/event_groups.c **** EventBits_t uxOriginalBitValue, uxReturn;
 211:..\FreeRTOS/event_groups.c **** EventGroup_t *pxEventBits = ( EventGroup_t * ) xEventGroup;
 212:..\FreeRTOS/event_groups.c **** BaseType_t xAlreadyYielded;
 213:..\FreeRTOS/event_groups.c **** BaseType_t xTimeoutOccurred = pdFALSE;
 214:..\FreeRTOS/event_groups.c **** 
 215:..\FreeRTOS/event_groups.c **** 	configASSERT( ( uxBitsToWaitFor & eventEVENT_BITS_CONTROL_BYTES ) == 0 );
 216:..\FreeRTOS/event_groups.c **** 	configASSERT( uxBitsToWaitFor != 0 );
 217:..\FreeRTOS/event_groups.c **** 	#if ( ( INCLUDE_xTaskGetSchedulerState == 1 ) || ( configUSE_TIMERS == 1 ) )
 218:..\FreeRTOS/event_groups.c **** 	{
 219:..\FreeRTOS/event_groups.c **** 		configASSERT( !( ( xTaskGetSchedulerState() == taskSCHEDULER_SUSPENDED ) && ( xTicksToWait != 0 )
 220:..\FreeRTOS/event_groups.c **** 	}
 221:..\FreeRTOS/event_groups.c **** 	#endif
 222:..\FreeRTOS/event_groups.c **** 
 223:..\FreeRTOS/event_groups.c **** 	vTaskSuspendAll();
 224:..\FreeRTOS/event_groups.c **** 	{
 225:..\FreeRTOS/event_groups.c **** 		uxOriginalBitValue = pxEventBits->uxEventBits;
 226:..\FreeRTOS/event_groups.c **** 
 227:..\FreeRTOS/event_groups.c **** 		( void ) xEventGroupSetBits( xEventGroup, uxBitsToSet );
 228:..\FreeRTOS/event_groups.c **** 
 229:..\FreeRTOS/event_groups.c **** 		if( ( ( uxOriginalBitValue | uxBitsToSet ) & uxBitsToWaitFor ) == uxBitsToWaitFor )
 230:..\FreeRTOS/event_groups.c **** 		{
 231:..\FreeRTOS/event_groups.c **** 			/* All the rendezvous bits are now set - no need to block. */
 232:..\FreeRTOS/event_groups.c **** 			uxReturn = ( uxOriginalBitValue | uxBitsToSet );
 233:..\FreeRTOS/event_groups.c **** 
 234:..\FreeRTOS/event_groups.c **** 			/* Rendezvous always clear the bits.  They will have been cleared
 235:..\FreeRTOS/event_groups.c **** 			already unless this is the only task in the rendezvous. */
 236:..\FreeRTOS/event_groups.c **** 			pxEventBits->uxEventBits &= ~uxBitsToWaitFor;
 237:..\FreeRTOS/event_groups.c **** 
 238:..\FreeRTOS/event_groups.c **** 			xTicksToWait = 0;
 239:..\FreeRTOS/event_groups.c **** 		}
 240:..\FreeRTOS/event_groups.c **** 		else
 241:..\FreeRTOS/event_groups.c **** 		{
 242:..\FreeRTOS/event_groups.c **** 			if( xTicksToWait != ( TickType_t ) 0 )
 243:..\FreeRTOS/event_groups.c **** 			{
 244:..\FreeRTOS/event_groups.c **** 				traceEVENT_GROUP_SYNC_BLOCK( xEventGroup, uxBitsToSet, uxBitsToWaitFor );
 245:..\FreeRTOS/event_groups.c **** 
 246:..\FreeRTOS/event_groups.c **** 				/* Store the bits that the calling task is waiting for in the
 247:..\FreeRTOS/event_groups.c **** 				task's event list item so the kernel knows when a match is
 248:..\FreeRTOS/event_groups.c **** 				found.  Then enter the blocked state. */
 249:..\FreeRTOS/event_groups.c **** 				vTaskPlaceOnUnorderedEventList( &( pxEventBits->xTasksWaitingForBits ), ( uxBitsToWaitFor | eve
 250:..\FreeRTOS/event_groups.c **** 
 251:..\FreeRTOS/event_groups.c **** 				/* This assignment is obsolete as uxReturn will get set after
 252:..\FreeRTOS/event_groups.c **** 				the task unblocks, but some compilers mistakenly generate a
 253:..\FreeRTOS/event_groups.c **** 				warning about uxReturn being returned without being set if the
 254:..\FreeRTOS/event_groups.c **** 				assignment is omitted. */
 255:..\FreeRTOS/event_groups.c **** 				uxReturn = 0;
 256:..\FreeRTOS/event_groups.c **** 			}
 257:..\FreeRTOS/event_groups.c **** 			else
 258:..\FreeRTOS/event_groups.c **** 			{
 259:..\FreeRTOS/event_groups.c **** 				/* The rendezvous bits were not set, but no block time was
ARM GAS  C:\Users\Xwx47\AppData\Local\Temp\ccHl3y9k.s 			page 6


 260:..\FreeRTOS/event_groups.c **** 				specified - just return the current event bit value. */
 261:..\FreeRTOS/event_groups.c **** 				uxReturn = pxEventBits->uxEventBits;
 262:..\FreeRTOS/event_groups.c **** 			}
 263:..\FreeRTOS/event_groups.c **** 		}
 264:..\FreeRTOS/event_groups.c **** 	}
 265:..\FreeRTOS/event_groups.c **** 	xAlreadyYielded = xTaskResumeAll();
 266:..\FreeRTOS/event_groups.c **** 
 267:..\FreeRTOS/event_groups.c **** 	if( xTicksToWait != ( TickType_t ) 0 )
 268:..\FreeRTOS/event_groups.c **** 	{
 269:..\FreeRTOS/event_groups.c **** 		if( xAlreadyYielded == pdFALSE )
 270:..\FreeRTOS/event_groups.c **** 		{
 271:..\FreeRTOS/event_groups.c **** 			portYIELD_WITHIN_API();
 272:..\FreeRTOS/event_groups.c **** 		}
 273:..\FreeRTOS/event_groups.c **** 		else
 274:..\FreeRTOS/event_groups.c **** 		{
 275:..\FreeRTOS/event_groups.c **** 			mtCOVERAGE_TEST_MARKER();
 276:..\FreeRTOS/event_groups.c **** 		}
 277:..\FreeRTOS/event_groups.c **** 
 278:..\FreeRTOS/event_groups.c **** 		/* The task blocked to wait for its required bits to be set - at this
 279:..\FreeRTOS/event_groups.c **** 		point either the required bits were set or the block time expired.  If
 280:..\FreeRTOS/event_groups.c **** 		the required bits were set they will have been stored in the task's
 281:..\FreeRTOS/event_groups.c **** 		event list item, and they should now be retrieved then cleared. */
 282:..\FreeRTOS/event_groups.c **** 		uxReturn = uxTaskResetEventItemValue();
 283:..\FreeRTOS/event_groups.c **** 
 284:..\FreeRTOS/event_groups.c **** 		if( ( uxReturn & eventUNBLOCKED_DUE_TO_BIT_SET ) == ( EventBits_t ) 0 )
 285:..\FreeRTOS/event_groups.c **** 		{
 286:..\FreeRTOS/event_groups.c **** 			/* The task timed out, just return the current event bit value. */
 287:..\FreeRTOS/event_groups.c **** 			taskENTER_CRITICAL();
 288:..\FreeRTOS/event_groups.c **** 			{
 289:..\FreeRTOS/event_groups.c **** 				uxReturn = pxEventBits->uxEventBits;
 290:..\FreeRTOS/event_groups.c **** 
 291:..\FreeRTOS/event_groups.c **** 				/* Although the task got here because it timed out before the
 292:..\FreeRTOS/event_groups.c **** 				bits it was waiting for were set, it is possible that since it
 293:..\FreeRTOS/event_groups.c **** 				unblocked another task has set the bits.  If this is the case
 294:..\FreeRTOS/event_groups.c **** 				then it needs to clear the bits before exiting. */
 295:..\FreeRTOS/event_groups.c **** 				if( ( uxReturn & uxBitsToWaitFor ) == uxBitsToWaitFor )
 296:..\FreeRTOS/event_groups.c **** 				{
 297:..\FreeRTOS/event_groups.c **** 					pxEventBits->uxEventBits &= ~uxBitsToWaitFor;
 298:..\FreeRTOS/event_groups.c **** 				}
 299:..\FreeRTOS/event_groups.c **** 				else
 300:..\FreeRTOS/event_groups.c **** 				{
 301:..\FreeRTOS/event_groups.c **** 					mtCOVERAGE_TEST_MARKER();
 302:..\FreeRTOS/event_groups.c **** 				}
 303:..\FreeRTOS/event_groups.c **** 			}
 304:..\FreeRTOS/event_groups.c **** 			taskEXIT_CRITICAL();
 305:..\FreeRTOS/event_groups.c **** 
 306:..\FreeRTOS/event_groups.c **** 			xTimeoutOccurred = pdTRUE;
 307:..\FreeRTOS/event_groups.c **** 		}
 308:..\FreeRTOS/event_groups.c **** 		else
 309:..\FreeRTOS/event_groups.c **** 		{
 310:..\FreeRTOS/event_groups.c **** 			/* The task unblocked because the bits were set. */
 311:..\FreeRTOS/event_groups.c **** 		}
 312:..\FreeRTOS/event_groups.c **** 
 313:..\FreeRTOS/event_groups.c **** 		/* Control bits might be set as the task had blocked should not be
 314:..\FreeRTOS/event_groups.c **** 		returned. */
 315:..\FreeRTOS/event_groups.c **** 		uxReturn &= ~eventEVENT_BITS_CONTROL_BYTES;
 316:..\FreeRTOS/event_groups.c **** 	}
ARM GAS  C:\Users\Xwx47\AppData\Local\Temp\ccHl3y9k.s 			page 7


 317:..\FreeRTOS/event_groups.c **** 
 318:..\FreeRTOS/event_groups.c **** 	traceEVENT_GROUP_SYNC_END( xEventGroup, uxBitsToSet, uxBitsToWaitFor, xTimeoutOccurred );
 319:..\FreeRTOS/event_groups.c **** 
 320:..\FreeRTOS/event_groups.c **** 	return uxReturn;
 321:..\FreeRTOS/event_groups.c **** }
 322:..\FreeRTOS/event_groups.c **** /*-----------------------------------------------------------*/
 323:..\FreeRTOS/event_groups.c **** 
 324:..\FreeRTOS/event_groups.c **** EventBits_t xEventGroupWaitBits( EventGroupHandle_t xEventGroup, const EventBits_t uxBitsToWaitFor,
 325:..\FreeRTOS/event_groups.c **** {
 326:..\FreeRTOS/event_groups.c **** EventGroup_t *pxEventBits = ( EventGroup_t * ) xEventGroup;
 327:..\FreeRTOS/event_groups.c **** EventBits_t uxReturn, uxControlBits = 0;
 328:..\FreeRTOS/event_groups.c **** BaseType_t xWaitConditionMet, xAlreadyYielded;
 329:..\FreeRTOS/event_groups.c **** BaseType_t xTimeoutOccurred = pdFALSE;
 330:..\FreeRTOS/event_groups.c **** 
 331:..\FreeRTOS/event_groups.c **** 	/* Check the user is not attempting to wait on the bits used by the kernel
 332:..\FreeRTOS/event_groups.c **** 	itself, and that at least one bit is being requested. */
 333:..\FreeRTOS/event_groups.c **** 	configASSERT( xEventGroup );
 334:..\FreeRTOS/event_groups.c **** 	configASSERT( ( uxBitsToWaitFor & eventEVENT_BITS_CONTROL_BYTES ) == 0 );
 335:..\FreeRTOS/event_groups.c **** 	configASSERT( uxBitsToWaitFor != 0 );
 336:..\FreeRTOS/event_groups.c **** 	#if ( ( INCLUDE_xTaskGetSchedulerState == 1 ) || ( configUSE_TIMERS == 1 ) )
 337:..\FreeRTOS/event_groups.c **** 	{
 338:..\FreeRTOS/event_groups.c **** 		configASSERT( !( ( xTaskGetSchedulerState() == taskSCHEDULER_SUSPENDED ) && ( xTicksToWait != 0 )
 339:..\FreeRTOS/event_groups.c **** 	}
 340:..\FreeRTOS/event_groups.c **** 	#endif
 341:..\FreeRTOS/event_groups.c **** 
 342:..\FreeRTOS/event_groups.c **** 	vTaskSuspendAll();
 343:..\FreeRTOS/event_groups.c **** 	{
 344:..\FreeRTOS/event_groups.c **** 		const EventBits_t uxCurrentEventBits = pxEventBits->uxEventBits;
 345:..\FreeRTOS/event_groups.c **** 
 346:..\FreeRTOS/event_groups.c **** 		/* Check to see if the wait condition is already met or not. */
 347:..\FreeRTOS/event_groups.c **** 		xWaitConditionMet = prvTestWaitCondition( uxCurrentEventBits, uxBitsToWaitFor, xWaitForAllBits );
 348:..\FreeRTOS/event_groups.c **** 
 349:..\FreeRTOS/event_groups.c **** 		if( xWaitConditionMet != pdFALSE )
 350:..\FreeRTOS/event_groups.c **** 		{
 351:..\FreeRTOS/event_groups.c **** 			/* The wait condition has already been met so there is no need to
 352:..\FreeRTOS/event_groups.c **** 			block. */
 353:..\FreeRTOS/event_groups.c **** 			uxReturn = uxCurrentEventBits;
 354:..\FreeRTOS/event_groups.c **** 			xTicksToWait = ( TickType_t ) 0;
 355:..\FreeRTOS/event_groups.c **** 
 356:..\FreeRTOS/event_groups.c **** 			/* Clear the wait bits if requested to do so. */
 357:..\FreeRTOS/event_groups.c **** 			if( xClearOnExit != pdFALSE )
 358:..\FreeRTOS/event_groups.c **** 			{
 359:..\FreeRTOS/event_groups.c **** 				pxEventBits->uxEventBits &= ~uxBitsToWaitFor;
 360:..\FreeRTOS/event_groups.c **** 			}
 361:..\FreeRTOS/event_groups.c **** 			else
 362:..\FreeRTOS/event_groups.c **** 			{
 363:..\FreeRTOS/event_groups.c **** 				mtCOVERAGE_TEST_MARKER();
 364:..\FreeRTOS/event_groups.c **** 			}
 365:..\FreeRTOS/event_groups.c **** 		}
 366:..\FreeRTOS/event_groups.c **** 		else if( xTicksToWait == ( TickType_t ) 0 )
 367:..\FreeRTOS/event_groups.c **** 		{
 368:..\FreeRTOS/event_groups.c **** 			/* The wait condition has not been met, but no block time was
 369:..\FreeRTOS/event_groups.c **** 			specified, so just return the current value. */
 370:..\FreeRTOS/event_groups.c **** 			uxReturn = uxCurrentEventBits;
 371:..\FreeRTOS/event_groups.c **** 		}
 372:..\FreeRTOS/event_groups.c **** 		else
 373:..\FreeRTOS/event_groups.c **** 		{
ARM GAS  C:\Users\Xwx47\AppData\Local\Temp\ccHl3y9k.s 			page 8


 374:..\FreeRTOS/event_groups.c **** 			/* The task is going to block to wait for its required bits to be
 375:..\FreeRTOS/event_groups.c **** 			set.  uxControlBits are used to remember the specified behaviour of
 376:..\FreeRTOS/event_groups.c **** 			this call to xEventGroupWaitBits() - for use when the event bits
 377:..\FreeRTOS/event_groups.c **** 			unblock the task. */
 378:..\FreeRTOS/event_groups.c **** 			if( xClearOnExit != pdFALSE )
 379:..\FreeRTOS/event_groups.c **** 			{
 380:..\FreeRTOS/event_groups.c **** 				uxControlBits |= eventCLEAR_EVENTS_ON_EXIT_BIT;
 381:..\FreeRTOS/event_groups.c **** 			}
 382:..\FreeRTOS/event_groups.c **** 			else
 383:..\FreeRTOS/event_groups.c **** 			{
 384:..\FreeRTOS/event_groups.c **** 				mtCOVERAGE_TEST_MARKER();
 385:..\FreeRTOS/event_groups.c **** 			}
 386:..\FreeRTOS/event_groups.c **** 
 387:..\FreeRTOS/event_groups.c **** 			if( xWaitForAllBits != pdFALSE )
 388:..\FreeRTOS/event_groups.c **** 			{
 389:..\FreeRTOS/event_groups.c **** 				uxControlBits |= eventWAIT_FOR_ALL_BITS;
 390:..\FreeRTOS/event_groups.c **** 			}
 391:..\FreeRTOS/event_groups.c **** 			else
 392:..\FreeRTOS/event_groups.c **** 			{
 393:..\FreeRTOS/event_groups.c **** 				mtCOVERAGE_TEST_MARKER();
 394:..\FreeRTOS/event_groups.c **** 			}
 395:..\FreeRTOS/event_groups.c **** 
 396:..\FreeRTOS/event_groups.c **** 			/* Store the bits that the calling task is waiting for in the
 397:..\FreeRTOS/event_groups.c **** 			task's event list item so the kernel knows when a match is
 398:..\FreeRTOS/event_groups.c **** 			found.  Then enter the blocked state. */
 399:..\FreeRTOS/event_groups.c **** 			vTaskPlaceOnUnorderedEventList( &( pxEventBits->xTasksWaitingForBits ), ( uxBitsToWaitFor | uxCo
 400:..\FreeRTOS/event_groups.c **** 
 401:..\FreeRTOS/event_groups.c **** 			/* This is obsolete as it will get set after the task unblocks, but
 402:..\FreeRTOS/event_groups.c **** 			some compilers mistakenly generate a warning about the variable
 403:..\FreeRTOS/event_groups.c **** 			being returned without being set if it is not done. */
 404:..\FreeRTOS/event_groups.c **** 			uxReturn = 0;
 405:..\FreeRTOS/event_groups.c **** 
 406:..\FreeRTOS/event_groups.c **** 			traceEVENT_GROUP_WAIT_BITS_BLOCK( xEventGroup, uxBitsToWaitFor );
 407:..\FreeRTOS/event_groups.c **** 		}
 408:..\FreeRTOS/event_groups.c **** 	}
 409:..\FreeRTOS/event_groups.c **** 	xAlreadyYielded = xTaskResumeAll();
 410:..\FreeRTOS/event_groups.c **** 
 411:..\FreeRTOS/event_groups.c **** 	if( xTicksToWait != ( TickType_t ) 0 )
 412:..\FreeRTOS/event_groups.c **** 	{
 413:..\FreeRTOS/event_groups.c **** 		if( xAlreadyYielded == pdFALSE )
 414:..\FreeRTOS/event_groups.c **** 		{
 415:..\FreeRTOS/event_groups.c **** 			portYIELD_WITHIN_API();
 416:..\FreeRTOS/event_groups.c **** 		}
 417:..\FreeRTOS/event_groups.c **** 		else
 418:..\FreeRTOS/event_groups.c **** 		{
 419:..\FreeRTOS/event_groups.c **** 			mtCOVERAGE_TEST_MARKER();
 420:..\FreeRTOS/event_groups.c **** 		}
 421:..\FreeRTOS/event_groups.c **** 
 422:..\FreeRTOS/event_groups.c **** 		/* The task blocked to wait for its required bits to be set - at this
 423:..\FreeRTOS/event_groups.c **** 		point either the required bits were set or the block time expired.  If
 424:..\FreeRTOS/event_groups.c **** 		the required bits were set they will have been stored in the task's
 425:..\FreeRTOS/event_groups.c **** 		event list item, and they should now be retrieved then cleared. */
 426:..\FreeRTOS/event_groups.c **** 		uxReturn = uxTaskResetEventItemValue();
 427:..\FreeRTOS/event_groups.c **** 
 428:..\FreeRTOS/event_groups.c **** 		if( ( uxReturn & eventUNBLOCKED_DUE_TO_BIT_SET ) == ( EventBits_t ) 0 )
 429:..\FreeRTOS/event_groups.c **** 		{
 430:..\FreeRTOS/event_groups.c **** 			taskENTER_CRITICAL();
ARM GAS  C:\Users\Xwx47\AppData\Local\Temp\ccHl3y9k.s 			page 9


 431:..\FreeRTOS/event_groups.c **** 			{
 432:..\FreeRTOS/event_groups.c **** 				/* The task timed out, just return the current event bit value. */
 433:..\FreeRTOS/event_groups.c **** 				uxReturn = pxEventBits->uxEventBits;
 434:..\FreeRTOS/event_groups.c **** 
 435:..\FreeRTOS/event_groups.c **** 				/* It is possible that the event bits were updated between this
 436:..\FreeRTOS/event_groups.c **** 				task leaving the Blocked state and running again. */
 437:..\FreeRTOS/event_groups.c **** 				if( prvTestWaitCondition( uxReturn, uxBitsToWaitFor, xWaitForAllBits ) != pdFALSE )
 438:..\FreeRTOS/event_groups.c **** 				{
 439:..\FreeRTOS/event_groups.c **** 					if( xClearOnExit != pdFALSE )
 440:..\FreeRTOS/event_groups.c **** 					{
 441:..\FreeRTOS/event_groups.c **** 						pxEventBits->uxEventBits &= ~uxBitsToWaitFor;
 442:..\FreeRTOS/event_groups.c **** 					}
 443:..\FreeRTOS/event_groups.c **** 					else
 444:..\FreeRTOS/event_groups.c **** 					{
 445:..\FreeRTOS/event_groups.c **** 						mtCOVERAGE_TEST_MARKER();
 446:..\FreeRTOS/event_groups.c **** 					}
 447:..\FreeRTOS/event_groups.c **** 				}
 448:..\FreeRTOS/event_groups.c **** 				else
 449:..\FreeRTOS/event_groups.c **** 				{
 450:..\FreeRTOS/event_groups.c **** 					mtCOVERAGE_TEST_MARKER();
 451:..\FreeRTOS/event_groups.c **** 				}
 452:..\FreeRTOS/event_groups.c **** 			}
 453:..\FreeRTOS/event_groups.c **** 			taskEXIT_CRITICAL();
 454:..\FreeRTOS/event_groups.c **** 
 455:..\FreeRTOS/event_groups.c **** 			/* Prevent compiler warnings when trace macros are not used. */
 456:..\FreeRTOS/event_groups.c **** 			xTimeoutOccurred = pdFALSE;
 457:..\FreeRTOS/event_groups.c **** 		}
 458:..\FreeRTOS/event_groups.c **** 		else
 459:..\FreeRTOS/event_groups.c **** 		{
 460:..\FreeRTOS/event_groups.c **** 			/* The task unblocked because the bits were set. */
 461:..\FreeRTOS/event_groups.c **** 		}
 462:..\FreeRTOS/event_groups.c **** 
 463:..\FreeRTOS/event_groups.c **** 		/* The task blocked so control bits may have been set. */
 464:..\FreeRTOS/event_groups.c **** 		uxReturn &= ~eventEVENT_BITS_CONTROL_BYTES;
 465:..\FreeRTOS/event_groups.c **** 	}
 466:..\FreeRTOS/event_groups.c **** 	traceEVENT_GROUP_WAIT_BITS_END( xEventGroup, uxBitsToWaitFor, xTimeoutOccurred );
 467:..\FreeRTOS/event_groups.c **** 
 468:..\FreeRTOS/event_groups.c **** 	return uxReturn;
 469:..\FreeRTOS/event_groups.c **** }
 470:..\FreeRTOS/event_groups.c **** /*-----------------------------------------------------------*/
 471:..\FreeRTOS/event_groups.c **** 
 472:..\FreeRTOS/event_groups.c **** EventBits_t xEventGroupClearBits( EventGroupHandle_t xEventGroup, const EventBits_t uxBitsToClear )
 473:..\FreeRTOS/event_groups.c **** {
 474:..\FreeRTOS/event_groups.c **** EventGroup_t *pxEventBits = ( EventGroup_t * ) xEventGroup;
 475:..\FreeRTOS/event_groups.c **** EventBits_t uxReturn;
 476:..\FreeRTOS/event_groups.c **** 
 477:..\FreeRTOS/event_groups.c **** 	/* Check the user is not attempting to clear the bits used by the kernel
 478:..\FreeRTOS/event_groups.c **** 	itself. */
 479:..\FreeRTOS/event_groups.c **** 	configASSERT( xEventGroup );
 480:..\FreeRTOS/event_groups.c **** 	configASSERT( ( uxBitsToClear & eventEVENT_BITS_CONTROL_BYTES ) == 0 );
 481:..\FreeRTOS/event_groups.c **** 
 482:..\FreeRTOS/event_groups.c **** 	taskENTER_CRITICAL();
 483:..\FreeRTOS/event_groups.c **** 	{
 484:..\FreeRTOS/event_groups.c **** 		traceEVENT_GROUP_CLEAR_BITS( xEventGroup, uxBitsToClear );
 485:..\FreeRTOS/event_groups.c **** 
 486:..\FreeRTOS/event_groups.c **** 		/* The value returned is the event group value prior to the bits being
 487:..\FreeRTOS/event_groups.c **** 		cleared. */
ARM GAS  C:\Users\Xwx47\AppData\Local\Temp\ccHl3y9k.s 			page 10


 488:..\FreeRTOS/event_groups.c **** 		uxReturn = pxEventBits->uxEventBits;
 489:..\FreeRTOS/event_groups.c **** 
 490:..\FreeRTOS/event_groups.c **** 		/* Clear the bits. */
 491:..\FreeRTOS/event_groups.c **** 		pxEventBits->uxEventBits &= ~uxBitsToClear;
 492:..\FreeRTOS/event_groups.c **** 	}
 493:..\FreeRTOS/event_groups.c **** 	taskEXIT_CRITICAL();
 494:..\FreeRTOS/event_groups.c **** 
 495:..\FreeRTOS/event_groups.c **** 	return uxReturn;
 496:..\FreeRTOS/event_groups.c **** }
 497:..\FreeRTOS/event_groups.c **** /*-----------------------------------------------------------*/
 498:..\FreeRTOS/event_groups.c **** 
 499:..\FreeRTOS/event_groups.c **** #if ( ( configUSE_TRACE_FACILITY == 1 ) && ( INCLUDE_xTimerPendFunctionCall == 1 ) && ( configUSE_T
 500:..\FreeRTOS/event_groups.c **** 
 501:..\FreeRTOS/event_groups.c **** 	BaseType_t xEventGroupClearBitsFromISR( EventGroupHandle_t xEventGroup, const EventBits_t uxBitsTo
 502:..\FreeRTOS/event_groups.c **** 	{
 503:..\FreeRTOS/event_groups.c **** 		BaseType_t xReturn;
 504:..\FreeRTOS/event_groups.c **** 
 505:..\FreeRTOS/event_groups.c **** 		traceEVENT_GROUP_CLEAR_BITS_FROM_ISR( xEventGroup, uxBitsToClear );
 506:..\FreeRTOS/event_groups.c **** 		xReturn = xTimerPendFunctionCallFromISR( vEventGroupClearBitsCallback, ( void * ) xEventGroup, ( 
 507:..\FreeRTOS/event_groups.c **** 
 508:..\FreeRTOS/event_groups.c **** 		return xReturn;
 509:..\FreeRTOS/event_groups.c **** 	}
 510:..\FreeRTOS/event_groups.c **** 
 511:..\FreeRTOS/event_groups.c **** #endif
 512:..\FreeRTOS/event_groups.c **** /*-----------------------------------------------------------*/
 513:..\FreeRTOS/event_groups.c **** 
 514:..\FreeRTOS/event_groups.c **** EventBits_t xEventGroupGetBitsFromISR( EventGroupHandle_t xEventGroup )
 515:..\FreeRTOS/event_groups.c **** {
 516:..\FreeRTOS/event_groups.c **** UBaseType_t uxSavedInterruptStatus;
 517:..\FreeRTOS/event_groups.c **** EventGroup_t *pxEventBits = ( EventGroup_t * ) xEventGroup;
 518:..\FreeRTOS/event_groups.c **** EventBits_t uxReturn;
 519:..\FreeRTOS/event_groups.c **** 
 520:..\FreeRTOS/event_groups.c **** 	uxSavedInterruptStatus = portSET_INTERRUPT_MASK_FROM_ISR();
 521:..\FreeRTOS/event_groups.c **** 	{
 522:..\FreeRTOS/event_groups.c **** 		uxReturn = pxEventBits->uxEventBits;
 523:..\FreeRTOS/event_groups.c **** 	}
 524:..\FreeRTOS/event_groups.c **** 	portCLEAR_INTERRUPT_MASK_FROM_ISR( uxSavedInterruptStatus );
 525:..\FreeRTOS/event_groups.c **** 
 526:..\FreeRTOS/event_groups.c **** 	return uxReturn;
 527:..\FreeRTOS/event_groups.c **** }
 528:..\FreeRTOS/event_groups.c **** /*-----------------------------------------------------------*/
 529:..\FreeRTOS/event_groups.c **** 
 530:..\FreeRTOS/event_groups.c **** EventBits_t xEventGroupSetBits( EventGroupHandle_t xEventGroup, const EventBits_t uxBitsToSet )
 531:..\FreeRTOS/event_groups.c **** {
 532:..\FreeRTOS/event_groups.c **** ListItem_t *pxListItem, *pxNext;
 533:..\FreeRTOS/event_groups.c **** ListItem_t const *pxListEnd;
 534:..\FreeRTOS/event_groups.c **** List_t *pxList;
 535:..\FreeRTOS/event_groups.c **** EventBits_t uxBitsToClear = 0, uxBitsWaitedFor, uxControlBits;
 536:..\FreeRTOS/event_groups.c **** EventGroup_t *pxEventBits = ( EventGroup_t * ) xEventGroup;
 537:..\FreeRTOS/event_groups.c **** BaseType_t xMatchFound = pdFALSE;
 538:..\FreeRTOS/event_groups.c **** 
 539:..\FreeRTOS/event_groups.c **** 	/* Check the user is not attempting to set the bits used by the kernel
 540:..\FreeRTOS/event_groups.c **** 	itself. */
 541:..\FreeRTOS/event_groups.c **** 	configASSERT( xEventGroup );
 542:..\FreeRTOS/event_groups.c **** 	configASSERT( ( uxBitsToSet & eventEVENT_BITS_CONTROL_BYTES ) == 0 );
 543:..\FreeRTOS/event_groups.c **** 
 544:..\FreeRTOS/event_groups.c **** 	pxList = &( pxEventBits->xTasksWaitingForBits );
ARM GAS  C:\Users\Xwx47\AppData\Local\Temp\ccHl3y9k.s 			page 11


 545:..\FreeRTOS/event_groups.c **** 	pxListEnd = listGET_END_MARKER( pxList ); /*lint !e826 !e740 The mini list structure is used as th
 546:..\FreeRTOS/event_groups.c **** 	vTaskSuspendAll();
 547:..\FreeRTOS/event_groups.c **** 	{
 548:..\FreeRTOS/event_groups.c **** 		traceEVENT_GROUP_SET_BITS( xEventGroup, uxBitsToSet );
 549:..\FreeRTOS/event_groups.c **** 
 550:..\FreeRTOS/event_groups.c **** 		pxListItem = listGET_HEAD_ENTRY( pxList );
 551:..\FreeRTOS/event_groups.c **** 
 552:..\FreeRTOS/event_groups.c **** 		/* Set the bits. */
 553:..\FreeRTOS/event_groups.c **** 		pxEventBits->uxEventBits |= uxBitsToSet;
 554:..\FreeRTOS/event_groups.c **** 
 555:..\FreeRTOS/event_groups.c **** 		/* See if the new bit value should unblock any tasks. */
 556:..\FreeRTOS/event_groups.c **** 		while( pxListItem != pxListEnd )
 557:..\FreeRTOS/event_groups.c **** 		{
 558:..\FreeRTOS/event_groups.c **** 			pxNext = listGET_NEXT( pxListItem );
 559:..\FreeRTOS/event_groups.c **** 			uxBitsWaitedFor = listGET_LIST_ITEM_VALUE( pxListItem );
 560:..\FreeRTOS/event_groups.c **** 			xMatchFound = pdFALSE;
 561:..\FreeRTOS/event_groups.c **** 
 562:..\FreeRTOS/event_groups.c **** 			/* Split the bits waited for from the control bits. */
 563:..\FreeRTOS/event_groups.c **** 			uxControlBits = uxBitsWaitedFor & eventEVENT_BITS_CONTROL_BYTES;
 564:..\FreeRTOS/event_groups.c **** 			uxBitsWaitedFor &= ~eventEVENT_BITS_CONTROL_BYTES;
 565:..\FreeRTOS/event_groups.c **** 
 566:..\FreeRTOS/event_groups.c **** 			if( ( uxControlBits & eventWAIT_FOR_ALL_BITS ) == ( EventBits_t ) 0 )
 567:..\FreeRTOS/event_groups.c **** 			{
 568:..\FreeRTOS/event_groups.c **** 				/* Just looking for single bit being set. */
 569:..\FreeRTOS/event_groups.c **** 				if( ( uxBitsWaitedFor & pxEventBits->uxEventBits ) != ( EventBits_t ) 0 )
 570:..\FreeRTOS/event_groups.c **** 				{
 571:..\FreeRTOS/event_groups.c **** 					xMatchFound = pdTRUE;
 572:..\FreeRTOS/event_groups.c **** 				}
 573:..\FreeRTOS/event_groups.c **** 				else
 574:..\FreeRTOS/event_groups.c **** 				{
 575:..\FreeRTOS/event_groups.c **** 					mtCOVERAGE_TEST_MARKER();
 576:..\FreeRTOS/event_groups.c **** 				}
 577:..\FreeRTOS/event_groups.c **** 			}
 578:..\FreeRTOS/event_groups.c **** 			else if( ( uxBitsWaitedFor & pxEventBits->uxEventBits ) == uxBitsWaitedFor )
 579:..\FreeRTOS/event_groups.c **** 			{
 580:..\FreeRTOS/event_groups.c **** 				/* All bits are set. */
 581:..\FreeRTOS/event_groups.c **** 				xMatchFound = pdTRUE;
 582:..\FreeRTOS/event_groups.c **** 			}
 583:..\FreeRTOS/event_groups.c **** 			else
 584:..\FreeRTOS/event_groups.c **** 			{
 585:..\FreeRTOS/event_groups.c **** 				/* Need all bits to be set, but not all the bits were set. */
 586:..\FreeRTOS/event_groups.c **** 			}
 587:..\FreeRTOS/event_groups.c **** 
 588:..\FreeRTOS/event_groups.c **** 			if( xMatchFound != pdFALSE )
 589:..\FreeRTOS/event_groups.c **** 			{
 590:..\FreeRTOS/event_groups.c **** 				/* The bits match.  Should the bits be cleared on exit? */
 591:..\FreeRTOS/event_groups.c **** 				if( ( uxControlBits & eventCLEAR_EVENTS_ON_EXIT_BIT ) != ( EventBits_t ) 0 )
 592:..\FreeRTOS/event_groups.c **** 				{
 593:..\FreeRTOS/event_groups.c **** 					uxBitsToClear |= uxBitsWaitedFor;
 594:..\FreeRTOS/event_groups.c **** 				}
 595:..\FreeRTOS/event_groups.c **** 				else
 596:..\FreeRTOS/event_groups.c **** 				{
 597:..\FreeRTOS/event_groups.c **** 					mtCOVERAGE_TEST_MARKER();
 598:..\FreeRTOS/event_groups.c **** 				}
 599:..\FreeRTOS/event_groups.c **** 
 600:..\FreeRTOS/event_groups.c **** 				/* Store the actual event flag value in the task's event list
 601:..\FreeRTOS/event_groups.c **** 				item before removing the task from the event list.  The
ARM GAS  C:\Users\Xwx47\AppData\Local\Temp\ccHl3y9k.s 			page 12


 602:..\FreeRTOS/event_groups.c **** 				eventUNBLOCKED_DUE_TO_BIT_SET bit is set so the task knows
 603:..\FreeRTOS/event_groups.c **** 				that is was unblocked due to its required bits matching, rather
 604:..\FreeRTOS/event_groups.c **** 				than because it timed out. */
 605:..\FreeRTOS/event_groups.c **** 				( void ) xTaskRemoveFromUnorderedEventList( pxListItem, pxEventBits->uxEventBits | eventUNBLOCK
 606:..\FreeRTOS/event_groups.c **** 			}
 607:..\FreeRTOS/event_groups.c **** 
 608:..\FreeRTOS/event_groups.c **** 			/* Move onto the next list item.  Note pxListItem->pxNext is not
 609:..\FreeRTOS/event_groups.c **** 			used here as the list item may have been removed from the event list
 610:..\FreeRTOS/event_groups.c **** 			and inserted into the ready/pending reading list. */
 611:..\FreeRTOS/event_groups.c **** 			pxListItem = pxNext;
 612:..\FreeRTOS/event_groups.c **** 		}
 613:..\FreeRTOS/event_groups.c **** 
 614:..\FreeRTOS/event_groups.c **** 		/* Clear any bits that matched when the eventCLEAR_EVENTS_ON_EXIT_BIT
 615:..\FreeRTOS/event_groups.c **** 		bit was set in the control word. */
 616:..\FreeRTOS/event_groups.c **** 		pxEventBits->uxEventBits &= ~uxBitsToClear;
 617:..\FreeRTOS/event_groups.c **** 	}
 618:..\FreeRTOS/event_groups.c **** 	( void ) xTaskResumeAll();
 619:..\FreeRTOS/event_groups.c **** 
 620:..\FreeRTOS/event_groups.c **** 	return pxEventBits->uxEventBits;
 621:..\FreeRTOS/event_groups.c **** }
 622:..\FreeRTOS/event_groups.c **** /*-----------------------------------------------------------*/
 623:..\FreeRTOS/event_groups.c **** 
 624:..\FreeRTOS/event_groups.c **** void vEventGroupDelete( EventGroupHandle_t xEventGroup )
 625:..\FreeRTOS/event_groups.c **** {
 626:..\FreeRTOS/event_groups.c **** EventGroup_t *pxEventBits = ( EventGroup_t * ) xEventGroup;
 627:..\FreeRTOS/event_groups.c **** const List_t *pxTasksWaitingForBits = &( pxEventBits->xTasksWaitingForBits );
 628:..\FreeRTOS/event_groups.c **** 
 629:..\FreeRTOS/event_groups.c **** 	vTaskSuspendAll();
 630:..\FreeRTOS/event_groups.c **** 	{
 631:..\FreeRTOS/event_groups.c **** 		traceEVENT_GROUP_DELETE( xEventGroup );
 632:..\FreeRTOS/event_groups.c **** 
 633:..\FreeRTOS/event_groups.c **** 		while( listCURRENT_LIST_LENGTH( pxTasksWaitingForBits ) > ( UBaseType_t ) 0 )
 634:..\FreeRTOS/event_groups.c **** 		{
 635:..\FreeRTOS/event_groups.c **** 			/* Unblock the task, returning 0 as the event list is being deleted
 636:..\FreeRTOS/event_groups.c **** 			and	cannot therefore have any bits set. */
 637:..\FreeRTOS/event_groups.c **** 			configASSERT( pxTasksWaitingForBits->xListEnd.pxNext != ( ListItem_t * ) &( pxTasksWaitingForBit
 638:..\FreeRTOS/event_groups.c **** 			( void ) xTaskRemoveFromUnorderedEventList( pxTasksWaitingForBits->xListEnd.pxNext, eventUNBLOCK
 639:..\FreeRTOS/event_groups.c **** 		}
 640:..\FreeRTOS/event_groups.c **** 
 641:..\FreeRTOS/event_groups.c **** 		#if( ( configSUPPORT_DYNAMIC_ALLOCATION == 1 ) && ( configSUPPORT_STATIC_ALLOCATION == 0 ) )
 642:..\FreeRTOS/event_groups.c **** 		{
 643:..\FreeRTOS/event_groups.c **** 			/* The event group can only have been allocated dynamically - free
 644:..\FreeRTOS/event_groups.c **** 			it again. */
 645:..\FreeRTOS/event_groups.c **** 			vPortFree( pxEventBits );
 646:..\FreeRTOS/event_groups.c **** 		}
 647:..\FreeRTOS/event_groups.c **** 		#elif( ( configSUPPORT_DYNAMIC_ALLOCATION == 1 ) && ( configSUPPORT_STATIC_ALLOCATION == 1 ) )
 648:..\FreeRTOS/event_groups.c **** 		{
 649:..\FreeRTOS/event_groups.c **** 			/* The event group could have been allocated statically or
 650:..\FreeRTOS/event_groups.c **** 			dynamically, so check before attempting to free the memory. */
 651:..\FreeRTOS/event_groups.c **** 			if( pxEventBits->ucStaticallyAllocated == ( uint8_t ) pdFALSE )
 652:..\FreeRTOS/event_groups.c **** 			{
 653:..\FreeRTOS/event_groups.c **** 				vPortFree( pxEventBits );
 654:..\FreeRTOS/event_groups.c **** 			}
 655:..\FreeRTOS/event_groups.c **** 			else
 656:..\FreeRTOS/event_groups.c **** 			{
 657:..\FreeRTOS/event_groups.c **** 				mtCOVERAGE_TEST_MARKER();
 658:..\FreeRTOS/event_groups.c **** 			}
ARM GAS  C:\Users\Xwx47\AppData\Local\Temp\ccHl3y9k.s 			page 13


 659:..\FreeRTOS/event_groups.c **** 		}
 660:..\FreeRTOS/event_groups.c **** 		#endif /* configSUPPORT_DYNAMIC_ALLOCATION */
 661:..\FreeRTOS/event_groups.c **** 	}
 662:..\FreeRTOS/event_groups.c **** 	( void ) xTaskResumeAll();
 663:..\FreeRTOS/event_groups.c **** }
 664:..\FreeRTOS/event_groups.c **** /*-----------------------------------------------------------*/
 665:..\FreeRTOS/event_groups.c **** 
 666:..\FreeRTOS/event_groups.c **** /* For internal use only - execute a 'set bits' command that was pended from
 667:..\FreeRTOS/event_groups.c **** an interrupt. */
 668:..\FreeRTOS/event_groups.c **** void vEventGroupSetBitsCallback( void *pvEventGroup, const uint32_t ulBitsToSet )
 669:..\FreeRTOS/event_groups.c **** {
 670:..\FreeRTOS/event_groups.c **** 	( void ) xEventGroupSetBits( pvEventGroup, ( EventBits_t ) ulBitsToSet );
 671:..\FreeRTOS/event_groups.c **** }
 672:..\FreeRTOS/event_groups.c **** /*-----------------------------------------------------------*/
 673:..\FreeRTOS/event_groups.c **** 
 674:..\FreeRTOS/event_groups.c **** /* For internal use only - execute a 'clear bits' command that was pended from
 675:..\FreeRTOS/event_groups.c **** an interrupt. */
 676:..\FreeRTOS/event_groups.c **** void vEventGroupClearBitsCallback( void *pvEventGroup, const uint32_t ulBitsToClear )
 677:..\FreeRTOS/event_groups.c **** {
 678:..\FreeRTOS/event_groups.c **** 	( void ) xEventGroupClearBits( pvEventGroup, ( EventBits_t ) ulBitsToClear );
 679:..\FreeRTOS/event_groups.c **** }
 680:..\FreeRTOS/event_groups.c **** /*-----------------------------------------------------------*/
 681:..\FreeRTOS/event_groups.c **** 
 682:..\FreeRTOS/event_groups.c **** static BaseType_t prvTestWaitCondition( const EventBits_t uxCurrentEventBits, const EventBits_t uxB
 683:..\FreeRTOS/event_groups.c **** {
  27              		.loc 1 683 0
  28              		.cfi_startproc
  29              		@ args = 0, pretend = 0, frame = 0
  30              		@ frame_needed = 0, uses_anonymous_args = 0
  31              		@ link register save eliminated.
  32              	.LVL0:
 684:..\FreeRTOS/event_groups.c **** BaseType_t xWaitConditionMet = pdFALSE;
 685:..\FreeRTOS/event_groups.c **** 
 686:..\FreeRTOS/event_groups.c **** 	if( xWaitForAllBits == pdFALSE )
  33              		.loc 1 686 0
  34 0000 002A     		cmp	r2, #0
  35 0002 03D1     		bne	.L2
 687:..\FreeRTOS/event_groups.c **** 	{
 688:..\FreeRTOS/event_groups.c **** 		/* Task only has to wait for one bit within uxBitsToWaitFor to be
 689:..\FreeRTOS/event_groups.c **** 		set.  Is one already set? */
 690:..\FreeRTOS/event_groups.c **** 		if( ( uxCurrentEventBits & uxBitsToWaitFor ) != ( EventBits_t ) 0 )
  36              		.loc 1 690 0
  37 0004 0142     		tst	r1, r0
  38 0006 06D1     		bne	.L4
 684:..\FreeRTOS/event_groups.c **** BaseType_t xWaitConditionMet = pdFALSE;
  39              		.loc 1 684 0
  40 0008 0020     		movs	r0, #0
  41              	.LVL1:
  42 000a 07E0     		b	.L3
  43              	.LVL2:
  44              	.L2:
 691:..\FreeRTOS/event_groups.c **** 		{
 692:..\FreeRTOS/event_groups.c **** 			xWaitConditionMet = pdTRUE;
 693:..\FreeRTOS/event_groups.c **** 		}
 694:..\FreeRTOS/event_groups.c **** 		else
 695:..\FreeRTOS/event_groups.c **** 		{
 696:..\FreeRTOS/event_groups.c **** 			mtCOVERAGE_TEST_MARKER();
ARM GAS  C:\Users\Xwx47\AppData\Local\Temp\ccHl3y9k.s 			page 14


 697:..\FreeRTOS/event_groups.c **** 		}
 698:..\FreeRTOS/event_groups.c **** 	}
 699:..\FreeRTOS/event_groups.c **** 	else
 700:..\FreeRTOS/event_groups.c **** 	{
 701:..\FreeRTOS/event_groups.c **** 		/* Task has to wait for all the bits in uxBitsToWaitFor to be set.
 702:..\FreeRTOS/event_groups.c **** 		Are they set already? */
 703:..\FreeRTOS/event_groups.c **** 		if( ( uxCurrentEventBits & uxBitsToWaitFor ) == uxBitsToWaitFor )
  45              		.loc 1 703 0
  46 000c 0840     		ands	r0, r1
  47              	.LVL3:
  48 000e 8142     		cmp	r1, r0
  49 0010 03D0     		beq	.L5
 684:..\FreeRTOS/event_groups.c **** 
  50              		.loc 1 684 0
  51 0012 0020     		movs	r0, #0
  52 0014 02E0     		b	.L3
  53              	.LVL4:
  54              	.L4:
 692:..\FreeRTOS/event_groups.c **** 		}
  55              		.loc 1 692 0
  56 0016 0120     		movs	r0, #1
  57              	.LVL5:
  58 0018 00E0     		b	.L3
  59              	.L5:
 704:..\FreeRTOS/event_groups.c **** 		{
 705:..\FreeRTOS/event_groups.c **** 			xWaitConditionMet = pdTRUE;
  60              		.loc 1 705 0
  61 001a 0120     		movs	r0, #1
  62              	.L3:
  63              	.LVL6:
 706:..\FreeRTOS/event_groups.c **** 		}
 707:..\FreeRTOS/event_groups.c **** 		else
 708:..\FreeRTOS/event_groups.c **** 		{
 709:..\FreeRTOS/event_groups.c **** 			mtCOVERAGE_TEST_MARKER();
 710:..\FreeRTOS/event_groups.c **** 		}
 711:..\FreeRTOS/event_groups.c **** 	}
 712:..\FreeRTOS/event_groups.c **** 
 713:..\FreeRTOS/event_groups.c **** 	return xWaitConditionMet;
 714:..\FreeRTOS/event_groups.c **** }
  64              		.loc 1 714 0
  65              		@ sp needed
  66 001c 7047     		bx	lr
  67              		.cfi_endproc
  68              	.LFE41:
  69              		.size	prvTestWaitCondition, .-prvTestWaitCondition
  70 001e C046     		.section	.text.xEventGroupCreate,"ax",%progbits
  71              		.align	2
  72              		.global	xEventGroupCreate
  73              		.code	16
  74              		.thumb_func
  75              		.type	xEventGroupCreate, %function
  76              	xEventGroupCreate:
  77              	.LFB32:
 175:..\FreeRTOS/event_groups.c **** 	EventGroup_t *pxEventBits;
  78              		.loc 1 175 0
  79              		.cfi_startproc
  80              		@ args = 0, pretend = 0, frame = 0
ARM GAS  C:\Users\Xwx47\AppData\Local\Temp\ccHl3y9k.s 			page 15


  81              		@ frame_needed = 0, uses_anonymous_args = 0
  82 0000 10B5     		push	{r4, lr}
  83              		.cfi_def_cfa_offset 8
  84              		.cfi_offset 4, -8
  85              		.cfi_offset 14, -4
 179:..\FreeRTOS/event_groups.c **** 
  86              		.loc 1 179 0
  87 0002 1820     		movs	r0, #24
  88 0004 FFF7FEFF 		bl	pvPortMalloc
  89              	.LVL7:
  90 0008 041E     		subs	r4, r0, #0
  91              	.LVL8:
 181:..\FreeRTOS/event_groups.c **** 		{
  92              		.loc 1 181 0
  93 000a 03D0     		beq	.L7
 183:..\FreeRTOS/event_groups.c **** 			vListInitialise( &( pxEventBits->xTasksWaitingForBits ) );
  94              		.loc 1 183 0
  95 000c 0023     		movs	r3, #0
  96 000e 08C0     		stmia	r0!, {r3}
  97              	.LVL9:
 184:..\FreeRTOS/event_groups.c **** 
  98              		.loc 1 184 0
  99 0010 FFF7FEFF 		bl	vListInitialise
 100              	.LVL10:
 101              	.L7:
 203:..\FreeRTOS/event_groups.c **** 
 102              		.loc 1 203 0
 103 0014 2000     		movs	r0, r4
 104              		@ sp needed
 105              	.LVL11:
 106 0016 10BD     		pop	{r4, pc}
 107              		.cfi_endproc
 108              	.LFE32:
 109              		.size	xEventGroupCreate, .-xEventGroupCreate
 110              		.section	.text.xEventGroupWaitBits,"ax",%progbits
 111              		.align	2
 112              		.global	xEventGroupWaitBits
 113              		.code	16
 114              		.thumb_func
 115              		.type	xEventGroupWaitBits, %function
 116              	xEventGroupWaitBits:
 117              	.LFB34:
 325:..\FreeRTOS/event_groups.c **** EventGroup_t *pxEventBits = ( EventGroup_t * ) xEventGroup;
 118              		.loc 1 325 0
 119              		.cfi_startproc
 120              		@ args = 4, pretend = 0, frame = 8
 121              		@ frame_needed = 0, uses_anonymous_args = 0
 122              	.LVL12:
 123 0000 F0B5     		push	{r4, r5, r6, r7, lr}
 124              		.cfi_def_cfa_offset 20
 125              		.cfi_offset 4, -20
 126              		.cfi_offset 5, -16
 127              		.cfi_offset 6, -12
 128              		.cfi_offset 7, -8
 129              		.cfi_offset 14, -4
 130 0002 83B0     		sub	sp, sp, #12
 131              		.cfi_def_cfa_offset 32
ARM GAS  C:\Users\Xwx47\AppData\Local\Temp\ccHl3y9k.s 			page 16


 132 0004 0700     		movs	r7, r0
 133 0006 0D00     		movs	r5, r1
 134 0008 1600     		movs	r6, r2
 135 000a 0193     		str	r3, [sp, #4]
 136              	.LVL13:
 342:..\FreeRTOS/event_groups.c **** 	{
 137              		.loc 1 342 0
 138 000c FFF7FEFF 		bl	vTaskSuspendAll
 139              	.LVL14:
 140              	.LBB2:
 344:..\FreeRTOS/event_groups.c **** 
 141              		.loc 1 344 0
 142 0010 3C68     		ldr	r4, [r7]
 143              	.LVL15:
 347:..\FreeRTOS/event_groups.c **** 
 144              		.loc 1 347 0
 145 0012 019A     		ldr	r2, [sp, #4]
 146 0014 2900     		movs	r1, r5
 147 0016 2000     		movs	r0, r4
 148 0018 FFF7FEFF 		bl	prvTestWaitCondition
 149              	.LVL16:
 349:..\FreeRTOS/event_groups.c **** 		{
 150              		.loc 1 349 0
 151 001c 0028     		cmp	r0, #0
 152 001e 07D0     		beq	.L9
 153              	.LVL17:
 357:..\FreeRTOS/event_groups.c **** 			{
 154              		.loc 1 357 0
 155 0020 002E     		cmp	r6, #0
 156 0022 1BD0     		beq	.L17
 359:..\FreeRTOS/event_groups.c **** 			}
 157              		.loc 1 359 0
 158 0024 2300     		movs	r3, r4
 159 0026 AB43     		bics	r3, r5
 160 0028 3B60     		str	r3, [r7]
 354:..\FreeRTOS/event_groups.c **** 
 161              		.loc 1 354 0
 162 002a 0023     		movs	r3, #0
 163 002c 0893     		str	r3, [sp, #32]
 164 002e 17E0     		b	.L10
 165              	.LVL18:
 166              	.L9:
 366:..\FreeRTOS/event_groups.c **** 		{
 167              		.loc 1 366 0
 168 0030 089B     		ldr	r3, [sp, #32]
 169 0032 002B     		cmp	r3, #0
 170 0034 14D0     		beq	.L10
 378:..\FreeRTOS/event_groups.c **** 			{
 171              		.loc 1 378 0
 172 0036 002E     		cmp	r6, #0
 173 0038 01D1     		bne	.L18
 174              	.LBE2:
 327:..\FreeRTOS/event_groups.c **** BaseType_t xWaitConditionMet, xAlreadyYielded;
 175              		.loc 1 327 0
 176 003a 0021     		movs	r1, #0
 177 003c 01E0     		b	.L11
 178              	.L18:
ARM GAS  C:\Users\Xwx47\AppData\Local\Temp\ccHl3y9k.s 			page 17


 179              	.LBB3:
 380:..\FreeRTOS/event_groups.c **** 			}
 180              		.loc 1 380 0
 181 003e 8021     		movs	r1, #128
 182 0040 4904     		lsls	r1, r1, #17
 183              	.L11:
 184              	.LVL19:
 387:..\FreeRTOS/event_groups.c **** 			{
 185              		.loc 1 387 0
 186 0042 019B     		ldr	r3, [sp, #4]
 187 0044 002B     		cmp	r3, #0
 188 0046 02D0     		beq	.L12
 389:..\FreeRTOS/event_groups.c **** 			}
 189              		.loc 1 389 0
 190 0048 8023     		movs	r3, #128
 191 004a DB04     		lsls	r3, r3, #19
 192 004c 1943     		orrs	r1, r3
 193              	.LVL20:
 194              	.L12:
 399:..\FreeRTOS/event_groups.c **** 
 195              		.loc 1 399 0
 196 004e 2943     		orrs	r1, r5
 197              	.LVL21:
 198 0050 381D     		adds	r0, r7, #4
 199              	.LVL22:
 200 0052 089A     		ldr	r2, [sp, #32]
 201 0054 FFF7FEFF 		bl	vTaskPlaceOnUnorderedEventList
 202              	.LVL23:
 404:..\FreeRTOS/event_groups.c **** 
 203              		.loc 1 404 0
 204 0058 0024     		movs	r4, #0
 205              	.LVL24:
 206 005a 01E0     		b	.L10
 207              	.LVL25:
 208              	.L17:
 354:..\FreeRTOS/event_groups.c **** 
 209              		.loc 1 354 0
 210 005c 0023     		movs	r3, #0
 211 005e 0893     		str	r3, [sp, #32]
 212              	.LVL26:
 213              	.L10:
 214              	.LBE3:
 409:..\FreeRTOS/event_groups.c **** 
 215              		.loc 1 409 0
 216 0060 FFF7FEFF 		bl	xTaskResumeAll
 217              	.LVL27:
 411:..\FreeRTOS/event_groups.c **** 	{
 218              		.loc 1 411 0
 219 0064 089B     		ldr	r3, [sp, #32]
 220 0066 002B     		cmp	r3, #0
 221 0068 1BD0     		beq	.L13
 413:..\FreeRTOS/event_groups.c **** 		{
 222              		.loc 1 413 0
 223 006a 0028     		cmp	r0, #0
 224 006c 01D1     		bne	.L14
 415:..\FreeRTOS/event_groups.c **** 		}
 225              		.loc 1 415 0
ARM GAS  C:\Users\Xwx47\AppData\Local\Temp\ccHl3y9k.s 			page 18


 226 006e FFF7FEFF 		bl	vPortYield
 227              	.LVL28:
 228              	.L14:
 426:..\FreeRTOS/event_groups.c **** 
 229              		.loc 1 426 0
 230 0072 FFF7FEFF 		bl	uxTaskResetEventItemValue
 231              	.LVL29:
 232 0076 0400     		movs	r4, r0
 233              	.LVL30:
 428:..\FreeRTOS/event_groups.c **** 		{
 234              		.loc 1 428 0
 235 0078 8301     		lsls	r3, r0, #6
 236 007a 10D4     		bmi	.L15
 430:..\FreeRTOS/event_groups.c **** 			{
 237              		.loc 1 430 0
 238 007c FFF7FEFF 		bl	vPortEnterCritical
 239              	.LVL31:
 433:..\FreeRTOS/event_groups.c **** 
 240              		.loc 1 433 0
 241 0080 3C68     		ldr	r4, [r7]
 242              	.LVL32:
 437:..\FreeRTOS/event_groups.c **** 				{
 243              		.loc 1 437 0
 244 0082 019A     		ldr	r2, [sp, #4]
 245 0084 2900     		movs	r1, r5
 246 0086 2000     		movs	r0, r4
 247 0088 FFF7FEFF 		bl	prvTestWaitCondition
 248              	.LVL33:
 249 008c 0028     		cmp	r0, #0
 250 008e 04D0     		beq	.L16
 439:..\FreeRTOS/event_groups.c **** 					{
 251              		.loc 1 439 0
 252 0090 002E     		cmp	r6, #0
 253 0092 02D0     		beq	.L16
 441:..\FreeRTOS/event_groups.c **** 					}
 254              		.loc 1 441 0
 255 0094 2300     		movs	r3, r4
 256 0096 AB43     		bics	r3, r5
 257 0098 3B60     		str	r3, [r7]
 258              	.L16:
 453:..\FreeRTOS/event_groups.c **** 
 259              		.loc 1 453 0
 260 009a FFF7FEFF 		bl	vPortExitCritical
 261              	.LVL34:
 262              	.L15:
 464:..\FreeRTOS/event_groups.c **** 	}
 263              		.loc 1 464 0
 264 009e 2402     		lsls	r4, r4, #8
 265              	.LVL35:
 266 00a0 240A     		lsrs	r4, r4, #8
 267              	.LVL36:
 268              	.L13:
 469:..\FreeRTOS/event_groups.c **** /*-----------------------------------------------------------*/
 269              		.loc 1 469 0
 270 00a2 2000     		movs	r0, r4
 271 00a4 03B0     		add	sp, sp, #12
 272              		@ sp needed
ARM GAS  C:\Users\Xwx47\AppData\Local\Temp\ccHl3y9k.s 			page 19


 273              	.LVL37:
 274              	.LVL38:
 275              	.LVL39:
 276              	.LVL40:
 277 00a6 F0BD     		pop	{r4, r5, r6, r7, pc}
 278              		.cfi_endproc
 279              	.LFE34:
 280              		.size	xEventGroupWaitBits, .-xEventGroupWaitBits
 281              		.section	.text.xEventGroupClearBits,"ax",%progbits
 282              		.align	2
 283              		.global	xEventGroupClearBits
 284              		.code	16
 285              		.thumb_func
 286              		.type	xEventGroupClearBits, %function
 287              	xEventGroupClearBits:
 288              	.LFB35:
 473:..\FreeRTOS/event_groups.c **** EventGroup_t *pxEventBits = ( EventGroup_t * ) xEventGroup;
 289              		.loc 1 473 0
 290              		.cfi_startproc
 291              		@ args = 0, pretend = 0, frame = 0
 292              		@ frame_needed = 0, uses_anonymous_args = 0
 293              	.LVL41:
 294 0000 70B5     		push	{r4, r5, r6, lr}
 295              		.cfi_def_cfa_offset 16
 296              		.cfi_offset 4, -16
 297              		.cfi_offset 5, -12
 298              		.cfi_offset 6, -8
 299              		.cfi_offset 14, -4
 300 0002 0500     		movs	r5, r0
 301 0004 0E00     		movs	r6, r1
 302              	.LVL42:
 482:..\FreeRTOS/event_groups.c **** 	{
 303              		.loc 1 482 0
 304 0006 FFF7FEFF 		bl	vPortEnterCritical
 305              	.LVL43:
 488:..\FreeRTOS/event_groups.c **** 
 306              		.loc 1 488 0
 307 000a 2C68     		ldr	r4, [r5]
 308              	.LVL44:
 491:..\FreeRTOS/event_groups.c **** 	}
 309              		.loc 1 491 0
 310 000c 2300     		movs	r3, r4
 311 000e B343     		bics	r3, r6
 312 0010 2B60     		str	r3, [r5]
 493:..\FreeRTOS/event_groups.c **** 
 313              		.loc 1 493 0
 314 0012 FFF7FEFF 		bl	vPortExitCritical
 315              	.LVL45:
 496:..\FreeRTOS/event_groups.c **** /*-----------------------------------------------------------*/
 316              		.loc 1 496 0
 317 0016 2000     		movs	r0, r4
 318              		@ sp needed
 319              	.LVL46:
 320              	.LVL47:
 321              	.LVL48:
 322 0018 70BD     		pop	{r4, r5, r6, pc}
 323              		.cfi_endproc
ARM GAS  C:\Users\Xwx47\AppData\Local\Temp\ccHl3y9k.s 			page 20


 324              	.LFE35:
 325              		.size	xEventGroupClearBits, .-xEventGroupClearBits
 326 001a C046     		.section	.text.xEventGroupGetBitsFromISR,"ax",%progbits
 327              		.align	2
 328              		.global	xEventGroupGetBitsFromISR
 329              		.code	16
 330              		.thumb_func
 331              		.type	xEventGroupGetBitsFromISR, %function
 332              	xEventGroupGetBitsFromISR:
 333              	.LFB36:
 515:..\FreeRTOS/event_groups.c **** UBaseType_t uxSavedInterruptStatus;
 334              		.loc 1 515 0
 335              		.cfi_startproc
 336              		@ args = 0, pretend = 0, frame = 0
 337              		@ frame_needed = 0, uses_anonymous_args = 0
 338              	.LVL49:
 339 0000 10B5     		push	{r4, lr}
 340              		.cfi_def_cfa_offset 8
 341              		.cfi_offset 4, -8
 342              		.cfi_offset 14, -4
 343 0002 0400     		movs	r4, r0
 344              	.LVL50:
 520:..\FreeRTOS/event_groups.c **** 	{
 345              		.loc 1 520 0
 346 0004 FFF7FEFF 		bl	ulSetInterruptMaskFromISR
 347              	.LVL51:
 522:..\FreeRTOS/event_groups.c **** 	}
 348              		.loc 1 522 0
 349 0008 2468     		ldr	r4, [r4]
 350              	.LVL52:
 524:..\FreeRTOS/event_groups.c **** 
 351              		.loc 1 524 0
 352 000a FFF7FEFF 		bl	vClearInterruptMaskFromISR
 353              	.LVL53:
 527:..\FreeRTOS/event_groups.c **** /*-----------------------------------------------------------*/
 354              		.loc 1 527 0
 355 000e 2000     		movs	r0, r4
 356              		@ sp needed
 357              	.LVL54:
 358 0010 10BD     		pop	{r4, pc}
 359              		.cfi_endproc
 360              	.LFE36:
 361              		.size	xEventGroupGetBitsFromISR, .-xEventGroupGetBitsFromISR
 362 0012 C046     		.section	.text.xEventGroupSetBits,"ax",%progbits
 363              		.align	2
 364              		.global	xEventGroupSetBits
 365              		.code	16
 366              		.thumb_func
 367              		.type	xEventGroupSetBits, %function
 368              	xEventGroupSetBits:
 369              	.LFB37:
 531:..\FreeRTOS/event_groups.c **** ListItem_t *pxListItem, *pxNext;
 370              		.loc 1 531 0
 371              		.cfi_startproc
 372              		@ args = 0, pretend = 0, frame = 0
 373              		@ frame_needed = 0, uses_anonymous_args = 0
 374              	.LVL55:
ARM GAS  C:\Users\Xwx47\AppData\Local\Temp\ccHl3y9k.s 			page 21


 375 0000 F8B5     		push	{r3, r4, r5, r6, r7, lr}
 376              		.cfi_def_cfa_offset 24
 377              		.cfi_offset 3, -24
 378              		.cfi_offset 4, -20
 379              		.cfi_offset 5, -16
 380              		.cfi_offset 6, -12
 381              		.cfi_offset 7, -8
 382              		.cfi_offset 14, -4
 383 0002 0400     		movs	r4, r0
 384 0004 0D00     		movs	r5, r1
 385              	.LVL56:
 545:..\FreeRTOS/event_groups.c **** 	vTaskSuspendAll();
 386              		.loc 1 545 0
 387 0006 0600     		movs	r6, r0
 388 0008 0C36     		adds	r6, r6, #12
 389              	.LVL57:
 546:..\FreeRTOS/event_groups.c **** 	{
 390              		.loc 1 546 0
 391 000a FFF7FEFF 		bl	vTaskSuspendAll
 392              	.LVL58:
 550:..\FreeRTOS/event_groups.c **** 
 393              		.loc 1 550 0
 394 000e 2069     		ldr	r0, [r4, #16]
 395              	.LVL59:
 553:..\FreeRTOS/event_groups.c **** 
 396              		.loc 1 553 0
 397 0010 2368     		ldr	r3, [r4]
 398 0012 1D43     		orrs	r5, r3
 399              	.LVL60:
 400 0014 2560     		str	r5, [r4]
 535:..\FreeRTOS/event_groups.c **** EventGroup_t *pxEventBits = ( EventGroup_t * ) xEventGroup;
 401              		.loc 1 535 0
 402 0016 0027     		movs	r7, #0
 556:..\FreeRTOS/event_groups.c **** 		{
 403              		.loc 1 556 0
 404 0018 1FE0     		b	.L22
 405              	.LVL61:
 406              	.L27:
 558:..\FreeRTOS/event_groups.c **** 			uxBitsWaitedFor = listGET_LIST_ITEM_VALUE( pxListItem );
 407              		.loc 1 558 0
 408 001a 4568     		ldr	r5, [r0, #4]
 409              	.LVL62:
 559:..\FreeRTOS/event_groups.c **** 			xMatchFound = pdFALSE;
 410              		.loc 1 559 0
 411 001c 0268     		ldr	r2, [r0]
 412              	.LVL63:
 564:..\FreeRTOS/event_groups.c **** 
 413              		.loc 1 564 0
 414 001e 1302     		lsls	r3, r2, #8
 415 0020 1B0A     		lsrs	r3, r3, #8
 416              	.LVL64:
 566:..\FreeRTOS/event_groups.c **** 			{
 417              		.loc 1 566 0
 418 0022 5101     		lsls	r1, r2, #5
 419 0024 04D4     		bmi	.L23
 569:..\FreeRTOS/event_groups.c **** 				{
 420              		.loc 1 569 0
ARM GAS  C:\Users\Xwx47\AppData\Local\Temp\ccHl3y9k.s 			page 22


 421 0026 2168     		ldr	r1, [r4]
 422 0028 1942     		tst	r1, r3
 423 002a 07D1     		bne	.L28
 560:..\FreeRTOS/event_groups.c **** 
 424              		.loc 1 560 0
 425 002c 0021     		movs	r1, #0
 426 002e 08E0     		b	.L24
 427              	.L23:
 578:..\FreeRTOS/event_groups.c **** 			{
 428              		.loc 1 578 0
 429 0030 2168     		ldr	r1, [r4]
 430 0032 1940     		ands	r1, r3
 431 0034 8B42     		cmp	r3, r1
 432 0036 03D0     		beq	.L29
 560:..\FreeRTOS/event_groups.c **** 
 433              		.loc 1 560 0
 434 0038 0021     		movs	r1, #0
 435 003a 02E0     		b	.L24
 436              	.L28:
 571:..\FreeRTOS/event_groups.c **** 				}
 437              		.loc 1 571 0
 438 003c 0121     		movs	r1, #1
 439 003e 00E0     		b	.L24
 440              	.L29:
 581:..\FreeRTOS/event_groups.c **** 			}
 441              		.loc 1 581 0
 442 0040 0121     		movs	r1, #1
 443              	.L24:
 444              	.LVL65:
 588:..\FreeRTOS/event_groups.c **** 			{
 445              		.loc 1 588 0
 446 0042 0029     		cmp	r1, #0
 447 0044 08D0     		beq	.L25
 591:..\FreeRTOS/event_groups.c **** 				{
 448              		.loc 1 591 0
 449 0046 D201     		lsls	r2, r2, #7
 450 0048 00D5     		bpl	.L26
 451              	.LVL66:
 593:..\FreeRTOS/event_groups.c **** 				}
 452              		.loc 1 593 0
 453 004a 1F43     		orrs	r7, r3
 454              	.LVL67:
 455              	.L26:
 605:..\FreeRTOS/event_groups.c **** 			}
 456              		.loc 1 605 0
 457 004c 8021     		movs	r1, #128
 458              	.LVL68:
 459 004e 8904     		lsls	r1, r1, #18
 460 0050 2368     		ldr	r3, [r4]
 461              	.LVL69:
 462 0052 1943     		orrs	r1, r3
 463 0054 FFF7FEFF 		bl	xTaskRemoveFromUnorderedEventList
 464              	.LVL70:
 465              	.L25:
 560:..\FreeRTOS/event_groups.c **** 
 466              		.loc 1 560 0
 467 0058 2800     		movs	r0, r5
ARM GAS  C:\Users\Xwx47\AppData\Local\Temp\ccHl3y9k.s 			page 23


 468              	.LVL71:
 469              	.L22:
 556:..\FreeRTOS/event_groups.c **** 		{
 470              		.loc 1 556 0
 471 005a B042     		cmp	r0, r6
 472 005c DDD1     		bne	.L27
 616:..\FreeRTOS/event_groups.c **** 	}
 473              		.loc 1 616 0
 474 005e 2368     		ldr	r3, [r4]
 475 0060 BB43     		bics	r3, r7
 476 0062 2360     		str	r3, [r4]
 618:..\FreeRTOS/event_groups.c **** 
 477              		.loc 1 618 0
 478 0064 FFF7FEFF 		bl	xTaskResumeAll
 479              	.LVL72:
 620:..\FreeRTOS/event_groups.c **** }
 480              		.loc 1 620 0
 481 0068 2068     		ldr	r0, [r4]
 621:..\FreeRTOS/event_groups.c **** /*-----------------------------------------------------------*/
 482              		.loc 1 621 0
 483              		@ sp needed
 484              	.LVL73:
 485              	.LVL74:
 486              	.LVL75:
 487 006a F8BD     		pop	{r3, r4, r5, r6, r7, pc}
 488              		.cfi_endproc
 489              	.LFE37:
 490              		.size	xEventGroupSetBits, .-xEventGroupSetBits
 491              		.section	.text.xEventGroupSync,"ax",%progbits
 492              		.align	2
 493              		.global	xEventGroupSync
 494              		.code	16
 495              		.thumb_func
 496              		.type	xEventGroupSync, %function
 497              	xEventGroupSync:
 498              	.LFB33:
 209:..\FreeRTOS/event_groups.c **** EventBits_t uxOriginalBitValue, uxReturn;
 499              		.loc 1 209 0
 500              		.cfi_startproc
 501              		@ args = 0, pretend = 0, frame = 8
 502              		@ frame_needed = 0, uses_anonymous_args = 0
 503              	.LVL76:
 504 0000 F0B5     		push	{r4, r5, r6, r7, lr}
 505              		.cfi_def_cfa_offset 20
 506              		.cfi_offset 4, -20
 507              		.cfi_offset 5, -16
 508              		.cfi_offset 6, -12
 509              		.cfi_offset 7, -8
 510              		.cfi_offset 14, -4
 511 0002 83B0     		sub	sp, sp, #12
 512              		.cfi_def_cfa_offset 32
 513 0004 0600     		movs	r6, r0
 514 0006 0191     		str	r1, [sp, #4]
 515 0008 1700     		movs	r7, r2
 516 000a 1D00     		movs	r5, r3
 517              	.LVL77:
 223:..\FreeRTOS/event_groups.c **** 	{
ARM GAS  C:\Users\Xwx47\AppData\Local\Temp\ccHl3y9k.s 			page 24


 518              		.loc 1 223 0
 519 000c FFF7FEFF 		bl	vTaskSuspendAll
 520              	.LVL78:
 225:..\FreeRTOS/event_groups.c **** 
 521              		.loc 1 225 0
 522 0010 3468     		ldr	r4, [r6]
 523              	.LVL79:
 227:..\FreeRTOS/event_groups.c **** 
 524              		.loc 1 227 0
 525 0012 0199     		ldr	r1, [sp, #4]
 526 0014 3000     		movs	r0, r6
 527 0016 FFF7FEFF 		bl	xEventGroupSetBits
 528              	.LVL80:
 229:..\FreeRTOS/event_groups.c **** 		{
 529              		.loc 1 229 0
 530 001a 019B     		ldr	r3, [sp, #4]
 531 001c 1C43     		orrs	r4, r3
 532              	.LVL81:
 533 001e 3B00     		movs	r3, r7
 534 0020 2340     		ands	r3, r4
 535 0022 9F42     		cmp	r7, r3
 536 0024 04D1     		bne	.L31
 537              	.LVL82:
 236:..\FreeRTOS/event_groups.c **** 
 538              		.loc 1 236 0
 539 0026 3368     		ldr	r3, [r6]
 540 0028 BB43     		bics	r3, r7
 541 002a 3360     		str	r3, [r6]
 542              	.LVL83:
 238:..\FreeRTOS/event_groups.c **** 		}
 543              		.loc 1 238 0
 544 002c 0025     		movs	r5, #0
 545 002e 0BE0     		b	.L32
 546              	.LVL84:
 547              	.L31:
 242:..\FreeRTOS/event_groups.c **** 			{
 548              		.loc 1 242 0
 549 0030 002D     		cmp	r5, #0
 550 0032 08D0     		beq	.L33
 249:..\FreeRTOS/event_groups.c **** 
 551              		.loc 1 249 0
 552 0034 A021     		movs	r1, #160
 553 0036 C904     		lsls	r1, r1, #19
 554 0038 3943     		orrs	r1, r7
 555 003a 301D     		adds	r0, r6, #4
 556 003c 2A00     		movs	r2, r5
 557 003e FFF7FEFF 		bl	vTaskPlaceOnUnorderedEventList
 558              	.LVL85:
 255:..\FreeRTOS/event_groups.c **** 			}
 559              		.loc 1 255 0
 560 0042 0024     		movs	r4, #0
 561 0044 00E0     		b	.L32
 562              	.LVL86:
 563              	.L33:
 261:..\FreeRTOS/event_groups.c **** 			}
 564              		.loc 1 261 0
 565 0046 3468     		ldr	r4, [r6]
ARM GAS  C:\Users\Xwx47\AppData\Local\Temp\ccHl3y9k.s 			page 25


 566              	.LVL87:
 567              	.L32:
 265:..\FreeRTOS/event_groups.c **** 
 568              		.loc 1 265 0
 569 0048 FFF7FEFF 		bl	xTaskResumeAll
 570              	.LVL88:
 267:..\FreeRTOS/event_groups.c **** 	{
 571              		.loc 1 267 0
 572 004c 002D     		cmp	r5, #0
 573 004e 16D0     		beq	.L34
 269:..\FreeRTOS/event_groups.c **** 		{
 574              		.loc 1 269 0
 575 0050 0028     		cmp	r0, #0
 576 0052 01D1     		bne	.L35
 271:..\FreeRTOS/event_groups.c **** 		}
 577              		.loc 1 271 0
 578 0054 FFF7FEFF 		bl	vPortYield
 579              	.LVL89:
 580              	.L35:
 282:..\FreeRTOS/event_groups.c **** 
 581              		.loc 1 282 0
 582 0058 FFF7FEFF 		bl	uxTaskResetEventItemValue
 583              	.LVL90:
 584 005c 0400     		movs	r4, r0
 585              	.LVL91:
 284:..\FreeRTOS/event_groups.c **** 		{
 586              		.loc 1 284 0
 587 005e 8301     		lsls	r3, r0, #6
 588 0060 0BD4     		bmi	.L36
 287:..\FreeRTOS/event_groups.c **** 			{
 589              		.loc 1 287 0
 590 0062 FFF7FEFF 		bl	vPortEnterCritical
 591              	.LVL92:
 289:..\FreeRTOS/event_groups.c **** 
 592              		.loc 1 289 0
 593 0066 3468     		ldr	r4, [r6]
 594              	.LVL93:
 295:..\FreeRTOS/event_groups.c **** 				{
 595              		.loc 1 295 0
 596 0068 2300     		movs	r3, r4
 597 006a 3B40     		ands	r3, r7
 598 006c 9F42     		cmp	r7, r3
 599 006e 02D1     		bne	.L37
 297:..\FreeRTOS/event_groups.c **** 				}
 600              		.loc 1 297 0
 601 0070 2300     		movs	r3, r4
 602 0072 BB43     		bics	r3, r7
 603 0074 3360     		str	r3, [r6]
 604              	.L37:
 304:..\FreeRTOS/event_groups.c **** 
 605              		.loc 1 304 0
 606 0076 FFF7FEFF 		bl	vPortExitCritical
 607              	.LVL94:
 608              	.L36:
 315:..\FreeRTOS/event_groups.c **** 	}
 609              		.loc 1 315 0
 610 007a 2402     		lsls	r4, r4, #8
ARM GAS  C:\Users\Xwx47\AppData\Local\Temp\ccHl3y9k.s 			page 26


 611              	.LVL95:
 612 007c 240A     		lsrs	r4, r4, #8
 613              	.LVL96:
 614              	.L34:
 321:..\FreeRTOS/event_groups.c **** /*-----------------------------------------------------------*/
 615              		.loc 1 321 0
 616 007e 2000     		movs	r0, r4
 617 0080 03B0     		add	sp, sp, #12
 618              		@ sp needed
 619              	.LVL97:
 620              	.LVL98:
 621              	.LVL99:
 622              	.LVL100:
 623 0082 F0BD     		pop	{r4, r5, r6, r7, pc}
 624              		.cfi_endproc
 625              	.LFE33:
 626              		.size	xEventGroupSync, .-xEventGroupSync
 627              		.section	.text.vEventGroupDelete,"ax",%progbits
 628              		.align	2
 629              		.global	vEventGroupDelete
 630              		.code	16
 631              		.thumb_func
 632              		.type	vEventGroupDelete, %function
 633              	vEventGroupDelete:
 634              	.LFB38:
 625:..\FreeRTOS/event_groups.c **** EventGroup_t *pxEventBits = ( EventGroup_t * ) xEventGroup;
 635              		.loc 1 625 0
 636              		.cfi_startproc
 637              		@ args = 0, pretend = 0, frame = 0
 638              		@ frame_needed = 0, uses_anonymous_args = 0
 639              	.LVL101:
 640 0000 10B5     		push	{r4, lr}
 641              		.cfi_def_cfa_offset 8
 642              		.cfi_offset 4, -8
 643              		.cfi_offset 14, -4
 644 0002 0400     		movs	r4, r0
 645              	.LVL102:
 629:..\FreeRTOS/event_groups.c **** 	{
 646              		.loc 1 629 0
 647 0004 FFF7FEFF 		bl	vTaskSuspendAll
 648              	.LVL103:
 633:..\FreeRTOS/event_groups.c **** 		{
 649              		.loc 1 633 0
 650 0008 04E0     		b	.L39
 651              	.L40:
 638:..\FreeRTOS/event_groups.c **** 		}
 652              		.loc 1 638 0
 653 000a 8021     		movs	r1, #128
 654 000c 8904     		lsls	r1, r1, #18
 655 000e 2069     		ldr	r0, [r4, #16]
 656 0010 FFF7FEFF 		bl	xTaskRemoveFromUnorderedEventList
 657              	.LVL104:
 658              	.L39:
 633:..\FreeRTOS/event_groups.c **** 		{
 659              		.loc 1 633 0
 660 0014 6368     		ldr	r3, [r4, #4]
 661 0016 002B     		cmp	r3, #0
ARM GAS  C:\Users\Xwx47\AppData\Local\Temp\ccHl3y9k.s 			page 27


 662 0018 F7D1     		bne	.L40
 645:..\FreeRTOS/event_groups.c **** 		}
 663              		.loc 1 645 0
 664 001a 2000     		movs	r0, r4
 665 001c FFF7FEFF 		bl	vPortFree
 666              	.LVL105:
 662:..\FreeRTOS/event_groups.c **** }
 667              		.loc 1 662 0
 668 0020 FFF7FEFF 		bl	xTaskResumeAll
 669              	.LVL106:
 663:..\FreeRTOS/event_groups.c **** /*-----------------------------------------------------------*/
 670              		.loc 1 663 0
 671              		@ sp needed
 672              	.LVL107:
 673 0024 10BD     		pop	{r4, pc}
 674              		.cfi_endproc
 675              	.LFE38:
 676              		.size	vEventGroupDelete, .-vEventGroupDelete
 677 0026 C046     		.section	.text.vEventGroupSetBitsCallback,"ax",%progbits
 678              		.align	2
 679              		.global	vEventGroupSetBitsCallback
 680              		.code	16
 681              		.thumb_func
 682              		.type	vEventGroupSetBitsCallback, %function
 683              	vEventGroupSetBitsCallback:
 684              	.LFB39:
 669:..\FreeRTOS/event_groups.c **** 	( void ) xEventGroupSetBits( pvEventGroup, ( EventBits_t ) ulBitsToSet );
 685              		.loc 1 669 0
 686              		.cfi_startproc
 687              		@ args = 0, pretend = 0, frame = 0
 688              		@ frame_needed = 0, uses_anonymous_args = 0
 689              	.LVL108:
 690 0000 10B5     		push	{r4, lr}
 691              		.cfi_def_cfa_offset 8
 692              		.cfi_offset 4, -8
 693              		.cfi_offset 14, -4
 670:..\FreeRTOS/event_groups.c **** }
 694              		.loc 1 670 0
 695 0002 FFF7FEFF 		bl	xEventGroupSetBits
 696              	.LVL109:
 671:..\FreeRTOS/event_groups.c **** /*-----------------------------------------------------------*/
 697              		.loc 1 671 0
 698              		@ sp needed
 699 0006 10BD     		pop	{r4, pc}
 700              		.cfi_endproc
 701              	.LFE39:
 702              		.size	vEventGroupSetBitsCallback, .-vEventGroupSetBitsCallback
 703              		.section	.text.vEventGroupClearBitsCallback,"ax",%progbits
 704              		.align	2
 705              		.global	vEventGroupClearBitsCallback
 706              		.code	16
 707              		.thumb_func
 708              		.type	vEventGroupClearBitsCallback, %function
 709              	vEventGroupClearBitsCallback:
 710              	.LFB40:
 677:..\FreeRTOS/event_groups.c **** 	( void ) xEventGroupClearBits( pvEventGroup, ( EventBits_t ) ulBitsToClear );
 711              		.loc 1 677 0
ARM GAS  C:\Users\Xwx47\AppData\Local\Temp\ccHl3y9k.s 			page 28


 712              		.cfi_startproc
 713              		@ args = 0, pretend = 0, frame = 0
 714              		@ frame_needed = 0, uses_anonymous_args = 0
 715              	.LVL110:
 716 0000 10B5     		push	{r4, lr}
 717              		.cfi_def_cfa_offset 8
 718              		.cfi_offset 4, -8
 719              		.cfi_offset 14, -4
 678:..\FreeRTOS/event_groups.c **** }
 720              		.loc 1 678 0
 721 0002 FFF7FEFF 		bl	xEventGroupClearBits
 722              	.LVL111:
 679:..\FreeRTOS/event_groups.c **** /*-----------------------------------------------------------*/
 723              		.loc 1 679 0
 724              		@ sp needed
 725 0006 10BD     		pop	{r4, pc}
 726              		.cfi_endproc
 727              	.LFE40:
 728              		.size	vEventGroupClearBitsCallback, .-vEventGroupClearBitsCallback
 729              		.text
 730              	.Letext0:
 731              		.file 2 "c:\\program files (x86)\\cypress\\psoc creator\\4.1\\psoc creator\\import\\gnu\\arm\\5.4.
 732              		.file 3 "c:\\program files (x86)\\cypress\\psoc creator\\4.1\\psoc creator\\import\\gnu\\arm\\5.4.
 733              		.file 4 "..\\FreeRTOS\\portable\\GCC\\ARM_CM0/portmacro.h"
 734              		.file 5 "..\\FreeRTOS\\include/list.h"
 735              		.file 6 "..\\FreeRTOS\\include/event_groups.h"
 736              		.file 7 "..\\FreeRTOS\\include/portable.h"
 737              		.file 8 "..\\FreeRTOS\\include/task.h"