ARM GAS  C:\Users\Xwx47\AppData\Local\Temp\cck0ChFD.s 			page 1


   1              		.syntax unified
   2              		.cpu cortex-m0
   3              		.fpu softvfp
   4              		.eabi_attribute 20, 1
   5              		.eabi_attribute 21, 1
   6              		.eabi_attribute 23, 3
   7              		.eabi_attribute 24, 1
   8              		.eabi_attribute 25, 1
   9              		.eabi_attribute 26, 1
  10              		.eabi_attribute 30, 1
  11              		.eabi_attribute 34, 0
  12              		.eabi_attribute 18, 4
  13              		.thumb
  14              		.syntax unified
  15              		.file	"main.c"
  16              		.text
  17              	.Ltext0:
  18              		.cfi_sections	.debug_frame
  19              		.section	.text.vLEDTask,"ax",%progbits
  20              		.align	2
  21              		.code	16
  22              		.thumb_func
  23              		.type	vLEDTask, %function
  24              	vLEDTask:
  25              	.LFB33:
  26              		.file 1 "main.c"
   1:main.c        **** #include "project.h"
   2:main.c        **** 
   3:main.c        **** #include "FreeRTOS.h"
   4:main.c        **** #include "task.h"
   5:main.c        **** 
   6:main.c        **** static void prvHardwareSetup(void);
   7:main.c        **** 
   8:main.c        **** static void vLEDTask(void *arg);
   9:main.c        **** 
  10:main.c        **** int main(void)
  11:main.c        **** {    
  12:main.c        ****     prvHardwareSetup();
  13:main.c        **** 
  14:main.c        ****     xTaskCreate(
  15:main.c        ****         (TaskFunction_t) vLEDTask
  16:main.c        ****         , "LED"
  17:main.c        ****         , configMINIMAL_STACK_SIZE
  18:main.c        ****         , (void*) NULL
  19:main.c        ****         , tskIDLE_PRIORITY + 1
  20:main.c        ****         , NULL
  21:main.c        ****     );
  22:main.c        ****     
  23:main.c        ****     vTaskStartScheduler();
  24:main.c        **** 
  25:main.c        ****     while(1) {
  26:main.c        ****     }
  27:main.c        **** }
  28:main.c        **** 
  29:main.c        **** static void vLEDTask(void *arg)
  30:main.c        **** {
  27              		.loc 1 30 0
ARM GAS  C:\Users\Xwx47\AppData\Local\Temp\cck0ChFD.s 			page 2


  28              		.cfi_startproc
  29              		@ Volatile: function does not return.
  30              		@ args = 0, pretend = 0, frame = 0
  31              		@ frame_needed = 0, uses_anonymous_args = 0
  32              	.LVL0:
  33 0000 10B5     		push	{r4, lr}
  34              		.cfi_def_cfa_offset 8
  35              		.cfi_offset 4, -8
  36              		.cfi_offset 14, -4
  37              	.LVL1:
  38              	.L2:
  31:main.c        ****     (void) arg;
  32:main.c        ****     
  33:main.c        ****     while(1) {
  34:main.c        ****         LED_Write(~LED_Read());
  39              		.loc 1 34 0 discriminator 1
  40 0002 FFF7FEFF 		bl	LED_Read
  41              	.LVL2:
  42 0006 C043     		mvns	r0, r0
  43 0008 C0B2     		uxtb	r0, r0
  44 000a FFF7FEFF 		bl	LED_Write
  45              	.LVL3:
  35:main.c        ****         vTaskDelay(pdMS_TO_TICKS(1000)); // 7hz
  46              		.loc 1 35 0 discriminator 1
  47 000e FA20     		movs	r0, #250
  48 0010 8000     		lsls	r0, r0, #2
  49 0012 FFF7FEFF 		bl	vTaskDelay
  50              	.LVL4:
  51 0016 F4E7     		b	.L2
  52              		.cfi_endproc
  53              	.LFE33:
  54              		.size	vLEDTask, .-vLEDTask
  55              		.section	.text.prvHardwareSetup,"ax",%progbits
  56              		.align	2
  57              		.code	16
  58              		.thumb_func
  59              		.type	prvHardwareSetup, %function
  60              	prvHardwareSetup:
  61              	.LFB34:
  36:main.c        ****     }
  37:main.c        **** }
  38:main.c        **** 
  39:main.c        **** static void prvHardwareSetup(void)
  40:main.c        **** {
  62              		.loc 1 40 0
  63              		.cfi_startproc
  64              		@ args = 0, pretend = 0, frame = 0
  65              		@ frame_needed = 0, uses_anonymous_args = 0
  66 0000 10B5     		push	{r4, lr}
  67              		.cfi_def_cfa_offset 8
  68              		.cfi_offset 4, -8
  69              		.cfi_offset 14, -4
  70              	.LVL5:
  41:main.c        ****     // Port layer functions that need to be copied into the vector table.
  42:main.c        ****     extern void xPortPendSVHandler(void);
  43:main.c        ****     extern void xPortSysTickHandler(void);
  44:main.c        ****     extern void vPortSVCHandler(void );
ARM GAS  C:\Users\Xwx47\AppData\Local\Temp\cck0ChFD.s 			page 3


  45:main.c        **** 
  46:main.c        ****     const uint8_t CORTEX_INTERRUPT_BASE = 16;
  47:main.c        ****     // Handler for Cortex Supervisor Call (SVC) - Address 11 (SVCall_IRQn = -5)
  48:main.c        ****     CyIntSetSysVector(CORTEX_INTERRUPT_BASE + SVCall_IRQn,
  71              		.loc 1 48 0
  72 0002 0749     		ldr	r1, .L4
  73 0004 0B20     		movs	r0, #11
  74 0006 FFF7FEFF 		bl	CyIntSetSysVector
  75              	.LVL6:
  49:main.c        ****                     (cyisraddress) vPortSVCHandler);
  50:main.c        ****     // Handler for Cortex PendSV Call - Address 14 (PendSV_IRQn = -2)
  51:main.c        ****     CyIntSetSysVector(CORTEX_INTERRUPT_BASE + PendSV_IRQn,
  76              		.loc 1 51 0
  77 000a 0649     		ldr	r1, .L4+4
  78 000c 0E20     		movs	r0, #14
  79 000e FFF7FEFF 		bl	CyIntSetSysVector
  80              	.LVL7:
  52:main.c        ****                     (cyisraddress) xPortPendSVHandler);
  53:main.c        ****     // Handler for Cortex SYSTICK - Address 15 (SysTick_IRQn = -1)
  54:main.c        ****     CyIntSetSysVector(CORTEX_INTERRUPT_BASE + SysTick_IRQn,
  81              		.loc 1 54 0
  82 0012 0549     		ldr	r1, .L4+8
  83 0014 0F20     		movs	r0, #15
  84 0016 FFF7FEFF 		bl	CyIntSetSysVector
  85              	.LVL8:
  55:main.c        ****                     (cyisraddress) xPortSysTickHandler);
  56:main.c        ****     
  57:main.c        ****     // Start-up the peripherals.
  58:main.c        ****     CyGlobalIntEnable;
  86              		.loc 1 58 0
  87              		.syntax divided
  88              	@ 58 "main.c" 1
  89 001a 62B6     		CPSIE   i
  90              	@ 0 "" 2
  59:main.c        **** }
  91              		.loc 1 59 0
  92              		.thumb
  93              		.syntax unified
  94              		@ sp needed
  95 001c 10BD     		pop	{r4, pc}
  96              	.L5:
  97 001e C046     		.align	2
  98              	.L4:
  99 0020 00000000 		.word	SVC_Handler
 100 0024 00000000 		.word	PendSV_Handler
 101 0028 00000000 		.word	SysTick_Handler
 102              		.cfi_endproc
 103              	.LFE34:
 104              		.size	prvHardwareSetup, .-prvHardwareSetup
 105              		.section	.text.main,"ax",%progbits
 106              		.align	2
 107              		.global	main
 108              		.code	16
 109              		.thumb_func
 110              		.type	main, %function
 111              	main:
 112              	.LFB32:
ARM GAS  C:\Users\Xwx47\AppData\Local\Temp\cck0ChFD.s 			page 4


  11:main.c        ****     prvHardwareSetup();
 113              		.loc 1 11 0
 114              		.cfi_startproc
 115              		@ Volatile: function does not return.
 116              		@ args = 0, pretend = 0, frame = 0
 117              		@ frame_needed = 0, uses_anonymous_args = 0
 118 0000 00B5     		push	{lr}
 119              		.cfi_def_cfa_offset 4
 120              		.cfi_offset 14, -4
 121 0002 83B0     		sub	sp, sp, #12
 122              		.cfi_def_cfa_offset 16
  12:main.c        **** 
 123              		.loc 1 12 0
 124 0004 FFF7FEFF 		bl	prvHardwareSetup
 125              	.LVL9:
  14:main.c        ****         (TaskFunction_t) vLEDTask
 126              		.loc 1 14 0
 127 0008 0023     		movs	r3, #0
 128 000a 0193     		str	r3, [sp, #4]
 129 000c 0133     		adds	r3, r3, #1
 130 000e 0093     		str	r3, [sp]
 131 0010 0023     		movs	r3, #0
 132 0012 3222     		movs	r2, #50
 133 0014 0349     		ldr	r1, .L8
 134 0016 0448     		ldr	r0, .L8+4
 135 0018 FFF7FEFF 		bl	xTaskCreate
 136              	.LVL10:
  23:main.c        **** 
 137              		.loc 1 23 0
 138 001c FFF7FEFF 		bl	vTaskStartScheduler
 139              	.LVL11:
 140              	.L7:
 141 0020 FEE7     		b	.L7
 142              	.L9:
 143 0022 C046     		.align	2
 144              	.L8:
 145 0024 00000000 		.word	.LC3
 146 0028 00000000 		.word	vLEDTask
 147              		.cfi_endproc
 148              	.LFE32:
 149              		.size	main, .-main
 150              		.section	.text.vApplicationMallocFailedHook,"ax",%progbits
 151              		.align	2
 152              		.global	vApplicationMallocFailedHook
 153              		.code	16
 154              		.thumb_func
 155              		.type	vApplicationMallocFailedHook, %function
 156              	vApplicationMallocFailedHook:
 157              	.LFB35:
  60:main.c        **** 
  61:main.c        **** // The heap space has been execeeded.
  62:main.c        **** void vApplicationMallocFailedHook(void)
  63:main.c        **** {
 158              		.loc 1 63 0
 159              		.cfi_startproc
 160              		@ Volatile: function does not return.
 161              		@ args = 0, pretend = 0, frame = 0
ARM GAS  C:\Users\Xwx47\AppData\Local\Temp\cck0ChFD.s 			page 5


 162              		@ frame_needed = 0, uses_anonymous_args = 0
 163 0000 10B5     		push	{r4, lr}
 164              		.cfi_def_cfa_offset 8
 165              		.cfi_offset 4, -8
 166              		.cfi_offset 14, -4
  64:main.c        ****     taskDISABLE_INTERRUPTS();
 167              		.loc 1 64 0
 168              		.syntax divided
 169              	@ 64 "main.c" 1
 170 0002 72B6     		 cpsid i 
 171              	@ 0 "" 2
  65:main.c        ****     LED_Write(1);
 172              		.loc 1 65 0
 173              		.thumb
 174              		.syntax unified
 175 0004 0120     		movs	r0, #1
 176 0006 FFF7FEFF 		bl	LED_Write
 177              	.LVL12:
 178              	.L11:
 179 000a FEE7     		b	.L11
 180              		.cfi_endproc
 181              	.LFE35:
 182              		.size	vApplicationMallocFailedHook, .-vApplicationMallocFailedHook
 183              		.section	.text.vApplicationStackOverflowHook,"ax",%progbits
 184              		.align	2
 185              		.global	vApplicationStackOverflowHook
 186              		.code	16
 187              		.thumb_func
 188              		.type	vApplicationStackOverflowHook, %function
 189              	vApplicationStackOverflowHook:
 190              	.LFB36:
  66:main.c        ****     while(1) {
  67:main.c        ****     }
  68:main.c        **** }
  69:main.c        **** 
  70:main.c        **** // The stack space has been overflowed
  71:main.c        **** void vApplicationStackOverflowHook(void)
  72:main.c        **** {
 191              		.loc 1 72 0
 192              		.cfi_startproc
 193              		@ Volatile: function does not return.
 194              		@ args = 0, pretend = 0, frame = 0
 195              		@ frame_needed = 0, uses_anonymous_args = 0
 196              		@ link register save eliminated.
  73:main.c        ****     taskDISABLE_INTERRUPTS();
 197              		.loc 1 73 0
 198              		.syntax divided
 199              	@ 73 "main.c" 1
 200 0000 72B6     		 cpsid i 
 201              	@ 0 "" 2
 202              		.thumb
 203              		.syntax unified
 204              	.L13:
 205 0002 FEE7     		b	.L13
 206              		.cfi_endproc
 207              	.LFE36:
 208              		.size	vApplicationStackOverflowHook, .-vApplicationStackOverflowHook
ARM GAS  C:\Users\Xwx47\AppData\Local\Temp\cck0ChFD.s 			page 6


 209              		.section	.rodata.str1.4,"aMS",%progbits,1
 210              		.align	2
 211              	.LC3:
 212 0000 4C454400 		.ascii	"LED\000"
 213              		.text
 214              	.Letext0:
 215              		.file 2 "c:\\program files (x86)\\cypress\\psoc creator\\4.1\\psoc creator\\import\\gnu\\arm\\5.4.
 216              		.file 3 "c:\\program files (x86)\\cypress\\psoc creator\\4.1\\psoc creator\\import\\gnu\\arm\\5.4.
 217              		.file 4 "Generated_Source\\PSoC4/cytypes.h"
 218              		.file 5 "..\\FreeRTOS\\include/projdefs.h"
 219              		.file 6 "..\\FreeRTOS\\portable\\GCC\\ARM_CM0/portmacro.h"
 220              		.file 7 "Generated_Source\\PSoC4/LED.h"
 221              		.file 8 "..\\FreeRTOS\\include/task.h"
 222              		.file 9 "Generated_Source\\PSoC4/CyLib.h"
 223              		.file 10 "Generated_Source\\PSoC4/core_cm0_psoc4.h"