ARM GAS  C:\Users\Xwx47\AppData\Local\Temp\ccIv71o2.s 			page 1


   1              		.syntax unified
   2              		.cpu cortex-m0
   3              		.fpu softvfp
   4              		.eabi_attribute 20, 1
   5              		.eabi_attribute 21, 1
   6              		.eabi_attribute 23, 3
   7              		.eabi_attribute 24, 1
   8              		.eabi_attribute 25, 1
   9              		.eabi_attribute 26, 1
  10              		.eabi_attribute 30, 1
  11              		.eabi_attribute 34, 0
  12              		.eabi_attribute 18, 4
  13              		.thumb
  14              		.syntax unified
  15              		.file	"port.c"
  16              		.text
  17              	.Ltext0:
  18              		.cfi_sections	.debug_frame
  19              		.section	.text.prvTaskExitError,"ax",%progbits
  20              		.align	2
  21              		.code	16
  22              		.thumb_func
  23              		.type	prvTaskExitError, %function
  24              	prvTaskExitError:
  25              	.LFB33:
  26              		.file 1 "..\\FreeRTOS\\portable\\GCC\\ARM_CM0\\port.c"
   1:..\FreeRTOS\portable\GCC\ARM_CM0/port.c **** /*
   2:..\FreeRTOS\portable\GCC\ARM_CM0/port.c ****     FreeRTOS V9.0.0 - Copyright (C) 2016 Real Time Engineers Ltd.
   3:..\FreeRTOS\portable\GCC\ARM_CM0/port.c ****     All rights reserved
   4:..\FreeRTOS\portable\GCC\ARM_CM0/port.c **** 
   5:..\FreeRTOS\portable\GCC\ARM_CM0/port.c ****     VISIT http://www.FreeRTOS.org TO ENSURE YOU ARE USING THE LATEST VERSION.
   6:..\FreeRTOS\portable\GCC\ARM_CM0/port.c **** 
   7:..\FreeRTOS\portable\GCC\ARM_CM0/port.c ****     This file is part of the FreeRTOS distribution.
   8:..\FreeRTOS\portable\GCC\ARM_CM0/port.c **** 
   9:..\FreeRTOS\portable\GCC\ARM_CM0/port.c ****     FreeRTOS is free software; you can redistribute it and/or modify it under
  10:..\FreeRTOS\portable\GCC\ARM_CM0/port.c ****     the terms of the GNU General Public License (version 2) as published by the
  11:..\FreeRTOS\portable\GCC\ARM_CM0/port.c ****     Free Software Foundation >>>> AND MODIFIED BY <<<< the FreeRTOS exception.
  12:..\FreeRTOS\portable\GCC\ARM_CM0/port.c **** 
  13:..\FreeRTOS\portable\GCC\ARM_CM0/port.c ****     ***************************************************************************
  14:..\FreeRTOS\portable\GCC\ARM_CM0/port.c ****     >>!   NOTE: The modification to the GPL is included to allow you to     !<<
  15:..\FreeRTOS\portable\GCC\ARM_CM0/port.c ****     >>!   distribute a combined work that includes FreeRTOS without being   !<<
  16:..\FreeRTOS\portable\GCC\ARM_CM0/port.c ****     >>!   obliged to provide the source code for proprietary components     !<<
  17:..\FreeRTOS\portable\GCC\ARM_CM0/port.c ****     >>!   outside of the FreeRTOS kernel.                                   !<<
  18:..\FreeRTOS\portable\GCC\ARM_CM0/port.c ****     ***************************************************************************
  19:..\FreeRTOS\portable\GCC\ARM_CM0/port.c **** 
  20:..\FreeRTOS\portable\GCC\ARM_CM0/port.c ****     FreeRTOS is distributed in the hope that it will be useful, but WITHOUT ANY
  21:..\FreeRTOS\portable\GCC\ARM_CM0/port.c ****     WARRANTY; without even the implied warranty of MERCHANTABILITY or FITNESS
  22:..\FreeRTOS\portable\GCC\ARM_CM0/port.c ****     FOR A PARTICULAR PURPOSE.  Full license text is available on the following
  23:..\FreeRTOS\portable\GCC\ARM_CM0/port.c ****     link: http://www.freertos.org/a00114.html
  24:..\FreeRTOS\portable\GCC\ARM_CM0/port.c **** 
  25:..\FreeRTOS\portable\GCC\ARM_CM0/port.c ****     ***************************************************************************
  26:..\FreeRTOS\portable\GCC\ARM_CM0/port.c ****      *                                                                       *
  27:..\FreeRTOS\portable\GCC\ARM_CM0/port.c ****      *    FreeRTOS provides completely free yet professionally developed,    *
  28:..\FreeRTOS\portable\GCC\ARM_CM0/port.c ****      *    robust, strictly quality controlled, supported, and cross          *
  29:..\FreeRTOS\portable\GCC\ARM_CM0/port.c ****      *    platform software that is more than just the market leader, it     *
  30:..\FreeRTOS\portable\GCC\ARM_CM0/port.c ****      *    is the industry's de facto standard.                               *
  31:..\FreeRTOS\portable\GCC\ARM_CM0/port.c ****      *                                                                       *
ARM GAS  C:\Users\Xwx47\AppData\Local\Temp\ccIv71o2.s 			page 2


  32:..\FreeRTOS\portable\GCC\ARM_CM0/port.c ****      *    Help yourself get started quickly while simultaneously helping     *
  33:..\FreeRTOS\portable\GCC\ARM_CM0/port.c ****      *    to support the FreeRTOS project by purchasing a FreeRTOS           *
  34:..\FreeRTOS\portable\GCC\ARM_CM0/port.c ****      *    tutorial book, reference manual, or both:                          *
  35:..\FreeRTOS\portable\GCC\ARM_CM0/port.c ****      *    http://www.FreeRTOS.org/Documentation                              *
  36:..\FreeRTOS\portable\GCC\ARM_CM0/port.c ****      *                                                                       *
  37:..\FreeRTOS\portable\GCC\ARM_CM0/port.c ****     ***************************************************************************
  38:..\FreeRTOS\portable\GCC\ARM_CM0/port.c **** 
  39:..\FreeRTOS\portable\GCC\ARM_CM0/port.c ****     http://www.FreeRTOS.org/FAQHelp.html - Having a problem?  Start by reading
  40:..\FreeRTOS\portable\GCC\ARM_CM0/port.c ****     the FAQ page "My application does not run, what could be wrong?".  Have you
  41:..\FreeRTOS\portable\GCC\ARM_CM0/port.c ****     defined configASSERT()?
  42:..\FreeRTOS\portable\GCC\ARM_CM0/port.c **** 
  43:..\FreeRTOS\portable\GCC\ARM_CM0/port.c ****     http://www.FreeRTOS.org/support - In return for receiving this top quality
  44:..\FreeRTOS\portable\GCC\ARM_CM0/port.c ****     embedded software for free we request you assist our global community by
  45:..\FreeRTOS\portable\GCC\ARM_CM0/port.c ****     participating in the support forum.
  46:..\FreeRTOS\portable\GCC\ARM_CM0/port.c **** 
  47:..\FreeRTOS\portable\GCC\ARM_CM0/port.c ****     http://www.FreeRTOS.org/training - Investing in training allows your team to
  48:..\FreeRTOS\portable\GCC\ARM_CM0/port.c ****     be as productive as possible as early as possible.  Now you can receive
  49:..\FreeRTOS\portable\GCC\ARM_CM0/port.c ****     FreeRTOS training directly from Richard Barry, CEO of Real Time Engineers
  50:..\FreeRTOS\portable\GCC\ARM_CM0/port.c ****     Ltd, and the world's leading authority on the world's leading RTOS.
  51:..\FreeRTOS\portable\GCC\ARM_CM0/port.c **** 
  52:..\FreeRTOS\portable\GCC\ARM_CM0/port.c ****     http://www.FreeRTOS.org/plus - A selection of FreeRTOS ecosystem products,
  53:..\FreeRTOS\portable\GCC\ARM_CM0/port.c ****     including FreeRTOS+Trace - an indispensable productivity tool, a DOS
  54:..\FreeRTOS\portable\GCC\ARM_CM0/port.c ****     compatible FAT file system, and our tiny thread aware UDP/IP stack.
  55:..\FreeRTOS\portable\GCC\ARM_CM0/port.c **** 
  56:..\FreeRTOS\portable\GCC\ARM_CM0/port.c ****     http://www.FreeRTOS.org/labs - Where new FreeRTOS products go to incubate.
  57:..\FreeRTOS\portable\GCC\ARM_CM0/port.c ****     Come and try FreeRTOS+TCP, our new open source TCP/IP stack for FreeRTOS.
  58:..\FreeRTOS\portable\GCC\ARM_CM0/port.c **** 
  59:..\FreeRTOS\portable\GCC\ARM_CM0/port.c ****     http://www.OpenRTOS.com - Real Time Engineers ltd. license FreeRTOS to High
  60:..\FreeRTOS\portable\GCC\ARM_CM0/port.c ****     Integrity Systems ltd. to sell under the OpenRTOS brand.  Low cost OpenRTOS
  61:..\FreeRTOS\portable\GCC\ARM_CM0/port.c ****     licenses offer ticketed support, indemnification and commercial middleware.
  62:..\FreeRTOS\portable\GCC\ARM_CM0/port.c **** 
  63:..\FreeRTOS\portable\GCC\ARM_CM0/port.c ****     http://www.SafeRTOS.com - High Integrity Systems also provide a safety
  64:..\FreeRTOS\portable\GCC\ARM_CM0/port.c ****     engineered and independently SIL3 certified version for use in safety and
  65:..\FreeRTOS\portable\GCC\ARM_CM0/port.c ****     mission critical applications that require provable dependability.
  66:..\FreeRTOS\portable\GCC\ARM_CM0/port.c **** 
  67:..\FreeRTOS\portable\GCC\ARM_CM0/port.c ****     1 tab == 4 spaces!
  68:..\FreeRTOS\portable\GCC\ARM_CM0/port.c **** */
  69:..\FreeRTOS\portable\GCC\ARM_CM0/port.c **** 
  70:..\FreeRTOS\portable\GCC\ARM_CM0/port.c **** /*-----------------------------------------------------------
  71:..\FreeRTOS\portable\GCC\ARM_CM0/port.c ****  * Implementation of functions defined in portable.h for the ARM CM0 port.
  72:..\FreeRTOS\portable\GCC\ARM_CM0/port.c ****  *----------------------------------------------------------*/
  73:..\FreeRTOS\portable\GCC\ARM_CM0/port.c **** 
  74:..\FreeRTOS\portable\GCC\ARM_CM0/port.c **** /* Scheduler includes. */
  75:..\FreeRTOS\portable\GCC\ARM_CM0/port.c **** #include "FreeRTOS.h"
  76:..\FreeRTOS\portable\GCC\ARM_CM0/port.c **** #include "task.h"
  77:..\FreeRTOS\portable\GCC\ARM_CM0/port.c **** 
  78:..\FreeRTOS\portable\GCC\ARM_CM0/port.c **** /* Constants required to manipulate the NVIC. */
  79:..\FreeRTOS\portable\GCC\ARM_CM0/port.c **** #define portNVIC_SYSTICK_CTRL		( ( volatile uint32_t *) 0xe000e010 )
  80:..\FreeRTOS\portable\GCC\ARM_CM0/port.c **** #define portNVIC_SYSTICK_LOAD		( ( volatile uint32_t *) 0xe000e014 )
  81:..\FreeRTOS\portable\GCC\ARM_CM0/port.c **** #define portNVIC_INT_CTRL			( ( volatile uint32_t *) 0xe000ed04 )
  82:..\FreeRTOS\portable\GCC\ARM_CM0/port.c **** #define portNVIC_SYSPRI2			( ( volatile uint32_t *) 0xe000ed20 )
  83:..\FreeRTOS\portable\GCC\ARM_CM0/port.c **** #define portNVIC_SYSTICK_CLK		0x00000004
  84:..\FreeRTOS\portable\GCC\ARM_CM0/port.c **** #define portNVIC_SYSTICK_INT		0x00000002
  85:..\FreeRTOS\portable\GCC\ARM_CM0/port.c **** #define portNVIC_SYSTICK_ENABLE		0x00000001
  86:..\FreeRTOS\portable\GCC\ARM_CM0/port.c **** #define portNVIC_PENDSVSET			0x10000000
  87:..\FreeRTOS\portable\GCC\ARM_CM0/port.c **** #define portMIN_INTERRUPT_PRIORITY	( 255UL )
  88:..\FreeRTOS\portable\GCC\ARM_CM0/port.c **** #define portNVIC_PENDSV_PRI			( portMIN_INTERRUPT_PRIORITY << 16UL )
ARM GAS  C:\Users\Xwx47\AppData\Local\Temp\ccIv71o2.s 			page 3


  89:..\FreeRTOS\portable\GCC\ARM_CM0/port.c **** #define portNVIC_SYSTICK_PRI		( portMIN_INTERRUPT_PRIORITY << 24UL )
  90:..\FreeRTOS\portable\GCC\ARM_CM0/port.c **** 
  91:..\FreeRTOS\portable\GCC\ARM_CM0/port.c **** /* Constants required to set up the initial stack. */
  92:..\FreeRTOS\portable\GCC\ARM_CM0/port.c **** #define portINITIAL_XPSR			( 0x01000000 )
  93:..\FreeRTOS\portable\GCC\ARM_CM0/port.c **** 
  94:..\FreeRTOS\portable\GCC\ARM_CM0/port.c **** /* Let the user override the pre-loading of the initial LR with the address of
  95:..\FreeRTOS\portable\GCC\ARM_CM0/port.c **** prvTaskExitError() in case it messes up unwinding of the stack in the
  96:..\FreeRTOS\portable\GCC\ARM_CM0/port.c **** debugger. */
  97:..\FreeRTOS\portable\GCC\ARM_CM0/port.c **** #ifdef configTASK_RETURN_ADDRESS
  98:..\FreeRTOS\portable\GCC\ARM_CM0/port.c **** 	#define portTASK_RETURN_ADDRESS	configTASK_RETURN_ADDRESS
  99:..\FreeRTOS\portable\GCC\ARM_CM0/port.c **** #else
 100:..\FreeRTOS\portable\GCC\ARM_CM0/port.c **** 	#define portTASK_RETURN_ADDRESS	prvTaskExitError
 101:..\FreeRTOS\portable\GCC\ARM_CM0/port.c **** #endif
 102:..\FreeRTOS\portable\GCC\ARM_CM0/port.c **** 
 103:..\FreeRTOS\portable\GCC\ARM_CM0/port.c **** /* Each task maintains its own interrupt status in the critical nesting
 104:..\FreeRTOS\portable\GCC\ARM_CM0/port.c **** variable. */
 105:..\FreeRTOS\portable\GCC\ARM_CM0/port.c **** static UBaseType_t uxCriticalNesting = 0xaaaaaaaa;
 106:..\FreeRTOS\portable\GCC\ARM_CM0/port.c **** 
 107:..\FreeRTOS\portable\GCC\ARM_CM0/port.c **** /*
 108:..\FreeRTOS\portable\GCC\ARM_CM0/port.c ****  * Setup the timer to generate the tick interrupts.
 109:..\FreeRTOS\portable\GCC\ARM_CM0/port.c ****  */
 110:..\FreeRTOS\portable\GCC\ARM_CM0/port.c **** static void prvSetupTimerInterrupt( void );
 111:..\FreeRTOS\portable\GCC\ARM_CM0/port.c **** 
 112:..\FreeRTOS\portable\GCC\ARM_CM0/port.c **** /*
 113:..\FreeRTOS\portable\GCC\ARM_CM0/port.c ****  * Exception handlers.
 114:..\FreeRTOS\portable\GCC\ARM_CM0/port.c ****  */
 115:..\FreeRTOS\portable\GCC\ARM_CM0/port.c **** void xPortPendSVHandler( void ) __attribute__ (( naked ));
 116:..\FreeRTOS\portable\GCC\ARM_CM0/port.c **** void xPortSysTickHandler( void );
 117:..\FreeRTOS\portable\GCC\ARM_CM0/port.c **** void vPortSVCHandler( void );
 118:..\FreeRTOS\portable\GCC\ARM_CM0/port.c **** 
 119:..\FreeRTOS\portable\GCC\ARM_CM0/port.c **** /*
 120:..\FreeRTOS\portable\GCC\ARM_CM0/port.c ****  * Start first task is a separate function so it can be tested in isolation.
 121:..\FreeRTOS\portable\GCC\ARM_CM0/port.c ****  */
 122:..\FreeRTOS\portable\GCC\ARM_CM0/port.c **** static void vPortStartFirstTask( void ) __attribute__ (( naked ));
 123:..\FreeRTOS\portable\GCC\ARM_CM0/port.c **** 
 124:..\FreeRTOS\portable\GCC\ARM_CM0/port.c **** /*
 125:..\FreeRTOS\portable\GCC\ARM_CM0/port.c ****  * Used to catch tasks that attempt to return from their implementing function.
 126:..\FreeRTOS\portable\GCC\ARM_CM0/port.c ****  */
 127:..\FreeRTOS\portable\GCC\ARM_CM0/port.c **** static void prvTaskExitError( void );
 128:..\FreeRTOS\portable\GCC\ARM_CM0/port.c **** 
 129:..\FreeRTOS\portable\GCC\ARM_CM0/port.c **** /*-----------------------------------------------------------*/
 130:..\FreeRTOS\portable\GCC\ARM_CM0/port.c **** 
 131:..\FreeRTOS\portable\GCC\ARM_CM0/port.c **** /*
 132:..\FreeRTOS\portable\GCC\ARM_CM0/port.c ****  * See header file for description.
 133:..\FreeRTOS\portable\GCC\ARM_CM0/port.c ****  */
 134:..\FreeRTOS\portable\GCC\ARM_CM0/port.c **** StackType_t *pxPortInitialiseStack( StackType_t *pxTopOfStack, TaskFunction_t pxCode, void *pvParam
 135:..\FreeRTOS\portable\GCC\ARM_CM0/port.c **** {
 136:..\FreeRTOS\portable\GCC\ARM_CM0/port.c **** 	/* Simulate the stack frame as it would be created by a context switch
 137:..\FreeRTOS\portable\GCC\ARM_CM0/port.c **** 	interrupt. */
 138:..\FreeRTOS\portable\GCC\ARM_CM0/port.c **** 	pxTopOfStack--; /* Offset added to account for the way the MCU uses the stack on entry/exit of int
 139:..\FreeRTOS\portable\GCC\ARM_CM0/port.c **** 	*pxTopOfStack = portINITIAL_XPSR;	/* xPSR */
 140:..\FreeRTOS\portable\GCC\ARM_CM0/port.c **** 	pxTopOfStack--;
 141:..\FreeRTOS\portable\GCC\ARM_CM0/port.c **** 	*pxTopOfStack = ( StackType_t ) pxCode;	/* PC */
 142:..\FreeRTOS\portable\GCC\ARM_CM0/port.c **** 	pxTopOfStack--;
 143:..\FreeRTOS\portable\GCC\ARM_CM0/port.c **** 	*pxTopOfStack = ( StackType_t ) portTASK_RETURN_ADDRESS;	/* LR */
 144:..\FreeRTOS\portable\GCC\ARM_CM0/port.c **** 	pxTopOfStack -= 5;	/* R12, R3, R2 and R1. */
 145:..\FreeRTOS\portable\GCC\ARM_CM0/port.c **** 	*pxTopOfStack = ( StackType_t ) pvParameters;	/* R0 */
ARM GAS  C:\Users\Xwx47\AppData\Local\Temp\ccIv71o2.s 			page 4


 146:..\FreeRTOS\portable\GCC\ARM_CM0/port.c **** 	pxTopOfStack -= 8; /* R11..R4. */
 147:..\FreeRTOS\portable\GCC\ARM_CM0/port.c **** 
 148:..\FreeRTOS\portable\GCC\ARM_CM0/port.c **** 	return pxTopOfStack;
 149:..\FreeRTOS\portable\GCC\ARM_CM0/port.c **** }
 150:..\FreeRTOS\portable\GCC\ARM_CM0/port.c **** /*-----------------------------------------------------------*/
 151:..\FreeRTOS\portable\GCC\ARM_CM0/port.c **** 
 152:..\FreeRTOS\portable\GCC\ARM_CM0/port.c **** static void prvTaskExitError( void )
 153:..\FreeRTOS\portable\GCC\ARM_CM0/port.c **** {
  27              		.loc 1 153 0
  28              		.cfi_startproc
  29              		@ Volatile: function does not return.
  30              		@ args = 0, pretend = 0, frame = 0
  31              		@ frame_needed = 0, uses_anonymous_args = 0
  32              		@ link register save eliminated.
 154:..\FreeRTOS\portable\GCC\ARM_CM0/port.c **** 	/* A function that implements a task must not exit or attempt to return to
 155:..\FreeRTOS\portable\GCC\ARM_CM0/port.c **** 	its caller as there is nothing to return to.  If a task wants to exit it
 156:..\FreeRTOS\portable\GCC\ARM_CM0/port.c **** 	should instead call vTaskDelete( NULL ).
 157:..\FreeRTOS\portable\GCC\ARM_CM0/port.c **** 
 158:..\FreeRTOS\portable\GCC\ARM_CM0/port.c **** 	Artificially force an assert() to be triggered if configASSERT() is
 159:..\FreeRTOS\portable\GCC\ARM_CM0/port.c **** 	defined, then stop here so application writers can catch the error. */
 160:..\FreeRTOS\portable\GCC\ARM_CM0/port.c **** 	configASSERT( uxCriticalNesting == ~0UL );
 161:..\FreeRTOS\portable\GCC\ARM_CM0/port.c **** 	portDISABLE_INTERRUPTS();
  33              		.loc 1 161 0
  34              		.syntax divided
  35              	@ 161 "..\FreeRTOS\portable\GCC\ARM_CM0\port.c" 1
  36 0000 72B6     		 cpsid i 
  37              	@ 0 "" 2
  38              		.thumb
  39              		.syntax unified
  40              	.L2:
  41 0002 FEE7     		b	.L2
  42              		.cfi_endproc
  43              	.LFE33:
  44              		.size	prvTaskExitError, .-prvTaskExitError
  45              		.section	.text.vPortStartFirstTask,"ax",%progbits
  46              		.align	2
  47              		.code	16
  48              		.thumb_func
  49              		.type	vPortStartFirstTask, %function
  50              	vPortStartFirstTask:
  51              	.LFB35:
 162:..\FreeRTOS\portable\GCC\ARM_CM0/port.c **** 	for( ;; );
 163:..\FreeRTOS\portable\GCC\ARM_CM0/port.c **** }
 164:..\FreeRTOS\portable\GCC\ARM_CM0/port.c **** /*-----------------------------------------------------------*/
 165:..\FreeRTOS\portable\GCC\ARM_CM0/port.c **** 
 166:..\FreeRTOS\portable\GCC\ARM_CM0/port.c **** void vPortSVCHandler( void )
 167:..\FreeRTOS\portable\GCC\ARM_CM0/port.c **** {
 168:..\FreeRTOS\portable\GCC\ARM_CM0/port.c **** 	/* This function is no longer used, but retained for backward
 169:..\FreeRTOS\portable\GCC\ARM_CM0/port.c **** 	compatibility. */
 170:..\FreeRTOS\portable\GCC\ARM_CM0/port.c **** }
 171:..\FreeRTOS\portable\GCC\ARM_CM0/port.c **** /*-----------------------------------------------------------*/
 172:..\FreeRTOS\portable\GCC\ARM_CM0/port.c **** 
 173:..\FreeRTOS\portable\GCC\ARM_CM0/port.c **** void vPortStartFirstTask( void )
 174:..\FreeRTOS\portable\GCC\ARM_CM0/port.c **** {
  52              		.loc 1 174 0
  53              		.cfi_startproc
  54              		@ Naked Function: prologue and epilogue provided by programmer.
ARM GAS  C:\Users\Xwx47\AppData\Local\Temp\ccIv71o2.s 			page 5


  55              		@ args = 0, pretend = 0, frame = 0
  56              		@ frame_needed = 0, uses_anonymous_args = 0
 175:..\FreeRTOS\portable\GCC\ARM_CM0/port.c **** 	/* The MSP stack is not reset as, unlike on M3/4 parts, there is no vector
 176:..\FreeRTOS\portable\GCC\ARM_CM0/port.c **** 	table offset register that can be used to locate the initial stack value.
 177:..\FreeRTOS\portable\GCC\ARM_CM0/port.c **** 	Not all M0 parts have the application vector table at address 0. */
 178:..\FreeRTOS\portable\GCC\ARM_CM0/port.c **** 	__asm volatile(
  57              		.loc 1 178 0
  58              		.syntax divided
  59              	@ 178 "..\FreeRTOS\portable\GCC\ARM_CM0\port.c" 1
  60 0000 0B4A     			ldr	r2, pxCurrentTCBConst2	
  61 0002 1368     		ldr r3, [r2]				
  62 0004 1868     		ldr r0, [r3]				
  63 0006 2030     		add r0, #32					
  64 0008 80F30988 		msr psp, r0					
  65 000c 0220     		movs r0, #2					
  66 000e 80F31488 		msr CONTROL, r0				
  67 0012 BFF36F8F 		isb							
  68 0016 3FBC     		pop {r0-r5}					
  69 0018 AE46     		mov lr, r5					
  70 001a 08BC     		pop {r3}					
  71 001c 04BC     		pop {r2}					
  72 001e 62B6     		cpsie i						
  73 0020 1847     		bx r3						
  74              									
  75 0022 C046C046 		.align 4					
  75      C046C046 
  75      C046C046 
  75      C046
  76 0030 00000000 	pxCurrentTCBConst2: .word pxCurrentTCB	  
  77              	@ 0 "" 2
 179:..\FreeRTOS\portable\GCC\ARM_CM0/port.c **** 	"	ldr	r2, pxCurrentTCBConst2	\n" /* Obtain location of pxCurrentTCB. */
 180:..\FreeRTOS\portable\GCC\ARM_CM0/port.c **** 	"	ldr r3, [r2]				\n"
 181:..\FreeRTOS\portable\GCC\ARM_CM0/port.c **** 	"	ldr r0, [r3]				\n" /* The first item in pxCurrentTCB is the task top of stack. */
 182:..\FreeRTOS\portable\GCC\ARM_CM0/port.c **** 	"	add r0, #32					\n" /* Discard everything up to r0. */
 183:..\FreeRTOS\portable\GCC\ARM_CM0/port.c **** 	"	msr psp, r0					\n" /* This is now the new top of stack to use in the task. */
 184:..\FreeRTOS\portable\GCC\ARM_CM0/port.c **** 	"	movs r0, #2					\n" /* Switch to the psp stack. */
 185:..\FreeRTOS\portable\GCC\ARM_CM0/port.c **** 	"	msr CONTROL, r0				\n"
 186:..\FreeRTOS\portable\GCC\ARM_CM0/port.c **** 	"	isb							\n"
 187:..\FreeRTOS\portable\GCC\ARM_CM0/port.c **** 	"	pop {r0-r5}					\n" /* Pop the registers that are saved automatically. */
 188:..\FreeRTOS\portable\GCC\ARM_CM0/port.c **** 	"	mov lr, r5					\n" /* lr is now in r5. */
 189:..\FreeRTOS\portable\GCC\ARM_CM0/port.c **** 	"	pop {r3}					\n" /* Return address is now in r3. */
 190:..\FreeRTOS\portable\GCC\ARM_CM0/port.c **** 	"	pop {r2}					\n" /* Pop and discard XPSR. */
 191:..\FreeRTOS\portable\GCC\ARM_CM0/port.c **** 	"	cpsie i						\n" /* The first task has its context and interrupts can be enabled. */
 192:..\FreeRTOS\portable\GCC\ARM_CM0/port.c **** 	"	bx r3						\n" /* Finally, jump to the user defined task code. */
 193:..\FreeRTOS\portable\GCC\ARM_CM0/port.c **** 	"								\n"
 194:..\FreeRTOS\portable\GCC\ARM_CM0/port.c **** 	"	.align 4					\n"
 195:..\FreeRTOS\portable\GCC\ARM_CM0/port.c **** 	"pxCurrentTCBConst2: .word pxCurrentTCB	  "
 196:..\FreeRTOS\portable\GCC\ARM_CM0/port.c **** 				  );
 197:..\FreeRTOS\portable\GCC\ARM_CM0/port.c **** }
  78              		.loc 1 197 0
  79              		.thumb
  80              		.syntax unified
  81              		.cfi_endproc
  82              	.LFE35:
  83              		.size	vPortStartFirstTask, .-vPortStartFirstTask
  84              		.section	.text.prvSetupTimerInterrupt,"ax",%progbits
  85              		.align	2
ARM GAS  C:\Users\Xwx47\AppData\Local\Temp\ccIv71o2.s 			page 6


  86              		.code	16
  87              		.thumb_func
  88              		.type	prvSetupTimerInterrupt, %function
  89              	prvSetupTimerInterrupt:
  90              	.LFB45:
 198:..\FreeRTOS\portable\GCC\ARM_CM0/port.c **** /*-----------------------------------------------------------*/
 199:..\FreeRTOS\portable\GCC\ARM_CM0/port.c **** 
 200:..\FreeRTOS\portable\GCC\ARM_CM0/port.c **** /*
 201:..\FreeRTOS\portable\GCC\ARM_CM0/port.c ****  * See header file for description.
 202:..\FreeRTOS\portable\GCC\ARM_CM0/port.c ****  */
 203:..\FreeRTOS\portable\GCC\ARM_CM0/port.c **** BaseType_t xPortStartScheduler( void )
 204:..\FreeRTOS\portable\GCC\ARM_CM0/port.c **** {
 205:..\FreeRTOS\portable\GCC\ARM_CM0/port.c **** 	/* Make PendSV, CallSV and SysTick the same priroity as the kernel. */
 206:..\FreeRTOS\portable\GCC\ARM_CM0/port.c **** 	*(portNVIC_SYSPRI2) |= portNVIC_PENDSV_PRI;
 207:..\FreeRTOS\portable\GCC\ARM_CM0/port.c **** 	*(portNVIC_SYSPRI2) |= portNVIC_SYSTICK_PRI;
 208:..\FreeRTOS\portable\GCC\ARM_CM0/port.c **** 
 209:..\FreeRTOS\portable\GCC\ARM_CM0/port.c **** 	/* Start the timer that generates the tick ISR.  Interrupts are disabled
 210:..\FreeRTOS\portable\GCC\ARM_CM0/port.c **** 	here already. */
 211:..\FreeRTOS\portable\GCC\ARM_CM0/port.c **** 	prvSetupTimerInterrupt();
 212:..\FreeRTOS\portable\GCC\ARM_CM0/port.c **** 
 213:..\FreeRTOS\portable\GCC\ARM_CM0/port.c **** 	/* Initialise the critical nesting count ready for the first task. */
 214:..\FreeRTOS\portable\GCC\ARM_CM0/port.c **** 	uxCriticalNesting = 0;
 215:..\FreeRTOS\portable\GCC\ARM_CM0/port.c **** 
 216:..\FreeRTOS\portable\GCC\ARM_CM0/port.c **** 	/* Start the first task. */
 217:..\FreeRTOS\portable\GCC\ARM_CM0/port.c **** 	vPortStartFirstTask();
 218:..\FreeRTOS\portable\GCC\ARM_CM0/port.c **** 
 219:..\FreeRTOS\portable\GCC\ARM_CM0/port.c **** 	/* Should never get here as the tasks will now be executing!  Call the task
 220:..\FreeRTOS\portable\GCC\ARM_CM0/port.c **** 	exit error function to prevent compiler warnings about a static function
 221:..\FreeRTOS\portable\GCC\ARM_CM0/port.c **** 	not being called in the case that the application writer overrides this
 222:..\FreeRTOS\portable\GCC\ARM_CM0/port.c **** 	functionality by defining configTASK_RETURN_ADDRESS. */
 223:..\FreeRTOS\portable\GCC\ARM_CM0/port.c **** 	prvTaskExitError();
 224:..\FreeRTOS\portable\GCC\ARM_CM0/port.c **** 
 225:..\FreeRTOS\portable\GCC\ARM_CM0/port.c **** 	/* Should not get here! */
 226:..\FreeRTOS\portable\GCC\ARM_CM0/port.c **** 	return 0;
 227:..\FreeRTOS\portable\GCC\ARM_CM0/port.c **** }
 228:..\FreeRTOS\portable\GCC\ARM_CM0/port.c **** /*-----------------------------------------------------------*/
 229:..\FreeRTOS\portable\GCC\ARM_CM0/port.c **** 
 230:..\FreeRTOS\portable\GCC\ARM_CM0/port.c **** void vPortEndScheduler( void )
 231:..\FreeRTOS\portable\GCC\ARM_CM0/port.c **** {
 232:..\FreeRTOS\portable\GCC\ARM_CM0/port.c **** 	/* Not implemented in ports where there is nothing to return to.
 233:..\FreeRTOS\portable\GCC\ARM_CM0/port.c **** 	Artificially force an assert. */
 234:..\FreeRTOS\portable\GCC\ARM_CM0/port.c **** 	configASSERT( uxCriticalNesting == 1000UL );
 235:..\FreeRTOS\portable\GCC\ARM_CM0/port.c **** }
 236:..\FreeRTOS\portable\GCC\ARM_CM0/port.c **** /*-----------------------------------------------------------*/
 237:..\FreeRTOS\portable\GCC\ARM_CM0/port.c **** 
 238:..\FreeRTOS\portable\GCC\ARM_CM0/port.c **** void vPortYield( void )
 239:..\FreeRTOS\portable\GCC\ARM_CM0/port.c **** {
 240:..\FreeRTOS\portable\GCC\ARM_CM0/port.c **** 	/* Set a PendSV to request a context switch. */
 241:..\FreeRTOS\portable\GCC\ARM_CM0/port.c **** 	*( portNVIC_INT_CTRL ) = portNVIC_PENDSVSET;
 242:..\FreeRTOS\portable\GCC\ARM_CM0/port.c **** 
 243:..\FreeRTOS\portable\GCC\ARM_CM0/port.c **** 	/* Barriers are normally not required but do ensure the code is completely
 244:..\FreeRTOS\portable\GCC\ARM_CM0/port.c **** 	within the specified behaviour for the architecture. */
 245:..\FreeRTOS\portable\GCC\ARM_CM0/port.c **** 	__asm volatile( "dsb" );
 246:..\FreeRTOS\portable\GCC\ARM_CM0/port.c **** 	__asm volatile( "isb" );
 247:..\FreeRTOS\portable\GCC\ARM_CM0/port.c **** }
 248:..\FreeRTOS\portable\GCC\ARM_CM0/port.c **** /*-----------------------------------------------------------*/
 249:..\FreeRTOS\portable\GCC\ARM_CM0/port.c **** 
ARM GAS  C:\Users\Xwx47\AppData\Local\Temp\ccIv71o2.s 			page 7


 250:..\FreeRTOS\portable\GCC\ARM_CM0/port.c **** void vPortEnterCritical( void )
 251:..\FreeRTOS\portable\GCC\ARM_CM0/port.c **** {
 252:..\FreeRTOS\portable\GCC\ARM_CM0/port.c ****     portDISABLE_INTERRUPTS();
 253:..\FreeRTOS\portable\GCC\ARM_CM0/port.c ****     uxCriticalNesting++;
 254:..\FreeRTOS\portable\GCC\ARM_CM0/port.c **** 	__asm volatile( "dsb" );
 255:..\FreeRTOS\portable\GCC\ARM_CM0/port.c **** 	__asm volatile( "isb" );
 256:..\FreeRTOS\portable\GCC\ARM_CM0/port.c **** }
 257:..\FreeRTOS\portable\GCC\ARM_CM0/port.c **** /*-----------------------------------------------------------*/
 258:..\FreeRTOS\portable\GCC\ARM_CM0/port.c **** 
 259:..\FreeRTOS\portable\GCC\ARM_CM0/port.c **** void vPortExitCritical( void )
 260:..\FreeRTOS\portable\GCC\ARM_CM0/port.c **** {
 261:..\FreeRTOS\portable\GCC\ARM_CM0/port.c **** 	configASSERT( uxCriticalNesting );
 262:..\FreeRTOS\portable\GCC\ARM_CM0/port.c ****     uxCriticalNesting--;
 263:..\FreeRTOS\portable\GCC\ARM_CM0/port.c ****     if( uxCriticalNesting == 0 )
 264:..\FreeRTOS\portable\GCC\ARM_CM0/port.c ****     {
 265:..\FreeRTOS\portable\GCC\ARM_CM0/port.c ****         portENABLE_INTERRUPTS();
 266:..\FreeRTOS\portable\GCC\ARM_CM0/port.c ****     }
 267:..\FreeRTOS\portable\GCC\ARM_CM0/port.c **** }
 268:..\FreeRTOS\portable\GCC\ARM_CM0/port.c **** /*-----------------------------------------------------------*/
 269:..\FreeRTOS\portable\GCC\ARM_CM0/port.c **** 
 270:..\FreeRTOS\portable\GCC\ARM_CM0/port.c **** uint32_t ulSetInterruptMaskFromISR( void )
 271:..\FreeRTOS\portable\GCC\ARM_CM0/port.c **** {
 272:..\FreeRTOS\portable\GCC\ARM_CM0/port.c **** 	__asm volatile(
 273:..\FreeRTOS\portable\GCC\ARM_CM0/port.c **** 					" mrs r0, PRIMASK	\n"
 274:..\FreeRTOS\portable\GCC\ARM_CM0/port.c **** 					" cpsid i			\n"
 275:..\FreeRTOS\portable\GCC\ARM_CM0/port.c **** 					" bx lr				  "
 276:..\FreeRTOS\portable\GCC\ARM_CM0/port.c **** 				  );
 277:..\FreeRTOS\portable\GCC\ARM_CM0/port.c **** 
 278:..\FreeRTOS\portable\GCC\ARM_CM0/port.c **** 	/* To avoid compiler warnings.  This line will never be reached. */
 279:..\FreeRTOS\portable\GCC\ARM_CM0/port.c **** 	return 0;
 280:..\FreeRTOS\portable\GCC\ARM_CM0/port.c **** }
 281:..\FreeRTOS\portable\GCC\ARM_CM0/port.c **** /*-----------------------------------------------------------*/
 282:..\FreeRTOS\portable\GCC\ARM_CM0/port.c **** 
 283:..\FreeRTOS\portable\GCC\ARM_CM0/port.c **** void vClearInterruptMaskFromISR( uint32_t ulMask )
 284:..\FreeRTOS\portable\GCC\ARM_CM0/port.c **** {
 285:..\FreeRTOS\portable\GCC\ARM_CM0/port.c **** 	__asm volatile(
 286:..\FreeRTOS\portable\GCC\ARM_CM0/port.c **** 					" msr PRIMASK, r0	\n"
 287:..\FreeRTOS\portable\GCC\ARM_CM0/port.c **** 					" bx lr				  "
 288:..\FreeRTOS\portable\GCC\ARM_CM0/port.c **** 				  );
 289:..\FreeRTOS\portable\GCC\ARM_CM0/port.c **** 
 290:..\FreeRTOS\portable\GCC\ARM_CM0/port.c **** 	/* Just to avoid compiler warning. */
 291:..\FreeRTOS\portable\GCC\ARM_CM0/port.c **** 	( void ) ulMask;
 292:..\FreeRTOS\portable\GCC\ARM_CM0/port.c **** }
 293:..\FreeRTOS\portable\GCC\ARM_CM0/port.c **** /*-----------------------------------------------------------*/
 294:..\FreeRTOS\portable\GCC\ARM_CM0/port.c **** 
 295:..\FreeRTOS\portable\GCC\ARM_CM0/port.c **** void xPortPendSVHandler( void )
 296:..\FreeRTOS\portable\GCC\ARM_CM0/port.c **** {
 297:..\FreeRTOS\portable\GCC\ARM_CM0/port.c **** 	/* This is a naked function. */
 298:..\FreeRTOS\portable\GCC\ARM_CM0/port.c **** 
 299:..\FreeRTOS\portable\GCC\ARM_CM0/port.c **** 	__asm volatile
 300:..\FreeRTOS\portable\GCC\ARM_CM0/port.c **** 	(
 301:..\FreeRTOS\portable\GCC\ARM_CM0/port.c **** 	"	mrs r0, psp							\n"
 302:..\FreeRTOS\portable\GCC\ARM_CM0/port.c **** 	"										\n"
 303:..\FreeRTOS\portable\GCC\ARM_CM0/port.c **** 	"	ldr	r3, pxCurrentTCBConst			\n" /* Get the location of the current TCB. */
 304:..\FreeRTOS\portable\GCC\ARM_CM0/port.c **** 	"	ldr	r2, [r3]						\n"
 305:..\FreeRTOS\portable\GCC\ARM_CM0/port.c **** 	"										\n"
 306:..\FreeRTOS\portable\GCC\ARM_CM0/port.c **** 	"	sub r0, r0, #32						\n" /* Make space for the remaining low registers. */
ARM GAS  C:\Users\Xwx47\AppData\Local\Temp\ccIv71o2.s 			page 8


 307:..\FreeRTOS\portable\GCC\ARM_CM0/port.c **** 	"	str r0, [r2]						\n" /* Save the new top of stack. */
 308:..\FreeRTOS\portable\GCC\ARM_CM0/port.c **** 	"	stmia r0!, {r4-r7}					\n" /* Store the low registers that are not saved automatically. */
 309:..\FreeRTOS\portable\GCC\ARM_CM0/port.c **** 	" 	mov r4, r8							\n" /* Store the high registers. */
 310:..\FreeRTOS\portable\GCC\ARM_CM0/port.c **** 	" 	mov r5, r9							\n"
 311:..\FreeRTOS\portable\GCC\ARM_CM0/port.c **** 	" 	mov r6, r10							\n"
 312:..\FreeRTOS\portable\GCC\ARM_CM0/port.c **** 	" 	mov r7, r11							\n"
 313:..\FreeRTOS\portable\GCC\ARM_CM0/port.c **** 	" 	stmia r0!, {r4-r7}              	\n"
 314:..\FreeRTOS\portable\GCC\ARM_CM0/port.c **** 	"										\n"
 315:..\FreeRTOS\portable\GCC\ARM_CM0/port.c **** 	"	push {r3, r14}						\n"
 316:..\FreeRTOS\portable\GCC\ARM_CM0/port.c **** 	"	cpsid i								\n"
 317:..\FreeRTOS\portable\GCC\ARM_CM0/port.c **** 	"	bl vTaskSwitchContext				\n"
 318:..\FreeRTOS\portable\GCC\ARM_CM0/port.c **** 	"	cpsie i								\n"
 319:..\FreeRTOS\portable\GCC\ARM_CM0/port.c **** 	"	pop {r2, r3}						\n" /* lr goes in r3. r2 now holds tcb pointer. */
 320:..\FreeRTOS\portable\GCC\ARM_CM0/port.c **** 	"										\n"
 321:..\FreeRTOS\portable\GCC\ARM_CM0/port.c **** 	"	ldr r1, [r2]						\n"
 322:..\FreeRTOS\portable\GCC\ARM_CM0/port.c **** 	"	ldr r0, [r1]						\n" /* The first item in pxCurrentTCB is the task top of stack. */
 323:..\FreeRTOS\portable\GCC\ARM_CM0/port.c **** 	"	add r0, r0, #16						\n" /* Move to the high registers. */
 324:..\FreeRTOS\portable\GCC\ARM_CM0/port.c **** 	"	ldmia r0!, {r4-r7}					\n" /* Pop the high registers. */
 325:..\FreeRTOS\portable\GCC\ARM_CM0/port.c **** 	" 	mov r8, r4							\n"
 326:..\FreeRTOS\portable\GCC\ARM_CM0/port.c **** 	" 	mov r9, r5							\n"
 327:..\FreeRTOS\portable\GCC\ARM_CM0/port.c **** 	" 	mov r10, r6							\n"
 328:..\FreeRTOS\portable\GCC\ARM_CM0/port.c **** 	" 	mov r11, r7							\n"
 329:..\FreeRTOS\portable\GCC\ARM_CM0/port.c **** 	"										\n"
 330:..\FreeRTOS\portable\GCC\ARM_CM0/port.c **** 	"	msr psp, r0							\n" /* Remember the new top of stack for the task. */
 331:..\FreeRTOS\portable\GCC\ARM_CM0/port.c **** 	"										\n"
 332:..\FreeRTOS\portable\GCC\ARM_CM0/port.c **** 	"	sub r0, r0, #32						\n" /* Go back for the low registers that are not automatically restored. *
 333:..\FreeRTOS\portable\GCC\ARM_CM0/port.c **** 	" 	ldmia r0!, {r4-r7}              	\n" /* Pop low registers.  */
 334:..\FreeRTOS\portable\GCC\ARM_CM0/port.c **** 	"										\n"
 335:..\FreeRTOS\portable\GCC\ARM_CM0/port.c **** 	"	bx r3								\n"
 336:..\FreeRTOS\portable\GCC\ARM_CM0/port.c **** 	"										\n"
 337:..\FreeRTOS\portable\GCC\ARM_CM0/port.c **** 	"	.align 4							\n"
 338:..\FreeRTOS\portable\GCC\ARM_CM0/port.c **** 	"pxCurrentTCBConst: .word pxCurrentTCB	  "
 339:..\FreeRTOS\portable\GCC\ARM_CM0/port.c **** 	);
 340:..\FreeRTOS\portable\GCC\ARM_CM0/port.c **** }
 341:..\FreeRTOS\portable\GCC\ARM_CM0/port.c **** /*-----------------------------------------------------------*/
 342:..\FreeRTOS\portable\GCC\ARM_CM0/port.c **** 
 343:..\FreeRTOS\portable\GCC\ARM_CM0/port.c **** void xPortSysTickHandler( void )
 344:..\FreeRTOS\portable\GCC\ARM_CM0/port.c **** {
 345:..\FreeRTOS\portable\GCC\ARM_CM0/port.c **** uint32_t ulPreviousMask;
 346:..\FreeRTOS\portable\GCC\ARM_CM0/port.c **** 
 347:..\FreeRTOS\portable\GCC\ARM_CM0/port.c **** 	ulPreviousMask = portSET_INTERRUPT_MASK_FROM_ISR();
 348:..\FreeRTOS\portable\GCC\ARM_CM0/port.c **** 	{
 349:..\FreeRTOS\portable\GCC\ARM_CM0/port.c **** 		/* Increment the RTOS tick. */
 350:..\FreeRTOS\portable\GCC\ARM_CM0/port.c **** 		if( xTaskIncrementTick() != pdFALSE )
 351:..\FreeRTOS\portable\GCC\ARM_CM0/port.c **** 		{
 352:..\FreeRTOS\portable\GCC\ARM_CM0/port.c **** 			/* Pend a context switch. */
 353:..\FreeRTOS\portable\GCC\ARM_CM0/port.c **** 			*(portNVIC_INT_CTRL) = portNVIC_PENDSVSET;
 354:..\FreeRTOS\portable\GCC\ARM_CM0/port.c **** 		}
 355:..\FreeRTOS\portable\GCC\ARM_CM0/port.c **** 	}
 356:..\FreeRTOS\portable\GCC\ARM_CM0/port.c **** 	portCLEAR_INTERRUPT_MASK_FROM_ISR( ulPreviousMask );
 357:..\FreeRTOS\portable\GCC\ARM_CM0/port.c **** }
 358:..\FreeRTOS\portable\GCC\ARM_CM0/port.c **** /*-----------------------------------------------------------*/
 359:..\FreeRTOS\portable\GCC\ARM_CM0/port.c **** 
 360:..\FreeRTOS\portable\GCC\ARM_CM0/port.c **** /*
 361:..\FreeRTOS\portable\GCC\ARM_CM0/port.c ****  * Setup the systick timer to generate the tick interrupts at the required
 362:..\FreeRTOS\portable\GCC\ARM_CM0/port.c ****  * frequency.
 363:..\FreeRTOS\portable\GCC\ARM_CM0/port.c ****  */
ARM GAS  C:\Users\Xwx47\AppData\Local\Temp\ccIv71o2.s 			page 9


 364:..\FreeRTOS\portable\GCC\ARM_CM0/port.c **** void prvSetupTimerInterrupt( void )
 365:..\FreeRTOS\portable\GCC\ARM_CM0/port.c **** {
  91              		.loc 1 365 0
  92              		.cfi_startproc
  93              		@ args = 0, pretend = 0, frame = 0
  94              		@ frame_needed = 0, uses_anonymous_args = 0
  95              		@ link register save eliminated.
 366:..\FreeRTOS\portable\GCC\ARM_CM0/port.c **** 	/* Configure SysTick to interrupt at the requested rate. */
 367:..\FreeRTOS\portable\GCC\ARM_CM0/port.c **** 	*(portNVIC_SYSTICK_LOAD) = ( configCPU_CLOCK_HZ / configTICK_RATE_HZ ) - 1UL;
  96              		.loc 1 367 0
  97 0000 034A     		ldr	r2, .L5
  98 0002 044B     		ldr	r3, .L5+4
  99 0004 1A60     		str	r2, [r3]
 368:..\FreeRTOS\portable\GCC\ARM_CM0/port.c **** 	*(portNVIC_SYSTICK_CTRL) = portNVIC_SYSTICK_CLK | portNVIC_SYSTICK_INT | portNVIC_SYSTICK_ENABLE;
 100              		.loc 1 368 0
 101 0006 0722     		movs	r2, #7
 102 0008 034B     		ldr	r3, .L5+8
 103 000a 1A60     		str	r2, [r3]
 369:..\FreeRTOS\portable\GCC\ARM_CM0/port.c **** }
 104              		.loc 1 369 0
 105              		@ sp needed
 106 000c 7047     		bx	lr
 107              	.L6:
 108 000e C046     		.align	2
 109              	.L5:
 110 0010 BF5D0000 		.word	23999
 111 0014 14E000E0 		.word	-536813548
 112 0018 10E000E0 		.word	-536813552
 113              		.cfi_endproc
 114              	.LFE45:
 115              		.size	prvSetupTimerInterrupt, .-prvSetupTimerInterrupt
 116              		.section	.text.pxPortInitialiseStack,"ax",%progbits
 117              		.align	2
 118              		.global	pxPortInitialiseStack
 119              		.code	16
 120              		.thumb_func
 121              		.type	pxPortInitialiseStack, %function
 122              	pxPortInitialiseStack:
 123              	.LFB32:
 135:..\FreeRTOS\portable\GCC\ARM_CM0/port.c **** 	/* Simulate the stack frame as it would be created by a context switch
 124              		.loc 1 135 0
 125              		.cfi_startproc
 126              		@ args = 0, pretend = 0, frame = 0
 127              		@ frame_needed = 0, uses_anonymous_args = 0
 128              	.LVL0:
 129 0000 10B5     		push	{r4, lr}
 130              		.cfi_def_cfa_offset 8
 131              		.cfi_offset 4, -8
 132              		.cfi_offset 14, -4
 133              	.LVL1:
 139:..\FreeRTOS\portable\GCC\ARM_CM0/port.c **** 	pxTopOfStack--;
 134              		.loc 1 139 0
 135 0002 031F     		subs	r3, r0, #4
 136              	.LVL2:
 137 0004 8024     		movs	r4, #128
 138 0006 6404     		lsls	r4, r4, #17
 139 0008 1C60     		str	r4, [r3]
ARM GAS  C:\Users\Xwx47\AppData\Local\Temp\ccIv71o2.s 			page 10


 140              	.LVL3:
 141:..\FreeRTOS\portable\GCC\ARM_CM0/port.c **** 	pxTopOfStack--;
 141              		.loc 1 141 0
 142 000a 043B     		subs	r3, r3, #4
 143 000c 1960     		str	r1, [r3]
 144              	.LVL4:
 143:..\FreeRTOS\portable\GCC\ARM_CM0/port.c **** 	pxTopOfStack -= 5;	/* R12, R3, R2 and R1. */
 145              		.loc 1 143 0
 146 000e 043B     		subs	r3, r3, #4
 147 0010 0249     		ldr	r1, .L8
 148              	.LVL5:
 149 0012 1960     		str	r1, [r3]
 150              	.LVL6:
 145:..\FreeRTOS\portable\GCC\ARM_CM0/port.c **** 	pxTopOfStack -= 8; /* R11..R4. */
 151              		.loc 1 145 0
 152 0014 143B     		subs	r3, r3, #20
 153              	.LVL7:
 154 0016 1A60     		str	r2, [r3]
 146:..\FreeRTOS\portable\GCC\ARM_CM0/port.c **** 
 155              		.loc 1 146 0
 156 0018 4038     		subs	r0, r0, #64
 157              	.LVL8:
 149:..\FreeRTOS\portable\GCC\ARM_CM0/port.c **** /*-----------------------------------------------------------*/
 158              		.loc 1 149 0
 159              		@ sp needed
 160 001a 10BD     		pop	{r4, pc}
 161              	.L9:
 162              		.align	2
 163              	.L8:
 164 001c 00000000 		.word	prvTaskExitError
 165              		.cfi_endproc
 166              	.LFE32:
 167              		.size	pxPortInitialiseStack, .-pxPortInitialiseStack
 168              		.section	.text.SVC_Handler,"ax",%progbits
 169              		.align	2
 170              		.global	SVC_Handler
 171              		.code	16
 172              		.thumb_func
 173              		.type	SVC_Handler, %function
 174              	SVC_Handler:
 175              	.LFB34:
 167:..\FreeRTOS\portable\GCC\ARM_CM0/port.c **** 	/* This function is no longer used, but retained for backward
 176              		.loc 1 167 0
 177              		.cfi_startproc
 178              		@ args = 0, pretend = 0, frame = 0
 179              		@ frame_needed = 0, uses_anonymous_args = 0
 180              		@ link register save eliminated.
 170:..\FreeRTOS\portable\GCC\ARM_CM0/port.c **** /*-----------------------------------------------------------*/
 181              		.loc 1 170 0
 182              		@ sp needed
 183 0000 7047     		bx	lr
 184              		.cfi_endproc
 185              	.LFE34:
 186              		.size	SVC_Handler, .-SVC_Handler
 187 0002 C046     		.section	.text.xPortStartScheduler,"ax",%progbits
 188              		.align	2
 189              		.global	xPortStartScheduler
ARM GAS  C:\Users\Xwx47\AppData\Local\Temp\ccIv71o2.s 			page 11


 190              		.code	16
 191              		.thumb_func
 192              		.type	xPortStartScheduler, %function
 193              	xPortStartScheduler:
 194              	.LFB36:
 204:..\FreeRTOS\portable\GCC\ARM_CM0/port.c **** 	/* Make PendSV, CallSV and SysTick the same priroity as the kernel. */
 195              		.loc 1 204 0
 196              		.cfi_startproc
 197              		@ Volatile: function does not return.
 198              		@ args = 0, pretend = 0, frame = 0
 199              		@ frame_needed = 0, uses_anonymous_args = 0
 200 0000 10B5     		push	{r4, lr}
 201              		.cfi_def_cfa_offset 8
 202              		.cfi_offset 4, -8
 203              		.cfi_offset 14, -4
 206:..\FreeRTOS\portable\GCC\ARM_CM0/port.c **** 	*(portNVIC_SYSPRI2) |= portNVIC_SYSTICK_PRI;
 204              		.loc 1 206 0
 205 0002 0A4B     		ldr	r3, .L12
 206 0004 1A68     		ldr	r2, [r3]
 207 0006 FF21     		movs	r1, #255
 208 0008 0904     		lsls	r1, r1, #16
 209 000a 0A43     		orrs	r2, r1
 210 000c 1A60     		str	r2, [r3]
 207:..\FreeRTOS\portable\GCC\ARM_CM0/port.c **** 
 211              		.loc 1 207 0
 212 000e 1A68     		ldr	r2, [r3]
 213 0010 FF21     		movs	r1, #255
 214 0012 0906     		lsls	r1, r1, #24
 215 0014 0A43     		orrs	r2, r1
 216 0016 1A60     		str	r2, [r3]
 211:..\FreeRTOS\portable\GCC\ARM_CM0/port.c **** 
 217              		.loc 1 211 0
 218 0018 FFF7FEFF 		bl	prvSetupTimerInterrupt
 219              	.LVL9:
 214:..\FreeRTOS\portable\GCC\ARM_CM0/port.c **** 
 220              		.loc 1 214 0
 221 001c 0022     		movs	r2, #0
 222 001e 044B     		ldr	r3, .L12+4
 223 0020 1A60     		str	r2, [r3]
 217:..\FreeRTOS\portable\GCC\ARM_CM0/port.c **** 
 224              		.loc 1 217 0
 225 0022 FFF7FEFF 		bl	vPortStartFirstTask
 226              	.LVL10:
 223:..\FreeRTOS\portable\GCC\ARM_CM0/port.c **** 
 227              		.loc 1 223 0
 228 0026 FFF7FEFF 		bl	prvTaskExitError
 229              	.LVL11:
 230              	.L13:
 231 002a C046     		.align	2
 232              	.L12:
 233 002c 20ED00E0 		.word	-536810208
 234 0030 00000000 		.word	.LANCHOR0
 235              		.cfi_endproc
 236              	.LFE36:
 237              		.size	xPortStartScheduler, .-xPortStartScheduler
 238              		.section	.text.vPortEndScheduler,"ax",%progbits
 239              		.align	2
ARM GAS  C:\Users\Xwx47\AppData\Local\Temp\ccIv71o2.s 			page 12


 240              		.global	vPortEndScheduler
 241              		.code	16
 242              		.thumb_func
 243              		.type	vPortEndScheduler, %function
 244              	vPortEndScheduler:
 245              	.LFB37:
 231:..\FreeRTOS\portable\GCC\ARM_CM0/port.c **** 	/* Not implemented in ports where there is nothing to return to.
 246              		.loc 1 231 0
 247              		.cfi_startproc
 248              		@ args = 0, pretend = 0, frame = 0
 249              		@ frame_needed = 0, uses_anonymous_args = 0
 250              		@ link register save eliminated.
 235:..\FreeRTOS\portable\GCC\ARM_CM0/port.c **** /*-----------------------------------------------------------*/
 251              		.loc 1 235 0
 252              		@ sp needed
 253 0000 7047     		bx	lr
 254              		.cfi_endproc
 255              	.LFE37:
 256              		.size	vPortEndScheduler, .-vPortEndScheduler
 257 0002 C046     		.section	.text.vPortYield,"ax",%progbits
 258              		.align	2
 259              		.global	vPortYield
 260              		.code	16
 261              		.thumb_func
 262              		.type	vPortYield, %function
 263              	vPortYield:
 264              	.LFB38:
 239:..\FreeRTOS\portable\GCC\ARM_CM0/port.c **** 	/* Set a PendSV to request a context switch. */
 265              		.loc 1 239 0
 266              		.cfi_startproc
 267              		@ args = 0, pretend = 0, frame = 0
 268              		@ frame_needed = 0, uses_anonymous_args = 0
 269              		@ link register save eliminated.
 241:..\FreeRTOS\portable\GCC\ARM_CM0/port.c **** 
 270              		.loc 1 241 0
 271 0000 8022     		movs	r2, #128
 272 0002 5205     		lsls	r2, r2, #21
 273 0004 034B     		ldr	r3, .L16
 274 0006 1A60     		str	r2, [r3]
 245:..\FreeRTOS\portable\GCC\ARM_CM0/port.c **** 	__asm volatile( "isb" );
 275              		.loc 1 245 0
 276              		.syntax divided
 277              	@ 245 "..\FreeRTOS\portable\GCC\ARM_CM0\port.c" 1
 278 0008 BFF34F8F 		dsb
 279              	@ 0 "" 2
 246:..\FreeRTOS\portable\GCC\ARM_CM0/port.c **** }
 280              		.loc 1 246 0
 281              	@ 246 "..\FreeRTOS\portable\GCC\ARM_CM0\port.c" 1
 282 000c BFF36F8F 		isb
 283              	@ 0 "" 2
 247:..\FreeRTOS\portable\GCC\ARM_CM0/port.c **** /*-----------------------------------------------------------*/
 284              		.loc 1 247 0
 285              		.thumb
 286              		.syntax unified
 287              		@ sp needed
 288 0010 7047     		bx	lr
 289              	.L17:
ARM GAS  C:\Users\Xwx47\AppData\Local\Temp\ccIv71o2.s 			page 13


 290 0012 C046     		.align	2
 291              	.L16:
 292 0014 04ED00E0 		.word	-536810236
 293              		.cfi_endproc
 294              	.LFE38:
 295              		.size	vPortYield, .-vPortYield
 296              		.section	.text.vPortEnterCritical,"ax",%progbits
 297              		.align	2
 298              		.global	vPortEnterCritical
 299              		.code	16
 300              		.thumb_func
 301              		.type	vPortEnterCritical, %function
 302              	vPortEnterCritical:
 303              	.LFB39:
 251:..\FreeRTOS\portable\GCC\ARM_CM0/port.c ****     portDISABLE_INTERRUPTS();
 304              		.loc 1 251 0
 305              		.cfi_startproc
 306              		@ args = 0, pretend = 0, frame = 0
 307              		@ frame_needed = 0, uses_anonymous_args = 0
 308              		@ link register save eliminated.
 252:..\FreeRTOS\portable\GCC\ARM_CM0/port.c ****     uxCriticalNesting++;
 309              		.loc 1 252 0
 310              		.syntax divided
 311              	@ 252 "..\FreeRTOS\portable\GCC\ARM_CM0\port.c" 1
 312 0000 72B6     		 cpsid i 
 313              	@ 0 "" 2
 253:..\FreeRTOS\portable\GCC\ARM_CM0/port.c **** 	__asm volatile( "dsb" );
 314              		.loc 1 253 0
 315              		.thumb
 316              		.syntax unified
 317 0002 044A     		ldr	r2, .L19
 318 0004 1368     		ldr	r3, [r2]
 319 0006 0133     		adds	r3, r3, #1
 320 0008 1360     		str	r3, [r2]
 254:..\FreeRTOS\portable\GCC\ARM_CM0/port.c **** 	__asm volatile( "isb" );
 321              		.loc 1 254 0
 322              		.syntax divided
 323              	@ 254 "..\FreeRTOS\portable\GCC\ARM_CM0\port.c" 1
 324 000a BFF34F8F 		dsb
 325              	@ 0 "" 2
 255:..\FreeRTOS\portable\GCC\ARM_CM0/port.c **** }
 326              		.loc 1 255 0
 327              	@ 255 "..\FreeRTOS\portable\GCC\ARM_CM0\port.c" 1
 328 000e BFF36F8F 		isb
 329              	@ 0 "" 2
 256:..\FreeRTOS\portable\GCC\ARM_CM0/port.c **** /*-----------------------------------------------------------*/
 330              		.loc 1 256 0
 331              		.thumb
 332              		.syntax unified
 333              		@ sp needed
 334 0012 7047     		bx	lr
 335              	.L20:
 336              		.align	2
 337              	.L19:
 338 0014 00000000 		.word	.LANCHOR0
 339              		.cfi_endproc
 340              	.LFE39:
ARM GAS  C:\Users\Xwx47\AppData\Local\Temp\ccIv71o2.s 			page 14


 341              		.size	vPortEnterCritical, .-vPortEnterCritical
 342              		.section	.text.vPortExitCritical,"ax",%progbits
 343              		.align	2
 344              		.global	vPortExitCritical
 345              		.code	16
 346              		.thumb_func
 347              		.type	vPortExitCritical, %function
 348              	vPortExitCritical:
 349              	.LFB40:
 260:..\FreeRTOS\portable\GCC\ARM_CM0/port.c **** 	configASSERT( uxCriticalNesting );
 350              		.loc 1 260 0
 351              		.cfi_startproc
 352              		@ args = 0, pretend = 0, frame = 0
 353              		@ frame_needed = 0, uses_anonymous_args = 0
 354              		@ link register save eliminated.
 262:..\FreeRTOS\portable\GCC\ARM_CM0/port.c ****     if( uxCriticalNesting == 0 )
 355              		.loc 1 262 0
 356 0000 034A     		ldr	r2, .L23
 357 0002 1368     		ldr	r3, [r2]
 358 0004 013B     		subs	r3, r3, #1
 359 0006 1360     		str	r3, [r2]
 263:..\FreeRTOS\portable\GCC\ARM_CM0/port.c ****     {
 360              		.loc 1 263 0
 361 0008 002B     		cmp	r3, #0
 362 000a 00D1     		bne	.L21
 265:..\FreeRTOS\portable\GCC\ARM_CM0/port.c ****     }
 363              		.loc 1 265 0
 364              		.syntax divided
 365              	@ 265 "..\FreeRTOS\portable\GCC\ARM_CM0\port.c" 1
 366 000c 62B6     		 cpsie i 
 367              	@ 0 "" 2
 368              		.thumb
 369              		.syntax unified
 370              	.L21:
 267:..\FreeRTOS\portable\GCC\ARM_CM0/port.c **** /*-----------------------------------------------------------*/
 371              		.loc 1 267 0
 372              		@ sp needed
 373 000e 7047     		bx	lr
 374              	.L24:
 375              		.align	2
 376              	.L23:
 377 0010 00000000 		.word	.LANCHOR0
 378              		.cfi_endproc
 379              	.LFE40:
 380              		.size	vPortExitCritical, .-vPortExitCritical
 381              		.section	.text.ulSetInterruptMaskFromISR,"ax",%progbits
 382              		.align	2
 383              		.global	ulSetInterruptMaskFromISR
 384              		.code	16
 385              		.thumb_func
 386              		.type	ulSetInterruptMaskFromISR, %function
 387              	ulSetInterruptMaskFromISR:
 388              	.LFB41:
 271:..\FreeRTOS\portable\GCC\ARM_CM0/port.c **** 	__asm volatile(
 389              		.loc 1 271 0
 390              		.cfi_startproc
 391              		@ Naked Function: prologue and epilogue provided by programmer.
ARM GAS  C:\Users\Xwx47\AppData\Local\Temp\ccIv71o2.s 			page 15


 392              		@ args = 0, pretend = 0, frame = 0
 393              		@ frame_needed = 0, uses_anonymous_args = 0
 272:..\FreeRTOS\portable\GCC\ARM_CM0/port.c **** 					" mrs r0, PRIMASK	\n"
 394              		.loc 1 272 0
 395              		.syntax divided
 396              	@ 272 "..\FreeRTOS\portable\GCC\ARM_CM0\port.c" 1
 397 0000 EFF31080 		 mrs r0, PRIMASK	
 398 0004 72B6     	 cpsid i			
 399 0006 7047     	 bx lr				  
 400              	@ 0 "" 2
 280:..\FreeRTOS\portable\GCC\ARM_CM0/port.c **** /*-----------------------------------------------------------*/
 401              		.loc 1 280 0
 402              		.thumb
 403              		.syntax unified
 404 0008 0020     		movs	r0, #0
 405              		.cfi_endproc
 406              	.LFE41:
 407              		.size	ulSetInterruptMaskFromISR, .-ulSetInterruptMaskFromISR
 408 000a C046     		.section	.text.vClearInterruptMaskFromISR,"ax",%progbits
 409              		.align	2
 410              		.global	vClearInterruptMaskFromISR
 411              		.code	16
 412              		.thumb_func
 413              		.type	vClearInterruptMaskFromISR, %function
 414              	vClearInterruptMaskFromISR:
 415              	.LFB42:
 284:..\FreeRTOS\portable\GCC\ARM_CM0/port.c **** 	__asm volatile(
 416              		.loc 1 284 0
 417              		.cfi_startproc
 418              		@ Naked Function: prologue and epilogue provided by programmer.
 419              		@ args = 0, pretend = 0, frame = 0
 420              		@ frame_needed = 0, uses_anonymous_args = 0
 421              	.LVL12:
 285:..\FreeRTOS\portable\GCC\ARM_CM0/port.c **** 					" msr PRIMASK, r0	\n"
 422              		.loc 1 285 0
 423              		.syntax divided
 424              	@ 285 "..\FreeRTOS\portable\GCC\ARM_CM0\port.c" 1
 425 0000 80F31088 		 msr PRIMASK, r0	
 426 0004 7047     	 bx lr				  
 427              	@ 0 "" 2
 292:..\FreeRTOS\portable\GCC\ARM_CM0/port.c **** /*-----------------------------------------------------------*/
 428              		.loc 1 292 0
 429              		.thumb
 430              		.syntax unified
 431              		.cfi_endproc
 432              	.LFE42:
 433              		.size	vClearInterruptMaskFromISR, .-vClearInterruptMaskFromISR
 434 0006 C046     		.section	.text.PendSV_Handler,"ax",%progbits
 435              		.align	2
 436              		.global	PendSV_Handler
 437              		.code	16
 438              		.thumb_func
 439              		.type	PendSV_Handler, %function
 440              	PendSV_Handler:
 441              	.LFB43:
 296:..\FreeRTOS\portable\GCC\ARM_CM0/port.c **** 	/* This is a naked function. */
 442              		.loc 1 296 0
ARM GAS  C:\Users\Xwx47\AppData\Local\Temp\ccIv71o2.s 			page 16


 443              		.cfi_startproc
 444              		@ Naked Function: prologue and epilogue provided by programmer.
 445              		@ args = 0, pretend = 0, frame = 0
 446              		@ frame_needed = 0, uses_anonymous_args = 0
 299:..\FreeRTOS\portable\GCC\ARM_CM0/port.c **** 	(
 447              		.loc 1 299 0
 448              		.syntax divided
 449              	@ 299 "..\FreeRTOS\portable\GCC\ARM_CM0\port.c" 1
 450 0000 EFF30980 			mrs r0, psp							
 451              											
 452 0004 0E4B     		ldr	r3, pxCurrentTCBConst			
 453 0006 1A68     		ldr	r2, [r3]						
 454              											
 455 0008 2038     		sub r0, r0, #32						
 456 000a 1060     		str r0, [r2]						
 457 000c F0C0     		stmia r0!, {r4-r7}					
 458 000e 4446     	 	mov r4, r8							
 459 0010 4D46     	 	mov r5, r9							
 460 0012 5646     	 	mov r6, r10							
 461 0014 5F46     	 	mov r7, r11							
 462 0016 F0C0     	 	stmia r0!, {r4-r7}              	
 463              											
 464 0018 08B5     		push {r3, r14}						
 465 001a 72B6     		cpsid i								
 466 001c FFF7FEFF 		bl vTaskSwitchContext				
 467 0020 62B6     		cpsie i								
 468 0022 0CBC     		pop {r2, r3}						
 469              											
 470 0024 1168     		ldr r1, [r2]						
 471 0026 0868     		ldr r0, [r1]						
 472 0028 1030     		add r0, r0, #16						
 473 002a F0C8     		ldmia r0!, {r4-r7}					
 474 002c A046     	 	mov r8, r4							
 475 002e A946     	 	mov r9, r5							
 476 0030 B246     	 	mov r10, r6							
 477 0032 BB46     	 	mov r11, r7							
 478              											
 479 0034 80F30988 		msr psp, r0							
 480              											
 481 0038 2038     		sub r0, r0, #32						
 482 003a F0C8     	 	ldmia r0!, {r4-r7}              	
 483              											
 484 003c 1847     		bx r3								
 485              											
 486 003e C046     		.align 4							
 487 0040 00000000 	pxCurrentTCBConst: .word pxCurrentTCB	  
 488              	@ 0 "" 2
 340:..\FreeRTOS\portable\GCC\ARM_CM0/port.c **** /*-----------------------------------------------------------*/
 489              		.loc 1 340 0
 490              		.thumb
 491              		.syntax unified
 492              		.cfi_endproc
 493              	.LFE43:
 494              		.size	PendSV_Handler, .-PendSV_Handler
 495              		.section	.text.SysTick_Handler,"ax",%progbits
 496              		.align	2
 497              		.global	SysTick_Handler
ARM GAS  C:\Users\Xwx47\AppData\Local\Temp\ccIv71o2.s 			page 17


 498              		.code	16
 499              		.thumb_func
 500              		.type	SysTick_Handler, %function
 501              	SysTick_Handler:
 502              	.LFB44:
 344:..\FreeRTOS\portable\GCC\ARM_CM0/port.c **** uint32_t ulPreviousMask;
 503              		.loc 1 344 0
 504              		.cfi_startproc
 505              		@ args = 0, pretend = 0, frame = 0
 506              		@ frame_needed = 0, uses_anonymous_args = 0
 507 0000 10B5     		push	{r4, lr}
 508              		.cfi_def_cfa_offset 8
 509              		.cfi_offset 4, -8
 510              		.cfi_offset 14, -4
 347:..\FreeRTOS\portable\GCC\ARM_CM0/port.c **** 	{
 511              		.loc 1 347 0
 512 0002 FFF7FEFF 		bl	ulSetInterruptMaskFromISR
 513              	.LVL13:
 514 0006 0400     		movs	r4, r0
 515              	.LVL14:
 350:..\FreeRTOS\portable\GCC\ARM_CM0/port.c **** 		{
 516              		.loc 1 350 0
 517 0008 FFF7FEFF 		bl	xTaskIncrementTick
 518              	.LVL15:
 519 000c 0028     		cmp	r0, #0
 520 000e 03D0     		beq	.L29
 353:..\FreeRTOS\portable\GCC\ARM_CM0/port.c **** 		}
 521              		.loc 1 353 0
 522 0010 8022     		movs	r2, #128
 523 0012 5205     		lsls	r2, r2, #21
 524 0014 024B     		ldr	r3, .L30
 525 0016 1A60     		str	r2, [r3]
 526              	.L29:
 356:..\FreeRTOS\portable\GCC\ARM_CM0/port.c **** }
 527              		.loc 1 356 0
 528 0018 2000     		movs	r0, r4
 529 001a FFF7FEFF 		bl	vClearInterruptMaskFromISR
 530              	.LVL16:
 357:..\FreeRTOS\portable\GCC\ARM_CM0/port.c **** /*-----------------------------------------------------------*/
 531              		.loc 1 357 0
 532              		@ sp needed
 533              	.LVL17:
 534 001e 10BD     		pop	{r4, pc}
 535              	.L31:
 536              		.align	2
 537              	.L30:
 538 0020 04ED00E0 		.word	-536810236
 539              		.cfi_endproc
 540              	.LFE44:
 541              		.size	SysTick_Handler, .-SysTick_Handler
 542              		.data
 543              		.align	2
 544              		.set	.LANCHOR0,. + 0
 545              		.type	uxCriticalNesting, %object
 546              		.size	uxCriticalNesting, 4
 547              	uxCriticalNesting:
 548 0000 AAAAAAAA 		.word	-1431655766
ARM GAS  C:\Users\Xwx47\AppData\Local\Temp\ccIv71o2.s 			page 18


 549              		.text
 550              	.Letext0:
 551              		.file 2 "c:\\program files (x86)\\cypress\\psoc creator\\4.1\\psoc creator\\import\\gnu\\arm\\5.4.
 552              		.file 3 "c:\\program files (x86)\\cypress\\psoc creator\\4.1\\psoc creator\\import\\gnu\\arm\\5.4.
 553              		.file 4 "..\\FreeRTOS\\include/projdefs.h"
 554              		.file 5 "..\\FreeRTOS\\portable\\GCC\\ARM_CM0/portmacro.h"
 555              		.file 6 "..\\FreeRTOS\\include/task.h"