ARM GAS  C:\Users\Xwx47\AppData\Local\Temp\ccAJY2P3.s 			page 1


   1              		.syntax unified
   2              		.cpu cortex-m0
   3              		.fpu softvfp
   4              		.eabi_attribute 20, 1
   5              		.eabi_attribute 21, 1
   6              		.eabi_attribute 23, 3
   7              		.eabi_attribute 24, 1
   8              		.eabi_attribute 25, 1
   9              		.eabi_attribute 26, 1
  10              		.eabi_attribute 30, 1
  11              		.eabi_attribute 34, 0
  12              		.eabi_attribute 18, 4
  13              		.thumb
  14              		.syntax unified
  15              		.file	"heap_4.c"
  16              		.text
  17              	.Ltext0:
  18              		.cfi_sections	.debug_frame
  19              		.section	.text.prvHeapInit,"ax",%progbits
  20              		.align	2
  21              		.code	16
  22              		.thumb_func
  23              		.type	prvHeapInit, %function
  24              	prvHeapInit:
  25              	.LFB37:
  26              		.file 1 "..\\FreeRTOS\\portable\\MemMang\\heap_4.c"
   1:..\FreeRTOS\portable\MemMang/heap_4.c **** /*
   2:..\FreeRTOS\portable\MemMang/heap_4.c ****     FreeRTOS V9.0.0 - Copyright (C) 2016 Real Time Engineers Ltd.
   3:..\FreeRTOS\portable\MemMang/heap_4.c ****     All rights reserved
   4:..\FreeRTOS\portable\MemMang/heap_4.c **** 
   5:..\FreeRTOS\portable\MemMang/heap_4.c ****     VISIT http://www.FreeRTOS.org TO ENSURE YOU ARE USING THE LATEST VERSION.
   6:..\FreeRTOS\portable\MemMang/heap_4.c **** 
   7:..\FreeRTOS\portable\MemMang/heap_4.c ****     This file is part of the FreeRTOS distribution.
   8:..\FreeRTOS\portable\MemMang/heap_4.c **** 
   9:..\FreeRTOS\portable\MemMang/heap_4.c ****     FreeRTOS is free software; you can redistribute it and/or modify it under
  10:..\FreeRTOS\portable\MemMang/heap_4.c ****     the terms of the GNU General Public License (version 2) as published by the
  11:..\FreeRTOS\portable\MemMang/heap_4.c ****     Free Software Foundation >>>> AND MODIFIED BY <<<< the FreeRTOS exception.
  12:..\FreeRTOS\portable\MemMang/heap_4.c **** 
  13:..\FreeRTOS\portable\MemMang/heap_4.c ****     ***************************************************************************
  14:..\FreeRTOS\portable\MemMang/heap_4.c ****     >>!   NOTE: The modification to the GPL is included to allow you to     !<<
  15:..\FreeRTOS\portable\MemMang/heap_4.c ****     >>!   distribute a combined work that includes FreeRTOS without being   !<<
  16:..\FreeRTOS\portable\MemMang/heap_4.c ****     >>!   obliged to provide the source code for proprietary components     !<<
  17:..\FreeRTOS\portable\MemMang/heap_4.c ****     >>!   outside of the FreeRTOS kernel.                                   !<<
  18:..\FreeRTOS\portable\MemMang/heap_4.c ****     ***************************************************************************
  19:..\FreeRTOS\portable\MemMang/heap_4.c **** 
  20:..\FreeRTOS\portable\MemMang/heap_4.c ****     FreeRTOS is distributed in the hope that it will be useful, but WITHOUT ANY
  21:..\FreeRTOS\portable\MemMang/heap_4.c ****     WARRANTY; without even the implied warranty of MERCHANTABILITY or FITNESS
  22:..\FreeRTOS\portable\MemMang/heap_4.c ****     FOR A PARTICULAR PURPOSE.  Full license text is available on the following
  23:..\FreeRTOS\portable\MemMang/heap_4.c ****     link: http://www.freertos.org/a00114.html
  24:..\FreeRTOS\portable\MemMang/heap_4.c **** 
  25:..\FreeRTOS\portable\MemMang/heap_4.c ****     ***************************************************************************
  26:..\FreeRTOS\portable\MemMang/heap_4.c ****      *                                                                       *
  27:..\FreeRTOS\portable\MemMang/heap_4.c ****      *    FreeRTOS provides completely free yet professionally developed,    *
  28:..\FreeRTOS\portable\MemMang/heap_4.c ****      *    robust, strictly quality controlled, supported, and cross          *
  29:..\FreeRTOS\portable\MemMang/heap_4.c ****      *    platform software that is more than just the market leader, it     *
  30:..\FreeRTOS\portable\MemMang/heap_4.c ****      *    is the industry's de facto standard.                               *
  31:..\FreeRTOS\portable\MemMang/heap_4.c ****      *                                                                       *
ARM GAS  C:\Users\Xwx47\AppData\Local\Temp\ccAJY2P3.s 			page 2


  32:..\FreeRTOS\portable\MemMang/heap_4.c ****      *    Help yourself get started quickly while simultaneously helping     *
  33:..\FreeRTOS\portable\MemMang/heap_4.c ****      *    to support the FreeRTOS project by purchasing a FreeRTOS           *
  34:..\FreeRTOS\portable\MemMang/heap_4.c ****      *    tutorial book, reference manual, or both:                          *
  35:..\FreeRTOS\portable\MemMang/heap_4.c ****      *    http://www.FreeRTOS.org/Documentation                              *
  36:..\FreeRTOS\portable\MemMang/heap_4.c ****      *                                                                       *
  37:..\FreeRTOS\portable\MemMang/heap_4.c ****     ***************************************************************************
  38:..\FreeRTOS\portable\MemMang/heap_4.c **** 
  39:..\FreeRTOS\portable\MemMang/heap_4.c ****     http://www.FreeRTOS.org/FAQHelp.html - Having a problem?  Start by reading
  40:..\FreeRTOS\portable\MemMang/heap_4.c ****     the FAQ page "My application does not run, what could be wrong?".  Have you
  41:..\FreeRTOS\portable\MemMang/heap_4.c ****     defined configASSERT()?
  42:..\FreeRTOS\portable\MemMang/heap_4.c **** 
  43:..\FreeRTOS\portable\MemMang/heap_4.c ****     http://www.FreeRTOS.org/support - In return for receiving this top quality
  44:..\FreeRTOS\portable\MemMang/heap_4.c ****     embedded software for free we request you assist our global community by
  45:..\FreeRTOS\portable\MemMang/heap_4.c ****     participating in the support forum.
  46:..\FreeRTOS\portable\MemMang/heap_4.c **** 
  47:..\FreeRTOS\portable\MemMang/heap_4.c ****     http://www.FreeRTOS.org/training - Investing in training allows your team to
  48:..\FreeRTOS\portable\MemMang/heap_4.c ****     be as productive as possible as early as possible.  Now you can receive
  49:..\FreeRTOS\portable\MemMang/heap_4.c ****     FreeRTOS training directly from Richard Barry, CEO of Real Time Engineers
  50:..\FreeRTOS\portable\MemMang/heap_4.c ****     Ltd, and the world's leading authority on the world's leading RTOS.
  51:..\FreeRTOS\portable\MemMang/heap_4.c **** 
  52:..\FreeRTOS\portable\MemMang/heap_4.c ****     http://www.FreeRTOS.org/plus - A selection of FreeRTOS ecosystem products,
  53:..\FreeRTOS\portable\MemMang/heap_4.c ****     including FreeRTOS+Trace - an indispensable productivity tool, a DOS
  54:..\FreeRTOS\portable\MemMang/heap_4.c ****     compatible FAT file system, and our tiny thread aware UDP/IP stack.
  55:..\FreeRTOS\portable\MemMang/heap_4.c **** 
  56:..\FreeRTOS\portable\MemMang/heap_4.c ****     http://www.FreeRTOS.org/labs - Where new FreeRTOS products go to incubate.
  57:..\FreeRTOS\portable\MemMang/heap_4.c ****     Come and try FreeRTOS+TCP, our new open source TCP/IP stack for FreeRTOS.
  58:..\FreeRTOS\portable\MemMang/heap_4.c **** 
  59:..\FreeRTOS\portable\MemMang/heap_4.c ****     http://www.OpenRTOS.com - Real Time Engineers ltd. license FreeRTOS to High
  60:..\FreeRTOS\portable\MemMang/heap_4.c ****     Integrity Systems ltd. to sell under the OpenRTOS brand.  Low cost OpenRTOS
  61:..\FreeRTOS\portable\MemMang/heap_4.c ****     licenses offer ticketed support, indemnification and commercial middleware.
  62:..\FreeRTOS\portable\MemMang/heap_4.c **** 
  63:..\FreeRTOS\portable\MemMang/heap_4.c ****     http://www.SafeRTOS.com - High Integrity Systems also provide a safety
  64:..\FreeRTOS\portable\MemMang/heap_4.c ****     engineered and independently SIL3 certified version for use in safety and
  65:..\FreeRTOS\portable\MemMang/heap_4.c ****     mission critical applications that require provable dependability.
  66:..\FreeRTOS\portable\MemMang/heap_4.c **** 
  67:..\FreeRTOS\portable\MemMang/heap_4.c ****     1 tab == 4 spaces!
  68:..\FreeRTOS\portable\MemMang/heap_4.c **** */
  69:..\FreeRTOS\portable\MemMang/heap_4.c **** 
  70:..\FreeRTOS\portable\MemMang/heap_4.c **** /*
  71:..\FreeRTOS\portable\MemMang/heap_4.c ****  * A sample implementation of pvPortMalloc() and vPortFree() that combines
  72:..\FreeRTOS\portable\MemMang/heap_4.c ****  * (coalescences) adjacent memory blocks as they are freed, and in so doing
  73:..\FreeRTOS\portable\MemMang/heap_4.c ****  * limits memory fragmentation.
  74:..\FreeRTOS\portable\MemMang/heap_4.c ****  *
  75:..\FreeRTOS\portable\MemMang/heap_4.c ****  * See heap_1.c, heap_2.c and heap_3.c for alternative implementations, and the
  76:..\FreeRTOS\portable\MemMang/heap_4.c ****  * memory management pages of http://www.FreeRTOS.org for more information.
  77:..\FreeRTOS\portable\MemMang/heap_4.c ****  */
  78:..\FreeRTOS\portable\MemMang/heap_4.c **** #include <stdlib.h>
  79:..\FreeRTOS\portable\MemMang/heap_4.c **** 
  80:..\FreeRTOS\portable\MemMang/heap_4.c **** /* Defining MPU_WRAPPERS_INCLUDED_FROM_API_FILE prevents task.h from redefining
  81:..\FreeRTOS\portable\MemMang/heap_4.c **** all the API functions to use the MPU wrappers.  That should only be done when
  82:..\FreeRTOS\portable\MemMang/heap_4.c **** task.h is included from an application file. */
  83:..\FreeRTOS\portable\MemMang/heap_4.c **** #define MPU_WRAPPERS_INCLUDED_FROM_API_FILE
  84:..\FreeRTOS\portable\MemMang/heap_4.c **** 
  85:..\FreeRTOS\portable\MemMang/heap_4.c **** #include "FreeRTOS.h"
  86:..\FreeRTOS\portable\MemMang/heap_4.c **** #include "task.h"
  87:..\FreeRTOS\portable\MemMang/heap_4.c **** 
  88:..\FreeRTOS\portable\MemMang/heap_4.c **** #undef MPU_WRAPPERS_INCLUDED_FROM_API_FILE
ARM GAS  C:\Users\Xwx47\AppData\Local\Temp\ccAJY2P3.s 			page 3


  89:..\FreeRTOS\portable\MemMang/heap_4.c **** 
  90:..\FreeRTOS\portable\MemMang/heap_4.c **** #if( configSUPPORT_DYNAMIC_ALLOCATION == 0 )
  91:..\FreeRTOS\portable\MemMang/heap_4.c **** 	#error This file must not be used if configSUPPORT_DYNAMIC_ALLOCATION is 0
  92:..\FreeRTOS\portable\MemMang/heap_4.c **** #endif
  93:..\FreeRTOS\portable\MemMang/heap_4.c **** 
  94:..\FreeRTOS\portable\MemMang/heap_4.c **** /* Block sizes must not get too small. */
  95:..\FreeRTOS\portable\MemMang/heap_4.c **** #define heapMINIMUM_BLOCK_SIZE	( ( size_t ) ( xHeapStructSize << 1 ) )
  96:..\FreeRTOS\portable\MemMang/heap_4.c **** 
  97:..\FreeRTOS\portable\MemMang/heap_4.c **** /* Assumes 8bit bytes! */
  98:..\FreeRTOS\portable\MemMang/heap_4.c **** #define heapBITS_PER_BYTE		( ( size_t ) 8 )
  99:..\FreeRTOS\portable\MemMang/heap_4.c **** 
 100:..\FreeRTOS\portable\MemMang/heap_4.c **** /* Allocate the memory for the heap. */
 101:..\FreeRTOS\portable\MemMang/heap_4.c **** #if( configAPPLICATION_ALLOCATED_HEAP == 1 )
 102:..\FreeRTOS\portable\MemMang/heap_4.c **** 	/* The application writer has already defined the array used for the RTOS
 103:..\FreeRTOS\portable\MemMang/heap_4.c **** 	heap - probably so it can be placed in a special segment or address. */
 104:..\FreeRTOS\portable\MemMang/heap_4.c **** 	extern uint8_t ucHeap[ configTOTAL_HEAP_SIZE ];
 105:..\FreeRTOS\portable\MemMang/heap_4.c **** #else
 106:..\FreeRTOS\portable\MemMang/heap_4.c **** 	static uint8_t ucHeap[ configTOTAL_HEAP_SIZE ];
 107:..\FreeRTOS\portable\MemMang/heap_4.c **** #endif /* configAPPLICATION_ALLOCATED_HEAP */
 108:..\FreeRTOS\portable\MemMang/heap_4.c **** 
 109:..\FreeRTOS\portable\MemMang/heap_4.c **** /* Define the linked list structure.  This is used to link free blocks in order
 110:..\FreeRTOS\portable\MemMang/heap_4.c **** of their memory address. */
 111:..\FreeRTOS\portable\MemMang/heap_4.c **** typedef struct A_BLOCK_LINK
 112:..\FreeRTOS\portable\MemMang/heap_4.c **** {
 113:..\FreeRTOS\portable\MemMang/heap_4.c **** 	struct A_BLOCK_LINK *pxNextFreeBlock;	/*<< The next free block in the list. */
 114:..\FreeRTOS\portable\MemMang/heap_4.c **** 	size_t xBlockSize;						/*<< The size of the free block. */
 115:..\FreeRTOS\portable\MemMang/heap_4.c **** } BlockLink_t;
 116:..\FreeRTOS\portable\MemMang/heap_4.c **** 
 117:..\FreeRTOS\portable\MemMang/heap_4.c **** /*-----------------------------------------------------------*/
 118:..\FreeRTOS\portable\MemMang/heap_4.c **** 
 119:..\FreeRTOS\portable\MemMang/heap_4.c **** /*
 120:..\FreeRTOS\portable\MemMang/heap_4.c ****  * Inserts a block of memory that is being freed into the correct position in
 121:..\FreeRTOS\portable\MemMang/heap_4.c ****  * the list of free memory blocks.  The block being freed will be merged with
 122:..\FreeRTOS\portable\MemMang/heap_4.c ****  * the block in front it and/or the block behind it if the memory blocks are
 123:..\FreeRTOS\portable\MemMang/heap_4.c ****  * adjacent to each other.
 124:..\FreeRTOS\portable\MemMang/heap_4.c ****  */
 125:..\FreeRTOS\portable\MemMang/heap_4.c **** static void prvInsertBlockIntoFreeList( BlockLink_t *pxBlockToInsert );
 126:..\FreeRTOS\portable\MemMang/heap_4.c **** 
 127:..\FreeRTOS\portable\MemMang/heap_4.c **** /*
 128:..\FreeRTOS\portable\MemMang/heap_4.c ****  * Called automatically to setup the required heap structures the first time
 129:..\FreeRTOS\portable\MemMang/heap_4.c ****  * pvPortMalloc() is called.
 130:..\FreeRTOS\portable\MemMang/heap_4.c ****  */
 131:..\FreeRTOS\portable\MemMang/heap_4.c **** static void prvHeapInit( void );
 132:..\FreeRTOS\portable\MemMang/heap_4.c **** 
 133:..\FreeRTOS\portable\MemMang/heap_4.c **** /*-----------------------------------------------------------*/
 134:..\FreeRTOS\portable\MemMang/heap_4.c **** 
 135:..\FreeRTOS\portable\MemMang/heap_4.c **** /* The size of the structure placed at the beginning of each allocated memory
 136:..\FreeRTOS\portable\MemMang/heap_4.c **** block must by correctly byte aligned. */
 137:..\FreeRTOS\portable\MemMang/heap_4.c **** static const size_t xHeapStructSize	= ( sizeof( BlockLink_t ) + ( ( size_t ) ( portBYTE_ALIGNMENT -
 138:..\FreeRTOS\portable\MemMang/heap_4.c **** 
 139:..\FreeRTOS\portable\MemMang/heap_4.c **** /* Create a couple of list links to mark the start and end of the list. */
 140:..\FreeRTOS\portable\MemMang/heap_4.c **** static BlockLink_t xStart, *pxEnd = NULL;
 141:..\FreeRTOS\portable\MemMang/heap_4.c **** 
 142:..\FreeRTOS\portable\MemMang/heap_4.c **** /* Keeps track of the number of free bytes remaining, but says nothing about
 143:..\FreeRTOS\portable\MemMang/heap_4.c **** fragmentation. */
 144:..\FreeRTOS\portable\MemMang/heap_4.c **** static size_t xFreeBytesRemaining = 0U;
 145:..\FreeRTOS\portable\MemMang/heap_4.c **** static size_t xMinimumEverFreeBytesRemaining = 0U;
ARM GAS  C:\Users\Xwx47\AppData\Local\Temp\ccAJY2P3.s 			page 4


 146:..\FreeRTOS\portable\MemMang/heap_4.c **** 
 147:..\FreeRTOS\portable\MemMang/heap_4.c **** /* Gets set to the top bit of an size_t type.  When this bit in the xBlockSize
 148:..\FreeRTOS\portable\MemMang/heap_4.c **** member of an BlockLink_t structure is set then the block belongs to the
 149:..\FreeRTOS\portable\MemMang/heap_4.c **** application.  When the bit is free the block is still part of the free heap
 150:..\FreeRTOS\portable\MemMang/heap_4.c **** space. */
 151:..\FreeRTOS\portable\MemMang/heap_4.c **** static size_t xBlockAllocatedBit = 0;
 152:..\FreeRTOS\portable\MemMang/heap_4.c **** 
 153:..\FreeRTOS\portable\MemMang/heap_4.c **** /*-----------------------------------------------------------*/
 154:..\FreeRTOS\portable\MemMang/heap_4.c **** 
 155:..\FreeRTOS\portable\MemMang/heap_4.c **** void *pvPortMalloc( size_t xWantedSize )
 156:..\FreeRTOS\portable\MemMang/heap_4.c **** {
 157:..\FreeRTOS\portable\MemMang/heap_4.c **** BlockLink_t *pxBlock, *pxPreviousBlock, *pxNewBlockLink;
 158:..\FreeRTOS\portable\MemMang/heap_4.c **** void *pvReturn = NULL;
 159:..\FreeRTOS\portable\MemMang/heap_4.c **** 
 160:..\FreeRTOS\portable\MemMang/heap_4.c **** 	vTaskSuspendAll();
 161:..\FreeRTOS\portable\MemMang/heap_4.c **** 	{
 162:..\FreeRTOS\portable\MemMang/heap_4.c **** 		/* If this is the first call to malloc then the heap will require
 163:..\FreeRTOS\portable\MemMang/heap_4.c **** 		initialisation to setup the list of free blocks. */
 164:..\FreeRTOS\portable\MemMang/heap_4.c **** 		if( pxEnd == NULL )
 165:..\FreeRTOS\portable\MemMang/heap_4.c **** 		{
 166:..\FreeRTOS\portable\MemMang/heap_4.c **** 			prvHeapInit();
 167:..\FreeRTOS\portable\MemMang/heap_4.c **** 		}
 168:..\FreeRTOS\portable\MemMang/heap_4.c **** 		else
 169:..\FreeRTOS\portable\MemMang/heap_4.c **** 		{
 170:..\FreeRTOS\portable\MemMang/heap_4.c **** 			mtCOVERAGE_TEST_MARKER();
 171:..\FreeRTOS\portable\MemMang/heap_4.c **** 		}
 172:..\FreeRTOS\portable\MemMang/heap_4.c **** 
 173:..\FreeRTOS\portable\MemMang/heap_4.c **** 		/* Check the requested block size is not so large that the top bit is
 174:..\FreeRTOS\portable\MemMang/heap_4.c **** 		set.  The top bit of the block size member of the BlockLink_t structure
 175:..\FreeRTOS\portable\MemMang/heap_4.c **** 		is used to determine who owns the block - the application or the
 176:..\FreeRTOS\portable\MemMang/heap_4.c **** 		kernel, so it must be free. */
 177:..\FreeRTOS\portable\MemMang/heap_4.c **** 		if( ( xWantedSize & xBlockAllocatedBit ) == 0 )
 178:..\FreeRTOS\portable\MemMang/heap_4.c **** 		{
 179:..\FreeRTOS\portable\MemMang/heap_4.c **** 			/* The wanted size is increased so it can contain a BlockLink_t
 180:..\FreeRTOS\portable\MemMang/heap_4.c **** 			structure in addition to the requested amount of bytes. */
 181:..\FreeRTOS\portable\MemMang/heap_4.c **** 			if( xWantedSize > 0 )
 182:..\FreeRTOS\portable\MemMang/heap_4.c **** 			{
 183:..\FreeRTOS\portable\MemMang/heap_4.c **** 				xWantedSize += xHeapStructSize;
 184:..\FreeRTOS\portable\MemMang/heap_4.c **** 
 185:..\FreeRTOS\portable\MemMang/heap_4.c **** 				/* Ensure that blocks are always aligned to the required number
 186:..\FreeRTOS\portable\MemMang/heap_4.c **** 				of bytes. */
 187:..\FreeRTOS\portable\MemMang/heap_4.c **** 				if( ( xWantedSize & portBYTE_ALIGNMENT_MASK ) != 0x00 )
 188:..\FreeRTOS\portable\MemMang/heap_4.c **** 				{
 189:..\FreeRTOS\portable\MemMang/heap_4.c **** 					/* Byte alignment required. */
 190:..\FreeRTOS\portable\MemMang/heap_4.c **** 					xWantedSize += ( portBYTE_ALIGNMENT - ( xWantedSize & portBYTE_ALIGNMENT_MASK ) );
 191:..\FreeRTOS\portable\MemMang/heap_4.c **** 					configASSERT( ( xWantedSize & portBYTE_ALIGNMENT_MASK ) == 0 );
 192:..\FreeRTOS\portable\MemMang/heap_4.c **** 				}
 193:..\FreeRTOS\portable\MemMang/heap_4.c **** 				else
 194:..\FreeRTOS\portable\MemMang/heap_4.c **** 				{
 195:..\FreeRTOS\portable\MemMang/heap_4.c **** 					mtCOVERAGE_TEST_MARKER();
 196:..\FreeRTOS\portable\MemMang/heap_4.c **** 				}
 197:..\FreeRTOS\portable\MemMang/heap_4.c **** 			}
 198:..\FreeRTOS\portable\MemMang/heap_4.c **** 			else
 199:..\FreeRTOS\portable\MemMang/heap_4.c **** 			{
 200:..\FreeRTOS\portable\MemMang/heap_4.c **** 				mtCOVERAGE_TEST_MARKER();
 201:..\FreeRTOS\portable\MemMang/heap_4.c **** 			}
 202:..\FreeRTOS\portable\MemMang/heap_4.c **** 
ARM GAS  C:\Users\Xwx47\AppData\Local\Temp\ccAJY2P3.s 			page 5


 203:..\FreeRTOS\portable\MemMang/heap_4.c **** 			if( ( xWantedSize > 0 ) && ( xWantedSize <= xFreeBytesRemaining ) )
 204:..\FreeRTOS\portable\MemMang/heap_4.c **** 			{
 205:..\FreeRTOS\portable\MemMang/heap_4.c **** 				/* Traverse the list from the start	(lowest address) block until
 206:..\FreeRTOS\portable\MemMang/heap_4.c **** 				one	of adequate size is found. */
 207:..\FreeRTOS\portable\MemMang/heap_4.c **** 				pxPreviousBlock = &xStart;
 208:..\FreeRTOS\portable\MemMang/heap_4.c **** 				pxBlock = xStart.pxNextFreeBlock;
 209:..\FreeRTOS\portable\MemMang/heap_4.c **** 				while( ( pxBlock->xBlockSize < xWantedSize ) && ( pxBlock->pxNextFreeBlock != NULL ) )
 210:..\FreeRTOS\portable\MemMang/heap_4.c **** 				{
 211:..\FreeRTOS\portable\MemMang/heap_4.c **** 					pxPreviousBlock = pxBlock;
 212:..\FreeRTOS\portable\MemMang/heap_4.c **** 					pxBlock = pxBlock->pxNextFreeBlock;
 213:..\FreeRTOS\portable\MemMang/heap_4.c **** 				}
 214:..\FreeRTOS\portable\MemMang/heap_4.c **** 
 215:..\FreeRTOS\portable\MemMang/heap_4.c **** 				/* If the end marker was reached then a block of adequate size
 216:..\FreeRTOS\portable\MemMang/heap_4.c **** 				was	not found. */
 217:..\FreeRTOS\portable\MemMang/heap_4.c **** 				if( pxBlock != pxEnd )
 218:..\FreeRTOS\portable\MemMang/heap_4.c **** 				{
 219:..\FreeRTOS\portable\MemMang/heap_4.c **** 					/* Return the memory space pointed to - jumping over the
 220:..\FreeRTOS\portable\MemMang/heap_4.c **** 					BlockLink_t structure at its start. */
 221:..\FreeRTOS\portable\MemMang/heap_4.c **** 					pvReturn = ( void * ) ( ( ( uint8_t * ) pxPreviousBlock->pxNextFreeBlock ) + xHeapStructSize )
 222:..\FreeRTOS\portable\MemMang/heap_4.c **** 
 223:..\FreeRTOS\portable\MemMang/heap_4.c **** 					/* This block is being returned for use so must be taken out
 224:..\FreeRTOS\portable\MemMang/heap_4.c **** 					of the list of free blocks. */
 225:..\FreeRTOS\portable\MemMang/heap_4.c **** 					pxPreviousBlock->pxNextFreeBlock = pxBlock->pxNextFreeBlock;
 226:..\FreeRTOS\portable\MemMang/heap_4.c **** 
 227:..\FreeRTOS\portable\MemMang/heap_4.c **** 					/* If the block is larger than required it can be split into
 228:..\FreeRTOS\portable\MemMang/heap_4.c **** 					two. */
 229:..\FreeRTOS\portable\MemMang/heap_4.c **** 					if( ( pxBlock->xBlockSize - xWantedSize ) > heapMINIMUM_BLOCK_SIZE )
 230:..\FreeRTOS\portable\MemMang/heap_4.c **** 					{
 231:..\FreeRTOS\portable\MemMang/heap_4.c **** 						/* This block is to be split into two.  Create a new
 232:..\FreeRTOS\portable\MemMang/heap_4.c **** 						block following the number of bytes requested. The void
 233:..\FreeRTOS\portable\MemMang/heap_4.c **** 						cast is used to prevent byte alignment warnings from the
 234:..\FreeRTOS\portable\MemMang/heap_4.c **** 						compiler. */
 235:..\FreeRTOS\portable\MemMang/heap_4.c **** 						pxNewBlockLink = ( void * ) ( ( ( uint8_t * ) pxBlock ) + xWantedSize );
 236:..\FreeRTOS\portable\MemMang/heap_4.c **** 						configASSERT( ( ( ( size_t ) pxNewBlockLink ) & portBYTE_ALIGNMENT_MASK ) == 0 );
 237:..\FreeRTOS\portable\MemMang/heap_4.c **** 
 238:..\FreeRTOS\portable\MemMang/heap_4.c **** 						/* Calculate the sizes of two blocks split from the
 239:..\FreeRTOS\portable\MemMang/heap_4.c **** 						single block. */
 240:..\FreeRTOS\portable\MemMang/heap_4.c **** 						pxNewBlockLink->xBlockSize = pxBlock->xBlockSize - xWantedSize;
 241:..\FreeRTOS\portable\MemMang/heap_4.c **** 						pxBlock->xBlockSize = xWantedSize;
 242:..\FreeRTOS\portable\MemMang/heap_4.c **** 
 243:..\FreeRTOS\portable\MemMang/heap_4.c **** 						/* Insert the new block into the list of free blocks. */
 244:..\FreeRTOS\portable\MemMang/heap_4.c **** 						prvInsertBlockIntoFreeList( pxNewBlockLink );
 245:..\FreeRTOS\portable\MemMang/heap_4.c **** 					}
 246:..\FreeRTOS\portable\MemMang/heap_4.c **** 					else
 247:..\FreeRTOS\portable\MemMang/heap_4.c **** 					{
 248:..\FreeRTOS\portable\MemMang/heap_4.c **** 						mtCOVERAGE_TEST_MARKER();
 249:..\FreeRTOS\portable\MemMang/heap_4.c **** 					}
 250:..\FreeRTOS\portable\MemMang/heap_4.c **** 
 251:..\FreeRTOS\portable\MemMang/heap_4.c **** 					xFreeBytesRemaining -= pxBlock->xBlockSize;
 252:..\FreeRTOS\portable\MemMang/heap_4.c **** 
 253:..\FreeRTOS\portable\MemMang/heap_4.c **** 					if( xFreeBytesRemaining < xMinimumEverFreeBytesRemaining )
 254:..\FreeRTOS\portable\MemMang/heap_4.c **** 					{
 255:..\FreeRTOS\portable\MemMang/heap_4.c **** 						xMinimumEverFreeBytesRemaining = xFreeBytesRemaining;
 256:..\FreeRTOS\portable\MemMang/heap_4.c **** 					}
 257:..\FreeRTOS\portable\MemMang/heap_4.c **** 					else
 258:..\FreeRTOS\portable\MemMang/heap_4.c **** 					{
 259:..\FreeRTOS\portable\MemMang/heap_4.c **** 						mtCOVERAGE_TEST_MARKER();
ARM GAS  C:\Users\Xwx47\AppData\Local\Temp\ccAJY2P3.s 			page 6


 260:..\FreeRTOS\portable\MemMang/heap_4.c **** 					}
 261:..\FreeRTOS\portable\MemMang/heap_4.c **** 
 262:..\FreeRTOS\portable\MemMang/heap_4.c **** 					/* The block is being returned - it is allocated and owned
 263:..\FreeRTOS\portable\MemMang/heap_4.c **** 					by the application and has no "next" block. */
 264:..\FreeRTOS\portable\MemMang/heap_4.c **** 					pxBlock->xBlockSize |= xBlockAllocatedBit;
 265:..\FreeRTOS\portable\MemMang/heap_4.c **** 					pxBlock->pxNextFreeBlock = NULL;
 266:..\FreeRTOS\portable\MemMang/heap_4.c **** 				}
 267:..\FreeRTOS\portable\MemMang/heap_4.c **** 				else
 268:..\FreeRTOS\portable\MemMang/heap_4.c **** 				{
 269:..\FreeRTOS\portable\MemMang/heap_4.c **** 					mtCOVERAGE_TEST_MARKER();
 270:..\FreeRTOS\portable\MemMang/heap_4.c **** 				}
 271:..\FreeRTOS\portable\MemMang/heap_4.c **** 			}
 272:..\FreeRTOS\portable\MemMang/heap_4.c **** 			else
 273:..\FreeRTOS\portable\MemMang/heap_4.c **** 			{
 274:..\FreeRTOS\portable\MemMang/heap_4.c **** 				mtCOVERAGE_TEST_MARKER();
 275:..\FreeRTOS\portable\MemMang/heap_4.c **** 			}
 276:..\FreeRTOS\portable\MemMang/heap_4.c **** 		}
 277:..\FreeRTOS\portable\MemMang/heap_4.c **** 		else
 278:..\FreeRTOS\portable\MemMang/heap_4.c **** 		{
 279:..\FreeRTOS\portable\MemMang/heap_4.c **** 			mtCOVERAGE_TEST_MARKER();
 280:..\FreeRTOS\portable\MemMang/heap_4.c **** 		}
 281:..\FreeRTOS\portable\MemMang/heap_4.c **** 
 282:..\FreeRTOS\portable\MemMang/heap_4.c **** 		traceMALLOC( pvReturn, xWantedSize );
 283:..\FreeRTOS\portable\MemMang/heap_4.c **** 	}
 284:..\FreeRTOS\portable\MemMang/heap_4.c **** 	( void ) xTaskResumeAll();
 285:..\FreeRTOS\portable\MemMang/heap_4.c **** 
 286:..\FreeRTOS\portable\MemMang/heap_4.c **** 	#if( configUSE_MALLOC_FAILED_HOOK == 1 )
 287:..\FreeRTOS\portable\MemMang/heap_4.c **** 	{
 288:..\FreeRTOS\portable\MemMang/heap_4.c **** 		if( pvReturn == NULL )
 289:..\FreeRTOS\portable\MemMang/heap_4.c **** 		{
 290:..\FreeRTOS\portable\MemMang/heap_4.c **** 			extern void vApplicationMallocFailedHook( void );
 291:..\FreeRTOS\portable\MemMang/heap_4.c **** 			vApplicationMallocFailedHook();
 292:..\FreeRTOS\portable\MemMang/heap_4.c **** 		}
 293:..\FreeRTOS\portable\MemMang/heap_4.c **** 		else
 294:..\FreeRTOS\portable\MemMang/heap_4.c **** 		{
 295:..\FreeRTOS\portable\MemMang/heap_4.c **** 			mtCOVERAGE_TEST_MARKER();
 296:..\FreeRTOS\portable\MemMang/heap_4.c **** 		}
 297:..\FreeRTOS\portable\MemMang/heap_4.c **** 	}
 298:..\FreeRTOS\portable\MemMang/heap_4.c **** 	#endif
 299:..\FreeRTOS\portable\MemMang/heap_4.c **** 
 300:..\FreeRTOS\portable\MemMang/heap_4.c **** 	configASSERT( ( ( ( size_t ) pvReturn ) & ( size_t ) portBYTE_ALIGNMENT_MASK ) == 0 );
 301:..\FreeRTOS\portable\MemMang/heap_4.c **** 	return pvReturn;
 302:..\FreeRTOS\portable\MemMang/heap_4.c **** }
 303:..\FreeRTOS\portable\MemMang/heap_4.c **** /*-----------------------------------------------------------*/
 304:..\FreeRTOS\portable\MemMang/heap_4.c **** 
 305:..\FreeRTOS\portable\MemMang/heap_4.c **** void vPortFree( void *pv )
 306:..\FreeRTOS\portable\MemMang/heap_4.c **** {
 307:..\FreeRTOS\portable\MemMang/heap_4.c **** uint8_t *puc = ( uint8_t * ) pv;
 308:..\FreeRTOS\portable\MemMang/heap_4.c **** BlockLink_t *pxLink;
 309:..\FreeRTOS\portable\MemMang/heap_4.c **** 
 310:..\FreeRTOS\portable\MemMang/heap_4.c **** 	if( pv != NULL )
 311:..\FreeRTOS\portable\MemMang/heap_4.c **** 	{
 312:..\FreeRTOS\portable\MemMang/heap_4.c **** 		/* The memory being freed will have an BlockLink_t structure immediately
 313:..\FreeRTOS\portable\MemMang/heap_4.c **** 		before it. */
 314:..\FreeRTOS\portable\MemMang/heap_4.c **** 		puc -= xHeapStructSize;
 315:..\FreeRTOS\portable\MemMang/heap_4.c **** 
 316:..\FreeRTOS\portable\MemMang/heap_4.c **** 		/* This casting is to keep the compiler from issuing warnings. */
ARM GAS  C:\Users\Xwx47\AppData\Local\Temp\ccAJY2P3.s 			page 7


 317:..\FreeRTOS\portable\MemMang/heap_4.c **** 		pxLink = ( void * ) puc;
 318:..\FreeRTOS\portable\MemMang/heap_4.c **** 
 319:..\FreeRTOS\portable\MemMang/heap_4.c **** 		/* Check the block is actually allocated. */
 320:..\FreeRTOS\portable\MemMang/heap_4.c **** 		configASSERT( ( pxLink->xBlockSize & xBlockAllocatedBit ) != 0 );
 321:..\FreeRTOS\portable\MemMang/heap_4.c **** 		configASSERT( pxLink->pxNextFreeBlock == NULL );
 322:..\FreeRTOS\portable\MemMang/heap_4.c **** 
 323:..\FreeRTOS\portable\MemMang/heap_4.c **** 		if( ( pxLink->xBlockSize & xBlockAllocatedBit ) != 0 )
 324:..\FreeRTOS\portable\MemMang/heap_4.c **** 		{
 325:..\FreeRTOS\portable\MemMang/heap_4.c **** 			if( pxLink->pxNextFreeBlock == NULL )
 326:..\FreeRTOS\portable\MemMang/heap_4.c **** 			{
 327:..\FreeRTOS\portable\MemMang/heap_4.c **** 				/* The block is being returned to the heap - it is no longer
 328:..\FreeRTOS\portable\MemMang/heap_4.c **** 				allocated. */
 329:..\FreeRTOS\portable\MemMang/heap_4.c **** 				pxLink->xBlockSize &= ~xBlockAllocatedBit;
 330:..\FreeRTOS\portable\MemMang/heap_4.c **** 
 331:..\FreeRTOS\portable\MemMang/heap_4.c **** 				vTaskSuspendAll();
 332:..\FreeRTOS\portable\MemMang/heap_4.c **** 				{
 333:..\FreeRTOS\portable\MemMang/heap_4.c **** 					/* Add this block to the list of free blocks. */
 334:..\FreeRTOS\portable\MemMang/heap_4.c **** 					xFreeBytesRemaining += pxLink->xBlockSize;
 335:..\FreeRTOS\portable\MemMang/heap_4.c **** 					traceFREE( pv, pxLink->xBlockSize );
 336:..\FreeRTOS\portable\MemMang/heap_4.c **** 					prvInsertBlockIntoFreeList( ( ( BlockLink_t * ) pxLink ) );
 337:..\FreeRTOS\portable\MemMang/heap_4.c **** 				}
 338:..\FreeRTOS\portable\MemMang/heap_4.c **** 				( void ) xTaskResumeAll();
 339:..\FreeRTOS\portable\MemMang/heap_4.c **** 			}
 340:..\FreeRTOS\portable\MemMang/heap_4.c **** 			else
 341:..\FreeRTOS\portable\MemMang/heap_4.c **** 			{
 342:..\FreeRTOS\portable\MemMang/heap_4.c **** 				mtCOVERAGE_TEST_MARKER();
 343:..\FreeRTOS\portable\MemMang/heap_4.c **** 			}
 344:..\FreeRTOS\portable\MemMang/heap_4.c **** 		}
 345:..\FreeRTOS\portable\MemMang/heap_4.c **** 		else
 346:..\FreeRTOS\portable\MemMang/heap_4.c **** 		{
 347:..\FreeRTOS\portable\MemMang/heap_4.c **** 			mtCOVERAGE_TEST_MARKER();
 348:..\FreeRTOS\portable\MemMang/heap_4.c **** 		}
 349:..\FreeRTOS\portable\MemMang/heap_4.c **** 	}
 350:..\FreeRTOS\portable\MemMang/heap_4.c **** }
 351:..\FreeRTOS\portable\MemMang/heap_4.c **** /*-----------------------------------------------------------*/
 352:..\FreeRTOS\portable\MemMang/heap_4.c **** 
 353:..\FreeRTOS\portable\MemMang/heap_4.c **** size_t xPortGetFreeHeapSize( void )
 354:..\FreeRTOS\portable\MemMang/heap_4.c **** {
 355:..\FreeRTOS\portable\MemMang/heap_4.c **** 	return xFreeBytesRemaining;
 356:..\FreeRTOS\portable\MemMang/heap_4.c **** }
 357:..\FreeRTOS\portable\MemMang/heap_4.c **** /*-----------------------------------------------------------*/
 358:..\FreeRTOS\portable\MemMang/heap_4.c **** 
 359:..\FreeRTOS\portable\MemMang/heap_4.c **** size_t xPortGetMinimumEverFreeHeapSize( void )
 360:..\FreeRTOS\portable\MemMang/heap_4.c **** {
 361:..\FreeRTOS\portable\MemMang/heap_4.c **** 	return xMinimumEverFreeBytesRemaining;
 362:..\FreeRTOS\portable\MemMang/heap_4.c **** }
 363:..\FreeRTOS\portable\MemMang/heap_4.c **** /*-----------------------------------------------------------*/
 364:..\FreeRTOS\portable\MemMang/heap_4.c **** 
 365:..\FreeRTOS\portable\MemMang/heap_4.c **** void vPortInitialiseBlocks( void )
 366:..\FreeRTOS\portable\MemMang/heap_4.c **** {
 367:..\FreeRTOS\portable\MemMang/heap_4.c **** 	/* This just exists to keep the linker quiet. */
 368:..\FreeRTOS\portable\MemMang/heap_4.c **** }
 369:..\FreeRTOS\portable\MemMang/heap_4.c **** /*-----------------------------------------------------------*/
 370:..\FreeRTOS\portable\MemMang/heap_4.c **** 
 371:..\FreeRTOS\portable\MemMang/heap_4.c **** static void prvHeapInit( void )
 372:..\FreeRTOS\portable\MemMang/heap_4.c **** {
  27              		.loc 1 372 0
ARM GAS  C:\Users\Xwx47\AppData\Local\Temp\ccAJY2P3.s 			page 8


  28              		.cfi_startproc
  29              		@ args = 0, pretend = 0, frame = 0
  30              		@ frame_needed = 0, uses_anonymous_args = 0
  31 0000 10B5     		push	{r4, lr}
  32              		.cfi_def_cfa_offset 8
  33              		.cfi_offset 4, -8
  34              		.cfi_offset 14, -4
  35              	.LVL0:
 373:..\FreeRTOS\portable\MemMang/heap_4.c **** BlockLink_t *pxFirstFreeBlock;
 374:..\FreeRTOS\portable\MemMang/heap_4.c **** uint8_t *pucAlignedHeap;
 375:..\FreeRTOS\portable\MemMang/heap_4.c **** size_t uxAddress;
 376:..\FreeRTOS\portable\MemMang/heap_4.c **** size_t xTotalHeapSize = configTOTAL_HEAP_SIZE;
 377:..\FreeRTOS\portable\MemMang/heap_4.c **** 
 378:..\FreeRTOS\portable\MemMang/heap_4.c **** 	/* Ensure the heap starts on a correctly aligned boundary. */
 379:..\FreeRTOS\portable\MemMang/heap_4.c **** 	uxAddress = ( size_t ) ucHeap;
  36              		.loc 1 379 0
  37 0002 114A     		ldr	r2, .L4
  38              	.LVL1:
 380:..\FreeRTOS\portable\MemMang/heap_4.c **** 
 381:..\FreeRTOS\portable\MemMang/heap_4.c **** 	if( ( uxAddress & portBYTE_ALIGNMENT_MASK ) != 0 )
  39              		.loc 1 381 0
  40 0004 5307     		lsls	r3, r2, #29
  41 0006 08D0     		beq	.L3
 382:..\FreeRTOS\portable\MemMang/heap_4.c **** 	{
 383:..\FreeRTOS\portable\MemMang/heap_4.c **** 		uxAddress += ( portBYTE_ALIGNMENT - 1 );
  42              		.loc 1 383 0
  43 0008 D11D     		adds	r1, r2, #7
  44              	.LVL2:
 384:..\FreeRTOS\portable\MemMang/heap_4.c **** 		uxAddress &= ~( ( size_t ) portBYTE_ALIGNMENT_MASK );
  45              		.loc 1 384 0
  46 000a 0723     		movs	r3, #7
  47 000c 9943     		bics	r1, r3
  48              	.LVL3:
 385:..\FreeRTOS\portable\MemMang/heap_4.c **** 		xTotalHeapSize -= uxAddress - ( size_t ) ucHeap;
  49              		.loc 1 385 0
  50 000e 8023     		movs	r3, #128
  51 0010 DB00     		lsls	r3, r3, #3
  52 0012 5B1A     		subs	r3, r3, r1
  53 0014 9B18     		adds	r3, r3, r2
  54              	.LVL4:
 384:..\FreeRTOS\portable\MemMang/heap_4.c **** 		uxAddress &= ~( ( size_t ) portBYTE_ALIGNMENT_MASK );
  55              		.loc 1 384 0
  56 0016 0A00     		movs	r2, r1
  57 0018 01E0     		b	.L2
  58              	.LVL5:
  59              	.L3:
 376:..\FreeRTOS\portable\MemMang/heap_4.c **** 
  60              		.loc 1 376 0
  61 001a 8023     		movs	r3, #128
  62 001c DB00     		lsls	r3, r3, #3
  63              	.LVL6:
  64              	.L2:
 386:..\FreeRTOS\portable\MemMang/heap_4.c **** 	}
 387:..\FreeRTOS\portable\MemMang/heap_4.c **** 
 388:..\FreeRTOS\portable\MemMang/heap_4.c **** 	pucAlignedHeap = ( uint8_t * ) uxAddress;
 389:..\FreeRTOS\portable\MemMang/heap_4.c **** 
 390:..\FreeRTOS\portable\MemMang/heap_4.c **** 	/* xStart is used to hold a pointer to the first item in the list of free
ARM GAS  C:\Users\Xwx47\AppData\Local\Temp\ccAJY2P3.s 			page 9


 391:..\FreeRTOS\portable\MemMang/heap_4.c **** 	blocks.  The void cast is used to prevent compiler warnings. */
 392:..\FreeRTOS\portable\MemMang/heap_4.c **** 	xStart.pxNextFreeBlock = ( void * ) pucAlignedHeap;
  65              		.loc 1 392 0
  66 001e 0B49     		ldr	r1, .L4+4
  67 0020 0A60     		str	r2, [r1]
 393:..\FreeRTOS\portable\MemMang/heap_4.c **** 	xStart.xBlockSize = ( size_t ) 0;
  68              		.loc 1 393 0
  69 0022 0020     		movs	r0, #0
  70 0024 4860     		str	r0, [r1, #4]
 394:..\FreeRTOS\portable\MemMang/heap_4.c **** 
 395:..\FreeRTOS\portable\MemMang/heap_4.c **** 	/* pxEnd is used to mark the end of the list of free blocks and is inserted
 396:..\FreeRTOS\portable\MemMang/heap_4.c **** 	at the end of the heap space. */
 397:..\FreeRTOS\portable\MemMang/heap_4.c **** 	uxAddress = ( ( size_t ) pucAlignedHeap ) + xTotalHeapSize;
  71              		.loc 1 397 0
  72 0026 D318     		adds	r3, r2, r3
  73              	.LVL7:
 398:..\FreeRTOS\portable\MemMang/heap_4.c **** 	uxAddress -= xHeapStructSize;
  74              		.loc 1 398 0
  75 0028 083B     		subs	r3, r3, #8
  76              	.LVL8:
 399:..\FreeRTOS\portable\MemMang/heap_4.c **** 	uxAddress &= ~( ( size_t ) portBYTE_ALIGNMENT_MASK );
  77              		.loc 1 399 0
  78 002a 0724     		movs	r4, #7
  79 002c A343     		bics	r3, r4
  80              	.LVL9:
 400:..\FreeRTOS\portable\MemMang/heap_4.c **** 	pxEnd = ( void * ) uxAddress;
  81              		.loc 1 400 0
  82 002e 8B60     		str	r3, [r1, #8]
 401:..\FreeRTOS\portable\MemMang/heap_4.c **** 	pxEnd->xBlockSize = 0;
  83              		.loc 1 401 0
  84 0030 5860     		str	r0, [r3, #4]
 402:..\FreeRTOS\portable\MemMang/heap_4.c **** 	pxEnd->pxNextFreeBlock = NULL;
  85              		.loc 1 402 0
  86 0032 1860     		str	r0, [r3]
  87              	.LVL10:
 403:..\FreeRTOS\portable\MemMang/heap_4.c **** 
 404:..\FreeRTOS\portable\MemMang/heap_4.c **** 	/* To start with there is a single free block that is sized to take up the
 405:..\FreeRTOS\portable\MemMang/heap_4.c **** 	entire heap space, minus the space taken by pxEnd. */
 406:..\FreeRTOS\portable\MemMang/heap_4.c **** 	pxFirstFreeBlock = ( void * ) pucAlignedHeap;
 407:..\FreeRTOS\portable\MemMang/heap_4.c **** 	pxFirstFreeBlock->xBlockSize = uxAddress - ( size_t ) pxFirstFreeBlock;
  88              		.loc 1 407 0
  89 0034 981A     		subs	r0, r3, r2
  90 0036 5060     		str	r0, [r2, #4]
 408:..\FreeRTOS\portable\MemMang/heap_4.c **** 	pxFirstFreeBlock->pxNextFreeBlock = pxEnd;
  91              		.loc 1 408 0
  92 0038 1360     		str	r3, [r2]
 409:..\FreeRTOS\portable\MemMang/heap_4.c **** 
 410:..\FreeRTOS\portable\MemMang/heap_4.c **** 	/* Only one block exists - and it covers the entire usable heap space. */
 411:..\FreeRTOS\portable\MemMang/heap_4.c **** 	xMinimumEverFreeBytesRemaining = pxFirstFreeBlock->xBlockSize;
  93              		.loc 1 411 0
  94 003a C860     		str	r0, [r1, #12]
 412:..\FreeRTOS\portable\MemMang/heap_4.c **** 	xFreeBytesRemaining = pxFirstFreeBlock->xBlockSize;
  95              		.loc 1 412 0
  96 003c 0861     		str	r0, [r1, #16]
 413:..\FreeRTOS\portable\MemMang/heap_4.c **** 
 414:..\FreeRTOS\portable\MemMang/heap_4.c **** 	/* Work out the position of the top bit in a size_t variable. */
 415:..\FreeRTOS\portable\MemMang/heap_4.c **** 	xBlockAllocatedBit = ( ( size_t ) 1 ) << ( ( sizeof( size_t ) * heapBITS_PER_BYTE ) - 1 );
ARM GAS  C:\Users\Xwx47\AppData\Local\Temp\ccAJY2P3.s 			page 10


  97              		.loc 1 415 0
  98 003e 8023     		movs	r3, #128
  99              	.LVL11:
 100 0040 1B06     		lsls	r3, r3, #24
 101 0042 4B61     		str	r3, [r1, #20]
 416:..\FreeRTOS\portable\MemMang/heap_4.c **** }
 102              		.loc 1 416 0
 103              		@ sp needed
 104 0044 10BD     		pop	{r4, pc}
 105              	.L5:
 106 0046 C046     		.align	2
 107              	.L4:
 108 0048 00000000 		.word	.LANCHOR0
 109 004c 00040000 		.word	.LANCHOR1
 110              		.cfi_endproc
 111              	.LFE37:
 112              		.size	prvHeapInit, .-prvHeapInit
 113              		.section	.text.prvInsertBlockIntoFreeList,"ax",%progbits
 114              		.align	2
 115              		.code	16
 116              		.thumb_func
 117              		.type	prvInsertBlockIntoFreeList, %function
 118              	prvInsertBlockIntoFreeList:
 119              	.LFB38:
 417:..\FreeRTOS\portable\MemMang/heap_4.c **** /*-----------------------------------------------------------*/
 418:..\FreeRTOS\portable\MemMang/heap_4.c **** 
 419:..\FreeRTOS\portable\MemMang/heap_4.c **** static void prvInsertBlockIntoFreeList( BlockLink_t *pxBlockToInsert )
 420:..\FreeRTOS\portable\MemMang/heap_4.c **** {
 120              		.loc 1 420 0
 121              		.cfi_startproc
 122              		@ args = 0, pretend = 0, frame = 0
 123              		@ frame_needed = 0, uses_anonymous_args = 0
 124              	.LVL12:
 125 0000 10B5     		push	{r4, lr}
 126              		.cfi_def_cfa_offset 8
 127              		.cfi_offset 4, -8
 128              		.cfi_offset 14, -4
 129              	.LVL13:
 421:..\FreeRTOS\portable\MemMang/heap_4.c **** BlockLink_t *pxIterator;
 422:..\FreeRTOS\portable\MemMang/heap_4.c **** uint8_t *puc;
 423:..\FreeRTOS\portable\MemMang/heap_4.c **** 
 424:..\FreeRTOS\portable\MemMang/heap_4.c **** 	/* Iterate through the list until a block is found that has a higher address
 425:..\FreeRTOS\portable\MemMang/heap_4.c **** 	than the block being inserted. */
 426:..\FreeRTOS\portable\MemMang/heap_4.c **** 	for( pxIterator = &xStart; pxIterator->pxNextFreeBlock < pxBlockToInsert; pxIterator = pxIterator-
 130              		.loc 1 426 0
 131 0002 124A     		ldr	r2, .L14
 132 0004 00E0     		b	.L7
 133              	.LVL14:
 134              	.L13:
 135 0006 1A00     		movs	r2, r3
 136              	.LVL15:
 137              	.L7:
 138              		.loc 1 426 0 is_stmt 0 discriminator 1
 139 0008 1368     		ldr	r3, [r2]
 140 000a 8342     		cmp	r3, r0
 141 000c FBD3     		bcc	.L13
 142              	.LVL16:
ARM GAS  C:\Users\Xwx47\AppData\Local\Temp\ccAJY2P3.s 			page 11


 427:..\FreeRTOS\portable\MemMang/heap_4.c **** 	{
 428:..\FreeRTOS\portable\MemMang/heap_4.c **** 		/* Nothing to do here, just iterate to the right position. */
 429:..\FreeRTOS\portable\MemMang/heap_4.c **** 	}
 430:..\FreeRTOS\portable\MemMang/heap_4.c **** 
 431:..\FreeRTOS\portable\MemMang/heap_4.c **** 	/* Do the block being inserted, and the block it is being inserted after
 432:..\FreeRTOS\portable\MemMang/heap_4.c **** 	make a contiguous block of memory? */
 433:..\FreeRTOS\portable\MemMang/heap_4.c **** 	puc = ( uint8_t * ) pxIterator;
 434:..\FreeRTOS\portable\MemMang/heap_4.c **** 	if( ( puc + pxIterator->xBlockSize ) == ( uint8_t * ) pxBlockToInsert )
 143              		.loc 1 434 0 is_stmt 1
 144 000e 5168     		ldr	r1, [r2, #4]
 145 0010 5418     		adds	r4, r2, r1
 146 0012 A042     		cmp	r0, r4
 147 0014 03D1     		bne	.L8
 435:..\FreeRTOS\portable\MemMang/heap_4.c **** 	{
 436:..\FreeRTOS\portable\MemMang/heap_4.c **** 		pxIterator->xBlockSize += pxBlockToInsert->xBlockSize;
 148              		.loc 1 436 0
 149 0016 4068     		ldr	r0, [r0, #4]
 150              	.LVL17:
 151 0018 0918     		adds	r1, r1, r0
 152 001a 5160     		str	r1, [r2, #4]
 153              	.LVL18:
 437:..\FreeRTOS\portable\MemMang/heap_4.c **** 		pxBlockToInsert = pxIterator;
 154              		.loc 1 437 0
 155 001c 1000     		movs	r0, r2
 156              	.LVL19:
 157              	.L8:
 438:..\FreeRTOS\portable\MemMang/heap_4.c **** 	}
 439:..\FreeRTOS\portable\MemMang/heap_4.c **** 	else
 440:..\FreeRTOS\portable\MemMang/heap_4.c **** 	{
 441:..\FreeRTOS\portable\MemMang/heap_4.c **** 		mtCOVERAGE_TEST_MARKER();
 442:..\FreeRTOS\portable\MemMang/heap_4.c **** 	}
 443:..\FreeRTOS\portable\MemMang/heap_4.c **** 
 444:..\FreeRTOS\portable\MemMang/heap_4.c **** 	/* Do the block being inserted, and the block it is being inserted before
 445:..\FreeRTOS\portable\MemMang/heap_4.c **** 	make a contiguous block of memory? */
 446:..\FreeRTOS\portable\MemMang/heap_4.c **** 	puc = ( uint8_t * ) pxBlockToInsert;
 447:..\FreeRTOS\portable\MemMang/heap_4.c **** 	if( ( puc + pxBlockToInsert->xBlockSize ) == ( uint8_t * ) pxIterator->pxNextFreeBlock )
 158              		.loc 1 447 0
 159 001e 4168     		ldr	r1, [r0, #4]
 160 0020 4418     		adds	r4, r0, r1
 161 0022 A342     		cmp	r3, r4
 162 0024 0CD1     		bne	.L9
 448:..\FreeRTOS\portable\MemMang/heap_4.c **** 	{
 449:..\FreeRTOS\portable\MemMang/heap_4.c **** 		if( pxIterator->pxNextFreeBlock != pxEnd )
 163              		.loc 1 449 0
 164 0026 094C     		ldr	r4, .L14
 165 0028 A468     		ldr	r4, [r4, #8]
 166 002a A342     		cmp	r3, r4
 167 002c 06D0     		beq	.L10
 450:..\FreeRTOS\portable\MemMang/heap_4.c **** 		{
 451:..\FreeRTOS\portable\MemMang/heap_4.c **** 			/* Form one big block from the two blocks. */
 452:..\FreeRTOS\portable\MemMang/heap_4.c **** 			pxBlockToInsert->xBlockSize += pxIterator->pxNextFreeBlock->xBlockSize;
 168              		.loc 1 452 0
 169 002e 5B68     		ldr	r3, [r3, #4]
 170 0030 C918     		adds	r1, r1, r3
 171 0032 4160     		str	r1, [r0, #4]
 453:..\FreeRTOS\portable\MemMang/heap_4.c **** 			pxBlockToInsert->pxNextFreeBlock = pxIterator->pxNextFreeBlock->pxNextFreeBlock;
 172              		.loc 1 453 0
ARM GAS  C:\Users\Xwx47\AppData\Local\Temp\ccAJY2P3.s 			page 12


 173 0034 1368     		ldr	r3, [r2]
 174 0036 1B68     		ldr	r3, [r3]
 175 0038 0360     		str	r3, [r0]
 176 003a 02E0     		b	.L11
 177              	.L10:
 454:..\FreeRTOS\portable\MemMang/heap_4.c **** 		}
 455:..\FreeRTOS\portable\MemMang/heap_4.c **** 		else
 456:..\FreeRTOS\portable\MemMang/heap_4.c **** 		{
 457:..\FreeRTOS\portable\MemMang/heap_4.c **** 			pxBlockToInsert->pxNextFreeBlock = pxEnd;
 178              		.loc 1 457 0
 179 003c 0460     		str	r4, [r0]
 180 003e 00E0     		b	.L11
 181              	.L9:
 458:..\FreeRTOS\portable\MemMang/heap_4.c **** 		}
 459:..\FreeRTOS\portable\MemMang/heap_4.c **** 	}
 460:..\FreeRTOS\portable\MemMang/heap_4.c **** 	else
 461:..\FreeRTOS\portable\MemMang/heap_4.c **** 	{
 462:..\FreeRTOS\portable\MemMang/heap_4.c **** 		pxBlockToInsert->pxNextFreeBlock = pxIterator->pxNextFreeBlock;
 182              		.loc 1 462 0
 183 0040 0360     		str	r3, [r0]
 184              	.L11:
 463:..\FreeRTOS\portable\MemMang/heap_4.c **** 	}
 464:..\FreeRTOS\portable\MemMang/heap_4.c **** 
 465:..\FreeRTOS\portable\MemMang/heap_4.c **** 	/* If the block being inserted plugged a gab, so was merged with the block
 466:..\FreeRTOS\portable\MemMang/heap_4.c **** 	before and the block after, then it's pxNextFreeBlock pointer will have
 467:..\FreeRTOS\portable\MemMang/heap_4.c **** 	already been set, and should not be set here as that would make it point
 468:..\FreeRTOS\portable\MemMang/heap_4.c **** 	to itself. */
 469:..\FreeRTOS\portable\MemMang/heap_4.c **** 	if( pxIterator != pxBlockToInsert )
 185              		.loc 1 469 0
 186 0042 9042     		cmp	r0, r2
 187 0044 00D0     		beq	.L6
 470:..\FreeRTOS\portable\MemMang/heap_4.c **** 	{
 471:..\FreeRTOS\portable\MemMang/heap_4.c **** 		pxIterator->pxNextFreeBlock = pxBlockToInsert;
 188              		.loc 1 471 0
 189 0046 1060     		str	r0, [r2]
 190              	.L6:
 472:..\FreeRTOS\portable\MemMang/heap_4.c **** 	}
 473:..\FreeRTOS\portable\MemMang/heap_4.c **** 	else
 474:..\FreeRTOS\portable\MemMang/heap_4.c **** 	{
 475:..\FreeRTOS\portable\MemMang/heap_4.c **** 		mtCOVERAGE_TEST_MARKER();
 476:..\FreeRTOS\portable\MemMang/heap_4.c **** 	}
 477:..\FreeRTOS\portable\MemMang/heap_4.c **** }
 191              		.loc 1 477 0
 192              		@ sp needed
 193 0048 10BD     		pop	{r4, pc}
 194              	.L15:
 195 004a C046     		.align	2
 196              	.L14:
 197 004c 00040000 		.word	.LANCHOR1
 198              		.cfi_endproc
 199              	.LFE38:
 200              		.size	prvInsertBlockIntoFreeList, .-prvInsertBlockIntoFreeList
 201              		.section	.text.pvPortMalloc,"ax",%progbits
 202              		.align	2
 203              		.global	pvPortMalloc
 204              		.code	16
 205              		.thumb_func
ARM GAS  C:\Users\Xwx47\AppData\Local\Temp\ccAJY2P3.s 			page 13


 206              		.type	pvPortMalloc, %function
 207              	pvPortMalloc:
 208              	.LFB32:
 156:..\FreeRTOS\portable\MemMang/heap_4.c **** BlockLink_t *pxBlock, *pxPreviousBlock, *pxNewBlockLink;
 209              		.loc 1 156 0
 210              		.cfi_startproc
 211              		@ args = 0, pretend = 0, frame = 0
 212              		@ frame_needed = 0, uses_anonymous_args = 0
 213              	.LVL20:
 214 0000 70B5     		push	{r4, r5, r6, lr}
 215              		.cfi_def_cfa_offset 16
 216              		.cfi_offset 4, -16
 217              		.cfi_offset 5, -12
 218              		.cfi_offset 6, -8
 219              		.cfi_offset 14, -4
 220 0002 0500     		movs	r5, r0
 221              	.LVL21:
 160:..\FreeRTOS\portable\MemMang/heap_4.c **** 	{
 222              		.loc 1 160 0
 223 0004 FFF7FEFF 		bl	vTaskSuspendAll
 224              	.LVL22:
 164:..\FreeRTOS\portable\MemMang/heap_4.c **** 		{
 225              		.loc 1 164 0
 226 0008 294B     		ldr	r3, .L30
 227 000a 9B68     		ldr	r3, [r3, #8]
 228 000c 002B     		cmp	r3, #0
 229 000e 01D1     		bne	.L17
 166:..\FreeRTOS\portable\MemMang/heap_4.c **** 		}
 230              		.loc 1 166 0
 231 0010 FFF7FEFF 		bl	prvHeapInit
 232              	.LVL23:
 233              	.L17:
 177:..\FreeRTOS\portable\MemMang/heap_4.c **** 		{
 234              		.loc 1 177 0
 235 0014 264B     		ldr	r3, .L30
 236 0016 5B69     		ldr	r3, [r3, #20]
 237 0018 2B42     		tst	r3, r5
 238 001a 3AD1     		bne	.L25
 181:..\FreeRTOS\portable\MemMang/heap_4.c **** 			{
 239              		.loc 1 181 0
 240 001c 002D     		cmp	r5, #0
 241 001e 05D0     		beq	.L19
 183:..\FreeRTOS\portable\MemMang/heap_4.c **** 
 242              		.loc 1 183 0
 243 0020 0835     		adds	r5, r5, #8
 244              	.LVL24:
 187:..\FreeRTOS\portable\MemMang/heap_4.c **** 				{
 245              		.loc 1 187 0
 246 0022 6B07     		lsls	r3, r5, #29
 247 0024 02D0     		beq	.L19
 190:..\FreeRTOS\portable\MemMang/heap_4.c **** 					configASSERT( ( xWantedSize & portBYTE_ALIGNMENT_MASK ) == 0 );
 248              		.loc 1 190 0
 249 0026 0723     		movs	r3, #7
 250 0028 9D43     		bics	r5, r3
 251              	.LVL25:
 252 002a 0835     		adds	r5, r5, #8
 253              	.LVL26:
ARM GAS  C:\Users\Xwx47\AppData\Local\Temp\ccAJY2P3.s 			page 14


 254              	.L19:
 203:..\FreeRTOS\portable\MemMang/heap_4.c **** 			{
 255              		.loc 1 203 0
 256 002c 002D     		cmp	r5, #0
 257 002e 32D0     		beq	.L26
 203:..\FreeRTOS\portable\MemMang/heap_4.c **** 			{
 258              		.loc 1 203 0 is_stmt 0 discriminator 1
 259 0030 1F4B     		ldr	r3, .L30
 260 0032 1B69     		ldr	r3, [r3, #16]
 261 0034 9D42     		cmp	r5, r3
 262 0036 30D8     		bhi	.L27
 263              	.LVL27:
 208:..\FreeRTOS\portable\MemMang/heap_4.c **** 				while( ( pxBlock->xBlockSize < xWantedSize ) && ( pxBlock->pxNextFreeBlock != NULL ) )
 264              		.loc 1 208 0 is_stmt 1
 265 0038 1D4A     		ldr	r2, .L30
 266 003a 1468     		ldr	r4, [r2]
 267              	.LVL28:
 209:..\FreeRTOS\portable\MemMang/heap_4.c **** 				{
 268              		.loc 1 209 0
 269 003c 01E0     		b	.L21
 270              	.LVL29:
 271              	.L28:
 211:..\FreeRTOS\portable\MemMang/heap_4.c **** 					pxBlock = pxBlock->pxNextFreeBlock;
 272              		.loc 1 211 0
 273 003e 2200     		movs	r2, r4
 274              	.LVL30:
 212:..\FreeRTOS\portable\MemMang/heap_4.c **** 				}
 275              		.loc 1 212 0
 276 0040 1C00     		movs	r4, r3
 277              	.LVL31:
 278              	.L21:
 209:..\FreeRTOS\portable\MemMang/heap_4.c **** 				{
 279              		.loc 1 209 0
 280 0042 6368     		ldr	r3, [r4, #4]
 281 0044 9D42     		cmp	r5, r3
 282 0046 02D9     		bls	.L20
 209:..\FreeRTOS\portable\MemMang/heap_4.c **** 				{
 283              		.loc 1 209 0 is_stmt 0 discriminator 1
 284 0048 2368     		ldr	r3, [r4]
 285 004a 002B     		cmp	r3, #0
 286 004c F7D1     		bne	.L28
 287              	.L20:
 217:..\FreeRTOS\portable\MemMang/heap_4.c **** 				{
 288              		.loc 1 217 0 is_stmt 1
 289 004e 184B     		ldr	r3, .L30
 290 0050 9B68     		ldr	r3, [r3, #8]
 291 0052 9C42     		cmp	r4, r3
 292 0054 23D0     		beq	.L29
 221:..\FreeRTOS\portable\MemMang/heap_4.c **** 
 293              		.loc 1 221 0
 294 0056 1668     		ldr	r6, [r2]
 295 0058 0836     		adds	r6, r6, #8
 296              	.LVL32:
 225:..\FreeRTOS\portable\MemMang/heap_4.c **** 
 297              		.loc 1 225 0
 298 005a 2368     		ldr	r3, [r4]
 299 005c 1360     		str	r3, [r2]
ARM GAS  C:\Users\Xwx47\AppData\Local\Temp\ccAJY2P3.s 			page 15


 229:..\FreeRTOS\portable\MemMang/heap_4.c **** 					{
 300              		.loc 1 229 0
 301 005e 6368     		ldr	r3, [r4, #4]
 302 0060 5B1B     		subs	r3, r3, r5
 303 0062 102B     		cmp	r3, #16
 304 0064 04D9     		bls	.L22
 235:..\FreeRTOS\portable\MemMang/heap_4.c **** 						configASSERT( ( ( ( size_t ) pxNewBlockLink ) & portBYTE_ALIGNMENT_MASK ) == 0 );
 305              		.loc 1 235 0
 306 0066 6019     		adds	r0, r4, r5
 307              	.LVL33:
 240:..\FreeRTOS\portable\MemMang/heap_4.c **** 						pxBlock->xBlockSize = xWantedSize;
 308              		.loc 1 240 0
 309 0068 4360     		str	r3, [r0, #4]
 241:..\FreeRTOS\portable\MemMang/heap_4.c **** 
 310              		.loc 1 241 0
 311 006a 6560     		str	r5, [r4, #4]
 244:..\FreeRTOS\portable\MemMang/heap_4.c **** 					}
 312              		.loc 1 244 0
 313 006c FFF7FEFF 		bl	prvInsertBlockIntoFreeList
 314              	.LVL34:
 315              	.L22:
 251:..\FreeRTOS\portable\MemMang/heap_4.c **** 
 316              		.loc 1 251 0
 317 0070 6268     		ldr	r2, [r4, #4]
 318 0072 0F49     		ldr	r1, .L30
 319 0074 0B69     		ldr	r3, [r1, #16]
 320 0076 9B1A     		subs	r3, r3, r2
 321 0078 0B61     		str	r3, [r1, #16]
 253:..\FreeRTOS\portable\MemMang/heap_4.c **** 					{
 322              		.loc 1 253 0
 323 007a C968     		ldr	r1, [r1, #12]
 324 007c 8B42     		cmp	r3, r1
 325 007e 01D2     		bcs	.L23
 255:..\FreeRTOS\portable\MemMang/heap_4.c **** 					}
 326              		.loc 1 255 0
 327 0080 0B49     		ldr	r1, .L30
 328 0082 CB60     		str	r3, [r1, #12]
 329              	.L23:
 264:..\FreeRTOS\portable\MemMang/heap_4.c **** 					pxBlock->pxNextFreeBlock = NULL;
 330              		.loc 1 264 0
 331 0084 0A4B     		ldr	r3, .L30
 332 0086 5B69     		ldr	r3, [r3, #20]
 333 0088 1A43     		orrs	r2, r3
 334 008a 6260     		str	r2, [r4, #4]
 265:..\FreeRTOS\portable\MemMang/heap_4.c **** 				}
 335              		.loc 1 265 0
 336 008c 0023     		movs	r3, #0
 337 008e 2360     		str	r3, [r4]
 338 0090 06E0     		b	.L18
 339              	.LVL35:
 340              	.L25:
 158:..\FreeRTOS\portable\MemMang/heap_4.c **** 
 341              		.loc 1 158 0
 342 0092 0026     		movs	r6, #0
 343 0094 04E0     		b	.L18
 344              	.L26:
 345 0096 0026     		movs	r6, #0
ARM GAS  C:\Users\Xwx47\AppData\Local\Temp\ccAJY2P3.s 			page 16


 346 0098 02E0     		b	.L18
 347              	.L27:
 348 009a 0026     		movs	r6, #0
 349 009c 00E0     		b	.L18
 350              	.LVL36:
 351              	.L29:
 352 009e 0026     		movs	r6, #0
 353              	.LVL37:
 354              	.L18:
 284:..\FreeRTOS\portable\MemMang/heap_4.c **** 
 355              		.loc 1 284 0
 356 00a0 FFF7FEFF 		bl	xTaskResumeAll
 357              	.LVL38:
 288:..\FreeRTOS\portable\MemMang/heap_4.c **** 		{
 358              		.loc 1 288 0
 359 00a4 002E     		cmp	r6, #0
 360 00a6 01D1     		bne	.L24
 361              	.LBB2:
 291:..\FreeRTOS\portable\MemMang/heap_4.c **** 		}
 362              		.loc 1 291 0
 363 00a8 FFF7FEFF 		bl	vApplicationMallocFailedHook
 364              	.LVL39:
 365              	.L24:
 366              	.LBE2:
 302:..\FreeRTOS\portable\MemMang/heap_4.c **** /*-----------------------------------------------------------*/
 367              		.loc 1 302 0
 368 00ac 3000     		movs	r0, r6
 369              		@ sp needed
 370              	.LVL40:
 371              	.LVL41:
 372 00ae 70BD     		pop	{r4, r5, r6, pc}
 373              	.L31:
 374              		.align	2
 375              	.L30:
 376 00b0 00040000 		.word	.LANCHOR1
 377              		.cfi_endproc
 378              	.LFE32:
 379              		.size	pvPortMalloc, .-pvPortMalloc
 380              		.section	.text.vPortFree,"ax",%progbits
 381              		.align	2
 382              		.global	vPortFree
 383              		.code	16
 384              		.thumb_func
 385              		.type	vPortFree, %function
 386              	vPortFree:
 387              	.LFB33:
 306:..\FreeRTOS\portable\MemMang/heap_4.c **** uint8_t *puc = ( uint8_t * ) pv;
 388              		.loc 1 306 0
 389              		.cfi_startproc
 390              		@ args = 0, pretend = 0, frame = 0
 391              		@ frame_needed = 0, uses_anonymous_args = 0
 392              	.LVL42:
 393 0000 70B5     		push	{r4, r5, r6, lr}
 394              		.cfi_def_cfa_offset 16
 395              		.cfi_offset 4, -16
 396              		.cfi_offset 5, -12
 397              		.cfi_offset 6, -8
ARM GAS  C:\Users\Xwx47\AppData\Local\Temp\ccAJY2P3.s 			page 17


 398              		.cfi_offset 14, -4
 399              	.LVL43:
 310:..\FreeRTOS\portable\MemMang/heap_4.c **** 	{
 400              		.loc 1 310 0
 401 0002 0028     		cmp	r0, #0
 402 0004 18D0     		beq	.L32
 314:..\FreeRTOS\portable\MemMang/heap_4.c **** 
 403              		.loc 1 314 0
 404 0006 0500     		movs	r5, r0
 405 0008 083D     		subs	r5, r5, #8
 406              	.LVL44:
 323:..\FreeRTOS\portable\MemMang/heap_4.c **** 		{
 407              		.loc 1 323 0
 408 000a 6B68     		ldr	r3, [r5, #4]
 409 000c 0B4A     		ldr	r2, .L34
 410 000e 5269     		ldr	r2, [r2, #20]
 411 0010 1A42     		tst	r2, r3
 412 0012 11D0     		beq	.L32
 325:..\FreeRTOS\portable\MemMang/heap_4.c **** 			{
 413              		.loc 1 325 0
 414 0014 2968     		ldr	r1, [r5]
 415 0016 0029     		cmp	r1, #0
 416 0018 0ED1     		bne	.L32
 329:..\FreeRTOS\portable\MemMang/heap_4.c **** 
 417              		.loc 1 329 0
 418 001a 9343     		bics	r3, r2
 419 001c 6B60     		str	r3, [r5, #4]
 331:..\FreeRTOS\portable\MemMang/heap_4.c **** 				{
 420              		.loc 1 331 0
 421 001e FFF7FEFF 		bl	vTaskSuspendAll
 422              	.LVL45:
 334:..\FreeRTOS\portable\MemMang/heap_4.c **** 					traceFREE( pv, pxLink->xBlockSize );
 423              		.loc 1 334 0
 424 0022 6B68     		ldr	r3, [r5, #4]
 425 0024 054A     		ldr	r2, .L34
 426 0026 1169     		ldr	r1, [r2, #16]
 427 0028 8C46     		mov	ip, r1
 428 002a 6344     		add	r3, r3, ip
 429 002c 1361     		str	r3, [r2, #16]
 336:..\FreeRTOS\portable\MemMang/heap_4.c **** 				}
 430              		.loc 1 336 0
 431 002e 2800     		movs	r0, r5
 432 0030 FFF7FEFF 		bl	prvInsertBlockIntoFreeList
 433              	.LVL46:
 338:..\FreeRTOS\portable\MemMang/heap_4.c **** 			}
 434              		.loc 1 338 0
 435 0034 FFF7FEFF 		bl	xTaskResumeAll
 436              	.LVL47:
 437              	.L32:
 350:..\FreeRTOS\portable\MemMang/heap_4.c **** /*-----------------------------------------------------------*/
 438              		.loc 1 350 0
 439              		@ sp needed
 440 0038 70BD     		pop	{r4, r5, r6, pc}
 441              	.L35:
 442 003a C046     		.align	2
 443              	.L34:
 444 003c 00040000 		.word	.LANCHOR1
ARM GAS  C:\Users\Xwx47\AppData\Local\Temp\ccAJY2P3.s 			page 18


 445              		.cfi_endproc
 446              	.LFE33:
 447              		.size	vPortFree, .-vPortFree
 448              		.section	.text.xPortGetFreeHeapSize,"ax",%progbits
 449              		.align	2
 450              		.global	xPortGetFreeHeapSize
 451              		.code	16
 452              		.thumb_func
 453              		.type	xPortGetFreeHeapSize, %function
 454              	xPortGetFreeHeapSize:
 455              	.LFB34:
 354:..\FreeRTOS\portable\MemMang/heap_4.c **** 	return xFreeBytesRemaining;
 456              		.loc 1 354 0
 457              		.cfi_startproc
 458              		@ args = 0, pretend = 0, frame = 0
 459              		@ frame_needed = 0, uses_anonymous_args = 0
 460              		@ link register save eliminated.
 355:..\FreeRTOS\portable\MemMang/heap_4.c **** }
 461              		.loc 1 355 0
 462 0000 014B     		ldr	r3, .L37
 463 0002 1869     		ldr	r0, [r3, #16]
 356:..\FreeRTOS\portable\MemMang/heap_4.c **** /*-----------------------------------------------------------*/
 464              		.loc 1 356 0
 465              		@ sp needed
 466 0004 7047     		bx	lr
 467              	.L38:
 468 0006 C046     		.align	2
 469              	.L37:
 470 0008 00040000 		.word	.LANCHOR1
 471              		.cfi_endproc
 472              	.LFE34:
 473              		.size	xPortGetFreeHeapSize, .-xPortGetFreeHeapSize
 474              		.section	.text.xPortGetMinimumEverFreeHeapSize,"ax",%progbits
 475              		.align	2
 476              		.global	xPortGetMinimumEverFreeHeapSize
 477              		.code	16
 478              		.thumb_func
 479              		.type	xPortGetMinimumEverFreeHeapSize, %function
 480              	xPortGetMinimumEverFreeHeapSize:
 481              	.LFB35:
 360:..\FreeRTOS\portable\MemMang/heap_4.c **** 	return xMinimumEverFreeBytesRemaining;
 482              		.loc 1 360 0
 483              		.cfi_startproc
 484              		@ args = 0, pretend = 0, frame = 0
 485              		@ frame_needed = 0, uses_anonymous_args = 0
 486              		@ link register save eliminated.
 361:..\FreeRTOS\portable\MemMang/heap_4.c **** }
 487              		.loc 1 361 0
 488 0000 014B     		ldr	r3, .L40
 489 0002 D868     		ldr	r0, [r3, #12]
 362:..\FreeRTOS\portable\MemMang/heap_4.c **** /*-----------------------------------------------------------*/
 490              		.loc 1 362 0
 491              		@ sp needed
 492 0004 7047     		bx	lr
 493              	.L41:
 494 0006 C046     		.align	2
 495              	.L40:
ARM GAS  C:\Users\Xwx47\AppData\Local\Temp\ccAJY2P3.s 			page 19


 496 0008 00040000 		.word	.LANCHOR1
 497              		.cfi_endproc
 498              	.LFE35:
 499              		.size	xPortGetMinimumEverFreeHeapSize, .-xPortGetMinimumEverFreeHeapSize
 500              		.section	.text.vPortInitialiseBlocks,"ax",%progbits
 501              		.align	2
 502              		.global	vPortInitialiseBlocks
 503              		.code	16
 504              		.thumb_func
 505              		.type	vPortInitialiseBlocks, %function
 506              	vPortInitialiseBlocks:
 507              	.LFB36:
 366:..\FreeRTOS\portable\MemMang/heap_4.c **** 	/* This just exists to keep the linker quiet. */
 508              		.loc 1 366 0
 509              		.cfi_startproc
 510              		@ args = 0, pretend = 0, frame = 0
 511              		@ frame_needed = 0, uses_anonymous_args = 0
 512              		@ link register save eliminated.
 368:..\FreeRTOS\portable\MemMang/heap_4.c **** /*-----------------------------------------------------------*/
 513              		.loc 1 368 0
 514              		@ sp needed
 515 0000 7047     		bx	lr
 516              		.cfi_endproc
 517              	.LFE36:
 518              		.size	vPortInitialiseBlocks, .-vPortInitialiseBlocks
 519 0002 C046     		.bss
 520              		.align	2
 521              		.set	.LANCHOR0,. + 0
 522              		.set	.LANCHOR1,. + 1024
 523              		.type	ucHeap, %object
 524              		.size	ucHeap, 1024
 525              	ucHeap:
 526 0000 00000000 		.space	1024
 526      00000000 
 526      00000000 
 526      00000000 
 526      00000000 
 527              		.type	xStart, %object
 528              		.size	xStart, 8
 529              	xStart:
 530 0400 00000000 		.space	8
 530      00000000 
 531              		.type	pxEnd, %object
 532              		.size	pxEnd, 4
 533              	pxEnd:
 534 0408 00000000 		.space	4
 535              		.type	xMinimumEverFreeBytesRemaining, %object
 536              		.size	xMinimumEverFreeBytesRemaining, 4
 537              	xMinimumEverFreeBytesRemaining:
 538 040c 00000000 		.space	4
 539              		.type	xFreeBytesRemaining, %object
 540              		.size	xFreeBytesRemaining, 4
 541              	xFreeBytesRemaining:
 542 0410 00000000 		.space	4
 543              		.type	xBlockAllocatedBit, %object
 544              		.size	xBlockAllocatedBit, 4
 545              	xBlockAllocatedBit:
ARM GAS  C:\Users\Xwx47\AppData\Local\Temp\ccAJY2P3.s 			page 20


 546 0414 00000000 		.space	4
 547              		.text
 548              	.Letext0:
 549              		.file 2 "c:\\program files (x86)\\cypress\\psoc creator\\4.1\\psoc creator\\import\\gnu\\arm\\5.4.
 550              		.file 3 "c:\\program files (x86)\\cypress\\psoc creator\\4.1\\psoc creator\\import\\gnu\\arm\\5.4.
 551              		.file 4 "c:\\program files (x86)\\cypress\\psoc creator\\4.1\\psoc creator\\import\\gnu\\arm\\5.4.
 552              		.file 5 "..\\FreeRTOS\\include/task.h"