ARM GAS  C:\Users\Xwx47\AppData\Local\Temp\cc8bysOg.s 			page 1


   1              		.syntax unified
   2              		.cpu cortex-m0
   3              		.fpu softvfp
   4              		.eabi_attribute 20, 1
   5              		.eabi_attribute 21, 1
   6              		.eabi_attribute 23, 3
   7              		.eabi_attribute 24, 1
   8              		.eabi_attribute 25, 1
   9              		.eabi_attribute 26, 1
  10              		.eabi_attribute 30, 1
  11              		.eabi_attribute 34, 0
  12              		.eabi_attribute 18, 4
  13              		.thumb
  14              		.syntax unified
  15              		.file	"cyfitter_cfg.c"
  16              		.text
  17              	.Ltext0:
  18              		.cfi_sections	.debug_frame
  19              		.section	.text.cfg_write_bytes32,"ax",%progbits
  20              		.align	2
  21              		.code	16
  22              		.thumb_func
  23              		.type	cfg_write_bytes32, %function
  24              	cfg_write_bytes32:
  25              	.LFB3:
  26              		.file 1 "Generated_Source\\PSoC4\\cyfitter_cfg.c"
   1:Generated_Source\PSoC4/cyfitter_cfg.c **** 
   2:Generated_Source\PSoC4/cyfitter_cfg.c **** /*******************************************************************************
   3:Generated_Source\PSoC4/cyfitter_cfg.c **** * File Name: cyfitter_cfg.c
   4:Generated_Source\PSoC4/cyfitter_cfg.c **** * 
   5:Generated_Source\PSoC4/cyfitter_cfg.c **** * PSoC Creator  4.1 Update 1
   6:Generated_Source\PSoC4/cyfitter_cfg.c **** *
   7:Generated_Source\PSoC4/cyfitter_cfg.c **** * Description:
   8:Generated_Source\PSoC4/cyfitter_cfg.c **** * This file contains device initialization code.
   9:Generated_Source\PSoC4/cyfitter_cfg.c **** * Except for the user defined sections in CyClockStartupError(), this file should not be modified.
  10:Generated_Source\PSoC4/cyfitter_cfg.c **** * This file is automatically generated by PSoC Creator.
  11:Generated_Source\PSoC4/cyfitter_cfg.c **** *
  12:Generated_Source\PSoC4/cyfitter_cfg.c **** ********************************************************************************
  13:Generated_Source\PSoC4/cyfitter_cfg.c **** * Copyright (c) 2007-2017 Cypress Semiconductor.  All rights reserved.
  14:Generated_Source\PSoC4/cyfitter_cfg.c **** * You may use this file only in accordance with the license, terms, conditions, 
  15:Generated_Source\PSoC4/cyfitter_cfg.c **** * disclaimers, and limitations in the end user license agreement accompanying 
  16:Generated_Source\PSoC4/cyfitter_cfg.c **** * the software package with which this file was provided.
  17:Generated_Source\PSoC4/cyfitter_cfg.c **** ********************************************************************************/
  18:Generated_Source\PSoC4/cyfitter_cfg.c **** 
  19:Generated_Source\PSoC4/cyfitter_cfg.c **** #include <string.h>
  20:Generated_Source\PSoC4/cyfitter_cfg.c **** #include "cytypes.h"
  21:Generated_Source\PSoC4/cyfitter_cfg.c **** #include "cydevice_trm.h"
  22:Generated_Source\PSoC4/cyfitter_cfg.c **** #include "cyfitter.h"
  23:Generated_Source\PSoC4/cyfitter_cfg.c **** #include "CyLib.h"
  24:Generated_Source\PSoC4/cyfitter_cfg.c **** #include "CyLFClk.h"
  25:Generated_Source\PSoC4/cyfitter_cfg.c **** #include "cyfitter_cfg.h"
  26:Generated_Source\PSoC4/cyfitter_cfg.c **** #include "cyapicallbacks.h"
  27:Generated_Source\PSoC4/cyfitter_cfg.c **** 
  28:Generated_Source\PSoC4/cyfitter_cfg.c **** 
  29:Generated_Source\PSoC4/cyfitter_cfg.c **** #if defined(__GNUC__) || defined(__ARMCC_VERSION)
  30:Generated_Source\PSoC4/cyfitter_cfg.c ****     #define CYPACKED 
  31:Generated_Source\PSoC4/cyfitter_cfg.c ****     #define CYPACKED_ATTR __attribute__ ((packed))
ARM GAS  C:\Users\Xwx47\AppData\Local\Temp\cc8bysOg.s 			page 2


  32:Generated_Source\PSoC4/cyfitter_cfg.c ****     #define CYALIGNED __attribute__ ((aligned))
  33:Generated_Source\PSoC4/cyfitter_cfg.c ****     #define CY_CFG_UNUSED __attribute__ ((unused))
  34:Generated_Source\PSoC4/cyfitter_cfg.c ****     #ifndef CY_CFG_SECTION
  35:Generated_Source\PSoC4/cyfitter_cfg.c ****         #define CY_CFG_SECTION __attribute__ ((section(".psocinit")))
  36:Generated_Source\PSoC4/cyfitter_cfg.c ****     #endif
  37:Generated_Source\PSoC4/cyfitter_cfg.c ****     
  38:Generated_Source\PSoC4/cyfitter_cfg.c ****     #if defined(__ARMCC_VERSION)
  39:Generated_Source\PSoC4/cyfitter_cfg.c ****         #define CY_CFG_MEMORY_BARRIER() __memory_changed()
  40:Generated_Source\PSoC4/cyfitter_cfg.c ****     #else
  41:Generated_Source\PSoC4/cyfitter_cfg.c ****         #define CY_CFG_MEMORY_BARRIER() __sync_synchronize()
  42:Generated_Source\PSoC4/cyfitter_cfg.c ****     #endif
  43:Generated_Source\PSoC4/cyfitter_cfg.c ****     
  44:Generated_Source\PSoC4/cyfitter_cfg.c **** #elif defined(__ICCARM__)
  45:Generated_Source\PSoC4/cyfitter_cfg.c ****     #include <intrinsics.h>
  46:Generated_Source\PSoC4/cyfitter_cfg.c **** 
  47:Generated_Source\PSoC4/cyfitter_cfg.c ****     #define CYPACKED __packed
  48:Generated_Source\PSoC4/cyfitter_cfg.c ****     #define CYPACKED_ATTR 
  49:Generated_Source\PSoC4/cyfitter_cfg.c ****     #define CYALIGNED _Pragma("data_alignment=4")
  50:Generated_Source\PSoC4/cyfitter_cfg.c ****     #define CY_CFG_UNUSED _Pragma("diag_suppress=Pe177")
  51:Generated_Source\PSoC4/cyfitter_cfg.c ****     #define CY_CFG_SECTION _Pragma("location=\".psocinit\"")
  52:Generated_Source\PSoC4/cyfitter_cfg.c ****     
  53:Generated_Source\PSoC4/cyfitter_cfg.c ****     #define CY_CFG_MEMORY_BARRIER() __DMB()
  54:Generated_Source\PSoC4/cyfitter_cfg.c ****     
  55:Generated_Source\PSoC4/cyfitter_cfg.c **** #else
  56:Generated_Source\PSoC4/cyfitter_cfg.c ****     #error Unsupported toolchain
  57:Generated_Source\PSoC4/cyfitter_cfg.c **** #endif
  58:Generated_Source\PSoC4/cyfitter_cfg.c **** 
  59:Generated_Source\PSoC4/cyfitter_cfg.c **** #ifndef CYCODE
  60:Generated_Source\PSoC4/cyfitter_cfg.c ****     #define CYCODE
  61:Generated_Source\PSoC4/cyfitter_cfg.c **** #endif
  62:Generated_Source\PSoC4/cyfitter_cfg.c **** #ifndef CYDATA
  63:Generated_Source\PSoC4/cyfitter_cfg.c ****     #define CYDATA
  64:Generated_Source\PSoC4/cyfitter_cfg.c **** #endif
  65:Generated_Source\PSoC4/cyfitter_cfg.c **** #ifndef CYFAR
  66:Generated_Source\PSoC4/cyfitter_cfg.c ****     #define CYFAR
  67:Generated_Source\PSoC4/cyfitter_cfg.c **** #endif
  68:Generated_Source\PSoC4/cyfitter_cfg.c **** #ifndef CYXDATA
  69:Generated_Source\PSoC4/cyfitter_cfg.c ****     #define CYXDATA
  70:Generated_Source\PSoC4/cyfitter_cfg.c **** #endif
  71:Generated_Source\PSoC4/cyfitter_cfg.c **** 
  72:Generated_Source\PSoC4/cyfitter_cfg.c **** 
  73:Generated_Source\PSoC4/cyfitter_cfg.c **** CY_CFG_UNUSED
  74:Generated_Source\PSoC4/cyfitter_cfg.c **** static void CYMEMZERO(void *s, size_t n);
  75:Generated_Source\PSoC4/cyfitter_cfg.c **** CY_CFG_UNUSED
  76:Generated_Source\PSoC4/cyfitter_cfg.c **** static void CYMEMZERO(void *s, size_t n)
  77:Generated_Source\PSoC4/cyfitter_cfg.c **** {
  78:Generated_Source\PSoC4/cyfitter_cfg.c **** 	(void)memset(s, 0, n);
  79:Generated_Source\PSoC4/cyfitter_cfg.c **** }
  80:Generated_Source\PSoC4/cyfitter_cfg.c **** CY_CFG_UNUSED
  81:Generated_Source\PSoC4/cyfitter_cfg.c **** static void CYCONFIGCPY(void *dest, const void *src, size_t n);
  82:Generated_Source\PSoC4/cyfitter_cfg.c **** CY_CFG_UNUSED
  83:Generated_Source\PSoC4/cyfitter_cfg.c **** static void CYCONFIGCPY(void *dest, const void *src, size_t n)
  84:Generated_Source\PSoC4/cyfitter_cfg.c **** {
  85:Generated_Source\PSoC4/cyfitter_cfg.c **** 	(void)memcpy(dest, src, n);
  86:Generated_Source\PSoC4/cyfitter_cfg.c **** }
  87:Generated_Source\PSoC4/cyfitter_cfg.c **** CY_CFG_UNUSED
  88:Generated_Source\PSoC4/cyfitter_cfg.c **** static void CYCONFIGCPYCODE(void *dest, const void *src, size_t n);
ARM GAS  C:\Users\Xwx47\AppData\Local\Temp\cc8bysOg.s 			page 3


  89:Generated_Source\PSoC4/cyfitter_cfg.c **** CY_CFG_UNUSED
  90:Generated_Source\PSoC4/cyfitter_cfg.c **** static void CYCONFIGCPYCODE(void *dest, const void *src, size_t n)
  91:Generated_Source\PSoC4/cyfitter_cfg.c **** {
  92:Generated_Source\PSoC4/cyfitter_cfg.c **** 	(void)memcpy(dest, src, n);
  93:Generated_Source\PSoC4/cyfitter_cfg.c **** }
  94:Generated_Source\PSoC4/cyfitter_cfg.c **** 
  95:Generated_Source\PSoC4/cyfitter_cfg.c **** 
  96:Generated_Source\PSoC4/cyfitter_cfg.c **** 
  97:Generated_Source\PSoC4/cyfitter_cfg.c **** 
  98:Generated_Source\PSoC4/cyfitter_cfg.c **** /* Clock startup error codes                                                   */
  99:Generated_Source\PSoC4/cyfitter_cfg.c **** #define CYCLOCKSTART_NO_ERROR    0u
 100:Generated_Source\PSoC4/cyfitter_cfg.c **** #define CYCLOCKSTART_XTAL_ERROR  1u
 101:Generated_Source\PSoC4/cyfitter_cfg.c **** #define CYCLOCKSTART_32KHZ_ERROR 2u
 102:Generated_Source\PSoC4/cyfitter_cfg.c **** #define CYCLOCKSTART_PLL_ERROR   3u
 103:Generated_Source\PSoC4/cyfitter_cfg.c **** #define CYCLOCKSTART_FLL_ERROR   4u
 104:Generated_Source\PSoC4/cyfitter_cfg.c **** 
 105:Generated_Source\PSoC4/cyfitter_cfg.c **** 
 106:Generated_Source\PSoC4/cyfitter_cfg.c **** #ifdef CY_NEED_CYCLOCKSTARTUPERROR
 107:Generated_Source\PSoC4/cyfitter_cfg.c **** /*******************************************************************************
 108:Generated_Source\PSoC4/cyfitter_cfg.c **** * Function Name: CyClockStartupError
 109:Generated_Source\PSoC4/cyfitter_cfg.c **** ********************************************************************************
 110:Generated_Source\PSoC4/cyfitter_cfg.c **** * Summary:
 111:Generated_Source\PSoC4/cyfitter_cfg.c **** *  If an error is encountered during clock configuration (crystal startup error,
 112:Generated_Source\PSoC4/cyfitter_cfg.c **** *  PLL lock error, etc.), the system will end up here.  Unless reimplemented by
 113:Generated_Source\PSoC4/cyfitter_cfg.c **** *  the customer, this function will stop in an infinite loop.
 114:Generated_Source\PSoC4/cyfitter_cfg.c **** *
 115:Generated_Source\PSoC4/cyfitter_cfg.c **** * Parameters:
 116:Generated_Source\PSoC4/cyfitter_cfg.c **** *   void
 117:Generated_Source\PSoC4/cyfitter_cfg.c **** *
 118:Generated_Source\PSoC4/cyfitter_cfg.c **** * Return:
 119:Generated_Source\PSoC4/cyfitter_cfg.c **** *   void
 120:Generated_Source\PSoC4/cyfitter_cfg.c **** *
 121:Generated_Source\PSoC4/cyfitter_cfg.c **** *******************************************************************************/
 122:Generated_Source\PSoC4/cyfitter_cfg.c **** CY_CFG_UNUSED
 123:Generated_Source\PSoC4/cyfitter_cfg.c **** static void CyClockStartupError(uint8 errorCode);
 124:Generated_Source\PSoC4/cyfitter_cfg.c **** CY_CFG_UNUSED
 125:Generated_Source\PSoC4/cyfitter_cfg.c **** static void CyClockStartupError(uint8 errorCode)
 126:Generated_Source\PSoC4/cyfitter_cfg.c **** {
 127:Generated_Source\PSoC4/cyfitter_cfg.c ****     /* To remove the compiler warning if errorCode not used. */
 128:Generated_Source\PSoC4/cyfitter_cfg.c **** #if defined(CY_PSOC3) && (CY_PSOC3)
 129:Generated_Source\PSoC4/cyfitter_cfg.c ****     errorCode = errorCode;
 130:Generated_Source\PSoC4/cyfitter_cfg.c **** #else
 131:Generated_Source\PSoC4/cyfitter_cfg.c ****     (void)errorCode;
 132:Generated_Source\PSoC4/cyfitter_cfg.c **** #endif /* CY_PSOC3 */
 133:Generated_Source\PSoC4/cyfitter_cfg.c **** 
 134:Generated_Source\PSoC4/cyfitter_cfg.c ****     /* If we have a clock startup error (bad MHz crystal, PLL lock, etc.),  */
 135:Generated_Source\PSoC4/cyfitter_cfg.c ****     /* we will end up here to allow the customer to implement something to  */
 136:Generated_Source\PSoC4/cyfitter_cfg.c ****     /* deal with the clock condition.                                       */
 137:Generated_Source\PSoC4/cyfitter_cfg.c **** 
 138:Generated_Source\PSoC4/cyfitter_cfg.c **** #ifdef CY_CFG_CLOCK_STARTUP_ERROR_CALLBACK
 139:Generated_Source\PSoC4/cyfitter_cfg.c ****     CY_CFG_Clock_Startup_ErrorCallback();
 140:Generated_Source\PSoC4/cyfitter_cfg.c **** #else
 141:Generated_Source\PSoC4/cyfitter_cfg.c ****     /*  If not using CY_CFG_CLOCK_STARTUP_ERROR_CALLBACK, place your clock startup code here. */
 142:Generated_Source\PSoC4/cyfitter_cfg.c ****     /* `#START CyClockStartupError` */
 143:Generated_Source\PSoC4/cyfitter_cfg.c **** 
 144:Generated_Source\PSoC4/cyfitter_cfg.c **** 
 145:Generated_Source\PSoC4/cyfitter_cfg.c **** 
ARM GAS  C:\Users\Xwx47\AppData\Local\Temp\cc8bysOg.s 			page 4


 146:Generated_Source\PSoC4/cyfitter_cfg.c ****     /* `#END` */
 147:Generated_Source\PSoC4/cyfitter_cfg.c **** 
 148:Generated_Source\PSoC4/cyfitter_cfg.c ****     while(1) {}
 149:Generated_Source\PSoC4/cyfitter_cfg.c **** #endif /* CY_CFG_CLOCK_STARTUP_ERROR_CALLBACK */
 150:Generated_Source\PSoC4/cyfitter_cfg.c **** }
 151:Generated_Source\PSoC4/cyfitter_cfg.c **** #endif
 152:Generated_Source\PSoC4/cyfitter_cfg.c **** 
 153:Generated_Source\PSoC4/cyfitter_cfg.c **** #define CY_CFG_BASE_ADDR_COUNT 8u
 154:Generated_Source\PSoC4/cyfitter_cfg.c **** CYPACKED typedef struct
 155:Generated_Source\PSoC4/cyfitter_cfg.c **** {
 156:Generated_Source\PSoC4/cyfitter_cfg.c **** 	uint8 offset;
 157:Generated_Source\PSoC4/cyfitter_cfg.c **** 	uint8 value;
 158:Generated_Source\PSoC4/cyfitter_cfg.c **** } CYPACKED_ATTR cy_cfg_addrvalue_t;
 159:Generated_Source\PSoC4/cyfitter_cfg.c **** 
 160:Generated_Source\PSoC4/cyfitter_cfg.c **** 
 161:Generated_Source\PSoC4/cyfitter_cfg.c **** 
 162:Generated_Source\PSoC4/cyfitter_cfg.c **** /*******************************************************************************
 163:Generated_Source\PSoC4/cyfitter_cfg.c **** * Function Name: cfg_write_bytes32
 164:Generated_Source\PSoC4/cyfitter_cfg.c **** ********************************************************************************
 165:Generated_Source\PSoC4/cyfitter_cfg.c **** * Summary:
 166:Generated_Source\PSoC4/cyfitter_cfg.c **** *  This function is used for setting up the chip configuration areas that
 167:Generated_Source\PSoC4/cyfitter_cfg.c **** *  contain relatively sparse data.
 168:Generated_Source\PSoC4/cyfitter_cfg.c **** *
 169:Generated_Source\PSoC4/cyfitter_cfg.c **** * Parameters:
 170:Generated_Source\PSoC4/cyfitter_cfg.c **** *   void
 171:Generated_Source\PSoC4/cyfitter_cfg.c **** *
 172:Generated_Source\PSoC4/cyfitter_cfg.c **** * Return:
 173:Generated_Source\PSoC4/cyfitter_cfg.c **** *   void
 174:Generated_Source\PSoC4/cyfitter_cfg.c **** *
 175:Generated_Source\PSoC4/cyfitter_cfg.c **** *******************************************************************************/
 176:Generated_Source\PSoC4/cyfitter_cfg.c **** static void cfg_write_bytes32(const uint32 addr_table[], const cy_cfg_addrvalue_t data_table[]);
 177:Generated_Source\PSoC4/cyfitter_cfg.c **** static void cfg_write_bytes32(const uint32 addr_table[], const cy_cfg_addrvalue_t data_table[])
 178:Generated_Source\PSoC4/cyfitter_cfg.c **** {
  27              		.loc 1 178 0
  28              		.cfi_startproc
  29              		@ args = 0, pretend = 0, frame = 0
  30              		@ frame_needed = 0, uses_anonymous_args = 0
  31              	.LVL0:
  32 0000 F0B5     		push	{r4, r5, r6, r7, lr}
  33              		.cfi_def_cfa_offset 20
  34              		.cfi_offset 4, -20
  35              		.cfi_offset 5, -16
  36              		.cfi_offset 6, -12
  37              		.cfi_offset 7, -8
  38              		.cfi_offset 14, -4
  39              	.LVL1:
 179:Generated_Source\PSoC4/cyfitter_cfg.c **** 	/* For 32-bit little-endian architectures */
 180:Generated_Source\PSoC4/cyfitter_cfg.c **** 	uint32 i, j = 0u;
  40              		.loc 1 180 0
  41 0002 0025     		movs	r5, #0
 181:Generated_Source\PSoC4/cyfitter_cfg.c **** 	for (i = 0u; i < CY_CFG_BASE_ADDR_COUNT; i++)
  42              		.loc 1 181 0
  43 0004 0027     		movs	r7, #0
  44 0006 11E0     		b	.L2
  45              	.LVL2:
  46              	.L5:
  47              	.LBB2:
ARM GAS  C:\Users\Xwx47\AppData\Local\Temp\cc8bysOg.s 			page 5


 182:Generated_Source\PSoC4/cyfitter_cfg.c **** 	{
 183:Generated_Source\PSoC4/cyfitter_cfg.c **** 		uint32 baseAddr = addr_table[i];
  48              		.loc 1 183 0
  49 0008 BB00     		lsls	r3, r7, #2
  50 000a C658     		ldr	r6, [r0, r3]
  51              	.LVL3:
 184:Generated_Source\PSoC4/cyfitter_cfg.c **** 		uint8 count = (uint8)baseAddr;
  52              		.loc 1 184 0
  53 000c F3B2     		uxtb	r3, r6
  54              	.LVL4:
 185:Generated_Source\PSoC4/cyfitter_cfg.c **** 		baseAddr &= 0xFFFFFF00u;
  55              		.loc 1 185 0
  56 000e FF22     		movs	r2, #255
  57 0010 9643     		bics	r6, r2
  58              	.LVL5:
 186:Generated_Source\PSoC4/cyfitter_cfg.c **** 		while (count != 0u)
  59              		.loc 1 186 0
  60 0012 08E0     		b	.L3
  61              	.L4:
 187:Generated_Source\PSoC4/cyfitter_cfg.c **** 		{
 188:Generated_Source\PSoC4/cyfitter_cfg.c **** 			CY_SET_REG8((void *)(baseAddr + data_table[j].offset), data_table[j].value);
  62              		.loc 1 188 0
  63 0014 6A00     		lsls	r2, r5, #1
  64 0016 8A18     		adds	r2, r1, r2
  65 0018 1478     		ldrb	r4, [r2]
  66 001a A419     		adds	r4, r4, r6
  67 001c 5278     		ldrb	r2, [r2, #1]
  68 001e 2270     		strb	r2, [r4]
 189:Generated_Source\PSoC4/cyfitter_cfg.c **** 			j++;
  69              		.loc 1 189 0
  70 0020 0135     		adds	r5, r5, #1
  71              	.LVL6:
 190:Generated_Source\PSoC4/cyfitter_cfg.c **** 			count--;
  72              		.loc 1 190 0
  73 0022 013B     		subs	r3, r3, #1
  74              	.LVL7:
  75 0024 DBB2     		uxtb	r3, r3
  76              	.LVL8:
  77              	.L3:
 186:Generated_Source\PSoC4/cyfitter_cfg.c **** 		{
  78              		.loc 1 186 0
  79 0026 002B     		cmp	r3, #0
  80 0028 F4D1     		bne	.L4
  81              	.LBE2:
 181:Generated_Source\PSoC4/cyfitter_cfg.c **** 	{
  82              		.loc 1 181 0 discriminator 2
  83 002a 0137     		adds	r7, r7, #1
  84              	.LVL9:
  85              	.L2:
 181:Generated_Source\PSoC4/cyfitter_cfg.c **** 	{
  86              		.loc 1 181 0 is_stmt 0 discriminator 1
  87 002c 072F     		cmp	r7, #7
  88 002e EBD9     		bls	.L5
 191:Generated_Source\PSoC4/cyfitter_cfg.c **** 		}
 192:Generated_Source\PSoC4/cyfitter_cfg.c **** 	}
 193:Generated_Source\PSoC4/cyfitter_cfg.c **** }
  89              		.loc 1 193 0 is_stmt 1
ARM GAS  C:\Users\Xwx47\AppData\Local\Temp\cc8bysOg.s 			page 6


  90              		@ sp needed
  91              	.LVL10:
  92              	.LVL11:
  93 0030 F0BD     		pop	{r4, r5, r6, r7, pc}
  94              		.cfi_endproc
  95              	.LFE3:
  96              		.size	cfg_write_bytes32, .-cfg_write_bytes32
  97 0032 C046     		.section	.text.CYMEMZERO,"ax",%progbits
  98              		.align	2
  99              		.code	16
 100              		.thumb_func
 101              		.type	CYMEMZERO, %function
 102              	CYMEMZERO:
 103              	.LFB0:
  77:Generated_Source\PSoC4/cyfitter_cfg.c **** 	(void)memset(s, 0, n);
 104              		.loc 1 77 0
 105              		.cfi_startproc
 106              		@ args = 0, pretend = 0, frame = 0
 107              		@ frame_needed = 0, uses_anonymous_args = 0
 108              	.LVL12:
 109 0000 10B5     		push	{r4, lr}
 110              		.cfi_def_cfa_offset 8
 111              		.cfi_offset 4, -8
 112              		.cfi_offset 14, -4
 113 0002 0A00     		movs	r2, r1
  78:Generated_Source\PSoC4/cyfitter_cfg.c **** }
 114              		.loc 1 78 0
 115 0004 0021     		movs	r1, #0
 116              	.LVL13:
 117 0006 FFF7FEFF 		bl	memset
 118              	.LVL14:
  79:Generated_Source\PSoC4/cyfitter_cfg.c **** CY_CFG_UNUSED
 119              		.loc 1 79 0
 120              		@ sp needed
 121 000a 10BD     		pop	{r4, pc}
 122              		.cfi_endproc
 123              	.LFE0:
 124              		.size	CYMEMZERO, .-CYMEMZERO
 125              		.section	.text.CYCONFIGCPYCODE,"ax",%progbits
 126              		.align	2
 127              		.code	16
 128              		.thumb_func
 129              		.type	CYCONFIGCPYCODE, %function
 130              	CYCONFIGCPYCODE:
 131              	.LFB2:
  91:Generated_Source\PSoC4/cyfitter_cfg.c **** 	(void)memcpy(dest, src, n);
 132              		.loc 1 91 0
 133              		.cfi_startproc
 134              		@ args = 0, pretend = 0, frame = 0
 135              		@ frame_needed = 0, uses_anonymous_args = 0
 136              	.LVL15:
 137 0000 10B5     		push	{r4, lr}
 138              		.cfi_def_cfa_offset 8
 139              		.cfi_offset 4, -8
 140              		.cfi_offset 14, -4
  92:Generated_Source\PSoC4/cyfitter_cfg.c **** }
 141              		.loc 1 92 0
ARM GAS  C:\Users\Xwx47\AppData\Local\Temp\cc8bysOg.s 			page 7


 142 0002 FFF7FEFF 		bl	memcpy
 143              	.LVL16:
  93:Generated_Source\PSoC4/cyfitter_cfg.c **** 
 144              		.loc 1 93 0
 145              		@ sp needed
 146 0006 10BD     		pop	{r4, pc}
 147              		.cfi_endproc
 148              	.LFE2:
 149              		.size	CYCONFIGCPYCODE, .-CYCONFIGCPYCODE
 150              		.section	.psocinit,"ax",%progbits
 151              		.align	2
 152              		.code	16
 153              		.thumb_func
 154              		.type	ClockSetup, %function
 155              	ClockSetup:
 156              	.LFB4:
 194:Generated_Source\PSoC4/cyfitter_cfg.c **** 
 195:Generated_Source\PSoC4/cyfitter_cfg.c **** 
 196:Generated_Source\PSoC4/cyfitter_cfg.c **** /*******************************************************************************
 197:Generated_Source\PSoC4/cyfitter_cfg.c **** * Function Name: ClockSetup
 198:Generated_Source\PSoC4/cyfitter_cfg.c **** ********************************************************************************
 199:Generated_Source\PSoC4/cyfitter_cfg.c **** *
 200:Generated_Source\PSoC4/cyfitter_cfg.c **** * Summary:
 201:Generated_Source\PSoC4/cyfitter_cfg.c **** *   Performs the initialization of all of the clocks in the device based on the
 202:Generated_Source\PSoC4/cyfitter_cfg.c **** *   settings in the Clock tab of the DWR.  This includes enabling the requested
 203:Generated_Source\PSoC4/cyfitter_cfg.c **** *   clocks and setting the necessary dividers to produce the desired frequency. 
 204:Generated_Source\PSoC4/cyfitter_cfg.c **** *
 205:Generated_Source\PSoC4/cyfitter_cfg.c **** * Parameters:
 206:Generated_Source\PSoC4/cyfitter_cfg.c **** *   void
 207:Generated_Source\PSoC4/cyfitter_cfg.c **** *
 208:Generated_Source\PSoC4/cyfitter_cfg.c **** * Return:
 209:Generated_Source\PSoC4/cyfitter_cfg.c **** *   void
 210:Generated_Source\PSoC4/cyfitter_cfg.c **** *
 211:Generated_Source\PSoC4/cyfitter_cfg.c **** *******************************************************************************/
 212:Generated_Source\PSoC4/cyfitter_cfg.c **** static void ClockSetup(void);
 213:Generated_Source\PSoC4/cyfitter_cfg.c **** CY_CFG_SECTION
 214:Generated_Source\PSoC4/cyfitter_cfg.c **** static void ClockSetup(void)
 215:Generated_Source\PSoC4/cyfitter_cfg.c **** {
 157              		.loc 1 215 0
 158              		.cfi_startproc
 159              		@ args = 0, pretend = 0, frame = 0
 160              		@ frame_needed = 0, uses_anonymous_args = 0
 161 0000 70B5     		push	{r4, r5, r6, lr}
 162              		.cfi_def_cfa_offset 16
 163              		.cfi_offset 4, -16
 164              		.cfi_offset 5, -12
 165              		.cfi_offset 6, -8
 166              		.cfi_offset 14, -4
 216:Generated_Source\PSoC4/cyfitter_cfg.c **** 	/* Enable HALF_EN before trimming for the flash accelerator. */
 217:Generated_Source\PSoC4/cyfitter_cfg.c **** 	CY_SET_REG32((void CYXDATA *)(CYREG_CLK_SELECT), (CY_GET_REG32((void *)CYREG_CLK_SELECT) | 0x00040
 167              		.loc 1 217 0
 168 0002 134C     		ldr	r4, .L9
 169 0004 2368     		ldr	r3, [r4]
 170 0006 8022     		movs	r2, #128
 171 0008 D202     		lsls	r2, r2, #11
 172 000a 1343     		orrs	r3, r2
 173 000c 2360     		str	r3, [r4]
ARM GAS  C:\Users\Xwx47\AppData\Local\Temp\cc8bysOg.s 			page 8


 218:Generated_Source\PSoC4/cyfitter_cfg.c **** 
 219:Generated_Source\PSoC4/cyfitter_cfg.c **** 	/* Setup and trim IMO based on desired frequency. */
 220:Generated_Source\PSoC4/cyfitter_cfg.c **** 	CySysClkWriteImoFreq(24u);
 174              		.loc 1 220 0
 175 000e 1820     		movs	r0, #24
 176 0010 FFF7FEFF 		bl	CySysClkWriteImoFreq
 177              	.LVL17:
 221:Generated_Source\PSoC4/cyfitter_cfg.c **** 
 222:Generated_Source\PSoC4/cyfitter_cfg.c **** 	/* Disable HALF_EN since it is not required at this IMO frequency. */
 223:Generated_Source\PSoC4/cyfitter_cfg.c **** 	CY_SET_REG32((void CYXDATA *)(CYREG_CLK_SELECT), (CY_GET_REG32((void *)CYREG_CLK_SELECT) & 0xFFFBF
 178              		.loc 1 223 0
 179 0014 2268     		ldr	r2, [r4]
 180 0016 0F4B     		ldr	r3, .L9+4
 181 0018 1340     		ands	r3, r2
 182 001a 2360     		str	r3, [r4]
 224:Generated_Source\PSoC4/cyfitter_cfg.c **** 	/* CYDEV_CLK_ILO_CONFIG Starting address: CYDEV_CLK_ILO_CONFIG */
 225:Generated_Source\PSoC4/cyfitter_cfg.c **** 	CY_SET_REG32((void *)(CYREG_CLK_ILO_CONFIG), 0x80000006u);
 183              		.loc 1 225 0
 184 001c 0E4A     		ldr	r2, .L9+8
 185 001e 0F4B     		ldr	r3, .L9+12
 186 0020 1A60     		str	r2, [r3]
 226:Generated_Source\PSoC4/cyfitter_cfg.c **** 
 227:Generated_Source\PSoC4/cyfitter_cfg.c **** 
 228:Generated_Source\PSoC4/cyfitter_cfg.c **** 	/* CYDEV_CLK_SELECT00 Starting address: CYDEV_CLK_SELECT00 */
 229:Generated_Source\PSoC4/cyfitter_cfg.c **** 	CY_SET_REG32((void *)(CYREG_CLK_SELECT12), 0x00000010u);
 187              		.loc 1 229 0
 188 0022 1022     		movs	r2, #16
 189 0024 0E4B     		ldr	r3, .L9+16
 190 0026 1A60     		str	r2, [r3]
 230:Generated_Source\PSoC4/cyfitter_cfg.c **** 
 231:Generated_Source\PSoC4/cyfitter_cfg.c **** 	/* CYDEV_CLK_IMO_CONFIG Starting address: CYDEV_CLK_IMO_CONFIG */
 232:Generated_Source\PSoC4/cyfitter_cfg.c **** 	CY_SET_REG32((void *)(CYREG_CLK_IMO_CONFIG), 0x80000000u);
 191              		.loc 1 232 0
 192 0028 8022     		movs	r2, #128
 193 002a 1206     		lsls	r2, r2, #24
 194 002c 0D4B     		ldr	r3, .L9+20
 195 002e 1A60     		str	r2, [r3]
 233:Generated_Source\PSoC4/cyfitter_cfg.c **** 
 234:Generated_Source\PSoC4/cyfitter_cfg.c **** 	/* CYDEV_CLK_SELECT Starting address: CYDEV_CLK_SELECT */
 235:Generated_Source\PSoC4/cyfitter_cfg.c **** 	CY_SET_REG32((void *)(CYREG_CLK_SELECT), 0x00000000u);
 196              		.loc 1 235 0
 197 0030 0025     		movs	r5, #0
 198 0032 2560     		str	r5, [r4]
 236:Generated_Source\PSoC4/cyfitter_cfg.c **** 
 237:Generated_Source\PSoC4/cyfitter_cfg.c **** 	/* CYDEV_CLK_DIVIDER_A00 Starting address: CYDEV_CLK_DIVIDER_A00 */
 238:Generated_Source\PSoC4/cyfitter_cfg.c **** 	CY_SET_REG32((void *)(CYREG_CLK_DIVIDER_A00), 0x80000019u);
 199              		.loc 1 238 0
 200 0034 0C4A     		ldr	r2, .L9+24
 201 0036 0D4B     		ldr	r3, .L9+28
 202 0038 1A60     		str	r2, [r3]
 239:Generated_Source\PSoC4/cyfitter_cfg.c **** 
 240:Generated_Source\PSoC4/cyfitter_cfg.c **** 	(void)CyIntSetVector(9u, &CySysWdtIsr);
 203              		.loc 1 240 0
 204 003a 0D49     		ldr	r1, .L9+32
 205 003c 0920     		movs	r0, #9
 206 003e FFF7FEFF 		bl	CyIntSetVector
 207              	.LVL18:
ARM GAS  C:\Users\Xwx47\AppData\Local\Temp\cc8bysOg.s 			page 9


 241:Generated_Source\PSoC4/cyfitter_cfg.c **** 	CyIntEnable(9u);
 208              		.loc 1 241 0
 209 0042 0920     		movs	r0, #9
 210 0044 FFF7FEFF 		bl	CyIntEnable
 211              	.LVL19:
 242:Generated_Source\PSoC4/cyfitter_cfg.c **** 	CY_SET_REG32((void *)(CYREG_WDT_CONFIG), 0x00000000u);
 212              		.loc 1 242 0
 213 0048 0A4B     		ldr	r3, .L9+36
 214 004a 1D60     		str	r5, [r3]
 243:Generated_Source\PSoC4/cyfitter_cfg.c **** }
 215              		.loc 1 243 0
 216              		@ sp needed
 217 004c 70BD     		pop	{r4, r5, r6, pc}
 218              	.L10:
 219 004e C046     		.align	2
 220              	.L9:
 221 0050 00010B40 		.word	1074462976
 222 0054 FFFFFBFF 		.word	-262145
 223 0058 06000080 		.word	-2147483642
 224 005c 04010B40 		.word	1074462980
 225 0060 30020240 		.word	1073873456
 226 0064 08010B40 		.word	1074462984
 227 0068 19000080 		.word	-2147483623
 228 006c 00000240 		.word	1073872896
 229 0070 00000000 		.word	CySysWdtIsr
 230 0074 0C020B40 		.word	1074463244
 231              		.cfi_endproc
 232              	.LFE4:
 233              		.size	ClockSetup, .-ClockSetup
 234              		.align	2
 235              		.global	cyfitter_cfg
 236              		.code	16
 237              		.thumb_func
 238              		.type	cyfitter_cfg, %function
 239              	cyfitter_cfg:
 240              	.LFB6:
 244:Generated_Source\PSoC4/cyfitter_cfg.c **** 
 245:Generated_Source\PSoC4/cyfitter_cfg.c **** 
 246:Generated_Source\PSoC4/cyfitter_cfg.c **** /* Analog API Functions */
 247:Generated_Source\PSoC4/cyfitter_cfg.c **** 
 248:Generated_Source\PSoC4/cyfitter_cfg.c **** 
 249:Generated_Source\PSoC4/cyfitter_cfg.c **** /*******************************************************************************
 250:Generated_Source\PSoC4/cyfitter_cfg.c **** * Function Name: AnalogSetDefault
 251:Generated_Source\PSoC4/cyfitter_cfg.c **** ********************************************************************************
 252:Generated_Source\PSoC4/cyfitter_cfg.c **** *
 253:Generated_Source\PSoC4/cyfitter_cfg.c **** * Summary:
 254:Generated_Source\PSoC4/cyfitter_cfg.c **** *  Sets up the analog portions of the chip to default values based on chip
 255:Generated_Source\PSoC4/cyfitter_cfg.c **** *  configuration options from the project.
 256:Generated_Source\PSoC4/cyfitter_cfg.c **** *
 257:Generated_Source\PSoC4/cyfitter_cfg.c **** * Parameters:
 258:Generated_Source\PSoC4/cyfitter_cfg.c **** *  void
 259:Generated_Source\PSoC4/cyfitter_cfg.c **** *
 260:Generated_Source\PSoC4/cyfitter_cfg.c **** * Return:
 261:Generated_Source\PSoC4/cyfitter_cfg.c **** *  void
 262:Generated_Source\PSoC4/cyfitter_cfg.c **** *
 263:Generated_Source\PSoC4/cyfitter_cfg.c **** *******************************************************************************/
 264:Generated_Source\PSoC4/cyfitter_cfg.c **** static void AnalogSetDefault(void);
ARM GAS  C:\Users\Xwx47\AppData\Local\Temp\cc8bysOg.s 			page 10


 265:Generated_Source\PSoC4/cyfitter_cfg.c **** static void AnalogSetDefault(void)
 266:Generated_Source\PSoC4/cyfitter_cfg.c **** {
 267:Generated_Source\PSoC4/cyfitter_cfg.c **** }
 268:Generated_Source\PSoC4/cyfitter_cfg.c **** 
 269:Generated_Source\PSoC4/cyfitter_cfg.c **** 
 270:Generated_Source\PSoC4/cyfitter_cfg.c **** 
 271:Generated_Source\PSoC4/cyfitter_cfg.c **** 
 272:Generated_Source\PSoC4/cyfitter_cfg.c **** /*******************************************************************************
 273:Generated_Source\PSoC4/cyfitter_cfg.c **** * Function Name: cyfitter_cfg
 274:Generated_Source\PSoC4/cyfitter_cfg.c **** ********************************************************************************
 275:Generated_Source\PSoC4/cyfitter_cfg.c **** * Summary:
 276:Generated_Source\PSoC4/cyfitter_cfg.c **** *  This function is called by the start-up code for the selected device. It
 277:Generated_Source\PSoC4/cyfitter_cfg.c **** *  performs all of the necessary device configuration based on the design
 278:Generated_Source\PSoC4/cyfitter_cfg.c **** *  settings.  This includes settings from the Design Wide Resources (DWR) such
 279:Generated_Source\PSoC4/cyfitter_cfg.c **** *  as Clocks and Pins as well as any component configuration that is necessary.
 280:Generated_Source\PSoC4/cyfitter_cfg.c **** *
 281:Generated_Source\PSoC4/cyfitter_cfg.c **** * Parameters:
 282:Generated_Source\PSoC4/cyfitter_cfg.c **** *   void
 283:Generated_Source\PSoC4/cyfitter_cfg.c **** *
 284:Generated_Source\PSoC4/cyfitter_cfg.c **** * Return:
 285:Generated_Source\PSoC4/cyfitter_cfg.c **** *   void
 286:Generated_Source\PSoC4/cyfitter_cfg.c **** *
 287:Generated_Source\PSoC4/cyfitter_cfg.c **** *******************************************************************************/
 288:Generated_Source\PSoC4/cyfitter_cfg.c **** CY_CFG_SECTION
 289:Generated_Source\PSoC4/cyfitter_cfg.c **** void cyfitter_cfg(void)
 290:Generated_Source\PSoC4/cyfitter_cfg.c **** {
 241              		.loc 1 290 0
 242              		.cfi_startproc
 243              		@ args = 0, pretend = 0, frame = 0
 244              		@ frame_needed = 0, uses_anonymous_args = 0
 245 0078 70B5     		push	{r4, r5, r6, lr}
 246              		.cfi_def_cfa_offset 16
 247              		.cfi_offset 4, -16
 248              		.cfi_offset 5, -12
 249              		.cfi_offset 6, -8
 250              		.cfi_offset 14, -4
 291:Generated_Source\PSoC4/cyfitter_cfg.c **** 	/* Disable interrupts by default. Let user enable if/when they want. */
 292:Generated_Source\PSoC4/cyfitter_cfg.c **** 	CyGlobalIntDisable;
 251              		.loc 1 292 0
 252              		.syntax divided
 253              	@ 292 "Generated_Source\PSoC4\cyfitter_cfg.c" 1
 254 007a 72B6     		CPSID   i
 255              	@ 0 "" 2
 293:Generated_Source\PSoC4/cyfitter_cfg.c **** 
 294:Generated_Source\PSoC4/cyfitter_cfg.c **** 	/* Enable the clock in the interrupt controller for the routed interrupts */
 295:Generated_Source\PSoC4/cyfitter_cfg.c **** 	CY_SET_REG8((void *)CYREG_UDB_UDBIF_INT_CLK_CTL, 0x01u);
 256              		.loc 1 295 0
 257              		.thumb
 258              		.syntax unified
 259 007c 0122     		movs	r2, #1
 260 007e 354B     		ldr	r3, .L16
 261 0080 1A70     		strb	r2, [r3]
 262              	.LVL20:
 263              	.LBB3:
 296:Generated_Source\PSoC4/cyfitter_cfg.c **** 	{
 297:Generated_Source\PSoC4/cyfitter_cfg.c **** 		static const uint32 CYCODE cy_cfg_addr_table[] = {
 298:Generated_Source\PSoC4/cyfitter_cfg.c **** 			0x400F0003u, /* Base address: 0x400F0000 Count: 3 */
ARM GAS  C:\Users\Xwx47\AppData\Local\Temp\cc8bysOg.s 			page 11


 299:Generated_Source\PSoC4/cyfitter_cfg.c **** 			0x400F3051u, /* Base address: 0x400F3000 Count: 81 */
 300:Generated_Source\PSoC4/cyfitter_cfg.c **** 			0x400F3136u, /* Base address: 0x400F3100 Count: 54 */
 301:Generated_Source\PSoC4/cyfitter_cfg.c **** 			0x400F3218u, /* Base address: 0x400F3200 Count: 24 */
 302:Generated_Source\PSoC4/cyfitter_cfg.c **** 			0x400F3342u, /* Base address: 0x400F3300 Count: 66 */
 303:Generated_Source\PSoC4/cyfitter_cfg.c **** 			0x400F4004u, /* Base address: 0x400F4000 Count: 4 */
 304:Generated_Source\PSoC4/cyfitter_cfg.c **** 			0x400F4308u, /* Base address: 0x400F4300 Count: 8 */
 305:Generated_Source\PSoC4/cyfitter_cfg.c **** 			0x400F6002u, /* Base address: 0x400F6000 Count: 2 */
 306:Generated_Source\PSoC4/cyfitter_cfg.c **** 		};
 307:Generated_Source\PSoC4/cyfitter_cfg.c **** 
 308:Generated_Source\PSoC4/cyfitter_cfg.c **** 		static const cy_cfg_addrvalue_t CYCODE cy_cfg_data_table[] = {
 309:Generated_Source\PSoC4/cyfitter_cfg.c **** 			{0x80u, 0x0Fu},
 310:Generated_Source\PSoC4/cyfitter_cfg.c **** 			{0x81u, 0x38u},
 311:Generated_Source\PSoC4/cyfitter_cfg.c **** 			{0x82u, 0x71u},
 312:Generated_Source\PSoC4/cyfitter_cfg.c **** 			{0x04u, 0x0Cu},
 313:Generated_Source\PSoC4/cyfitter_cfg.c **** 			{0x06u, 0x71u},
 314:Generated_Source\PSoC4/cyfitter_cfg.c **** 			{0x0Cu, 0x10u},
 315:Generated_Source\PSoC4/cyfitter_cfg.c **** 			{0x0Eu, 0xACu},
 316:Generated_Source\PSoC4/cyfitter_cfg.c **** 			{0x0Fu, 0x0Cu},
 317:Generated_Source\PSoC4/cyfitter_cfg.c **** 			{0x12u, 0x03u},
 318:Generated_Source\PSoC4/cyfitter_cfg.c **** 			{0x14u, 0xDCu},
 319:Generated_Source\PSoC4/cyfitter_cfg.c **** 			{0x15u, 0x80u},
 320:Generated_Source\PSoC4/cyfitter_cfg.c **** 			{0x16u, 0x22u},
 321:Generated_Source\PSoC4/cyfitter_cfg.c **** 			{0x17u, 0x13u},
 322:Generated_Source\PSoC4/cyfitter_cfg.c **** 			{0x18u, 0x14u},
 323:Generated_Source\PSoC4/cyfitter_cfg.c **** 			{0x19u, 0x2Cu},
 324:Generated_Source\PSoC4/cyfitter_cfg.c **** 			{0x1Bu, 0x43u},
 325:Generated_Source\PSoC4/cyfitter_cfg.c **** 			{0x1Cu, 0x09u},
 326:Generated_Source\PSoC4/cyfitter_cfg.c **** 			{0x1Eu, 0xD0u},
 327:Generated_Source\PSoC4/cyfitter_cfg.c **** 			{0x1Fu, 0x08u},
 328:Generated_Source\PSoC4/cyfitter_cfg.c **** 			{0x20u, 0x10u},
 329:Generated_Source\PSoC4/cyfitter_cfg.c **** 			{0x22u, 0x40u},
 330:Generated_Source\PSoC4/cyfitter_cfg.c **** 			{0x29u, 0x71u},
 331:Generated_Source\PSoC4/cyfitter_cfg.c **** 			{0x2Au, 0x20u},
 332:Generated_Source\PSoC4/cyfitter_cfg.c **** 			{0x2Bu, 0x0Eu},
 333:Generated_Source\PSoC4/cyfitter_cfg.c **** 			{0x2Du, 0x71u},
 334:Generated_Source\PSoC4/cyfitter_cfg.c **** 			{0x2Fu, 0x06u},
 335:Generated_Source\PSoC4/cyfitter_cfg.c **** 			{0x30u, 0x1Fu},
 336:Generated_Source\PSoC4/cyfitter_cfg.c **** 			{0x31u, 0xC0u},
 337:Generated_Source\PSoC4/cyfitter_cfg.c **** 			{0x33u, 0x30u},
 338:Generated_Source\PSoC4/cyfitter_cfg.c **** 			{0x34u, 0xE0u},
 339:Generated_Source\PSoC4/cyfitter_cfg.c **** 			{0x35u, 0x0Fu},
 340:Generated_Source\PSoC4/cyfitter_cfg.c **** 			{0x39u, 0x0Au},
 341:Generated_Source\PSoC4/cyfitter_cfg.c **** 			{0x3Au, 0x20u},
 342:Generated_Source\PSoC4/cyfitter_cfg.c **** 			{0x3Bu, 0x20u},
 343:Generated_Source\PSoC4/cyfitter_cfg.c **** 			{0x3Fu, 0x04u},
 344:Generated_Source\PSoC4/cyfitter_cfg.c **** 			{0x40u, 0x16u},
 345:Generated_Source\PSoC4/cyfitter_cfg.c **** 			{0x41u, 0x03u},
 346:Generated_Source\PSoC4/cyfitter_cfg.c **** 			{0x45u, 0x0Bu},
 347:Generated_Source\PSoC4/cyfitter_cfg.c **** 			{0x46u, 0x0Cu},
 348:Generated_Source\PSoC4/cyfitter_cfg.c **** 			{0x47u, 0x0Eu},
 349:Generated_Source\PSoC4/cyfitter_cfg.c **** 			{0x48u, 0x15u},
 350:Generated_Source\PSoC4/cyfitter_cfg.c **** 			{0x49u, 0xFFu},
 351:Generated_Source\PSoC4/cyfitter_cfg.c **** 			{0x4Au, 0xFFu},
 352:Generated_Source\PSoC4/cyfitter_cfg.c **** 			{0x4Bu, 0xFFu},
 353:Generated_Source\PSoC4/cyfitter_cfg.c **** 			{0x4Eu, 0xF0u},
 354:Generated_Source\PSoC4/cyfitter_cfg.c **** 			{0x4Fu, 0x44u},
 355:Generated_Source\PSoC4/cyfitter_cfg.c **** 			{0x50u, 0x0Cu},
ARM GAS  C:\Users\Xwx47\AppData\Local\Temp\cc8bysOg.s 			page 12


 356:Generated_Source\PSoC4/cyfitter_cfg.c **** 			{0x54u, 0x01u},
 357:Generated_Source\PSoC4/cyfitter_cfg.c **** 			{0x58u, 0x04u},
 358:Generated_Source\PSoC4/cyfitter_cfg.c **** 			{0x59u, 0x04u},
 359:Generated_Source\PSoC4/cyfitter_cfg.c **** 			{0x5Au, 0x04u},
 360:Generated_Source\PSoC4/cyfitter_cfg.c **** 			{0x5Bu, 0x04u},
 361:Generated_Source\PSoC4/cyfitter_cfg.c **** 			{0x5Fu, 0x01u},
 362:Generated_Source\PSoC4/cyfitter_cfg.c **** 			{0x66u, 0xC0u},
 363:Generated_Source\PSoC4/cyfitter_cfg.c **** 			{0x6Au, 0x40u},
 364:Generated_Source\PSoC4/cyfitter_cfg.c **** 			{0x6Bu, 0x02u},
 365:Generated_Source\PSoC4/cyfitter_cfg.c **** 			{0x82u, 0x40u},
 366:Generated_Source\PSoC4/cyfitter_cfg.c **** 			{0x84u, 0x20u},
 367:Generated_Source\PSoC4/cyfitter_cfg.c **** 			{0x88u, 0x20u},
 368:Generated_Source\PSoC4/cyfitter_cfg.c **** 			{0x8Eu, 0x08u},
 369:Generated_Source\PSoC4/cyfitter_cfg.c **** 			{0x90u, 0x20u},
 370:Generated_Source\PSoC4/cyfitter_cfg.c **** 			{0x96u, 0x15u},
 371:Generated_Source\PSoC4/cyfitter_cfg.c **** 			{0x9Eu, 0x40u},
 372:Generated_Source\PSoC4/cyfitter_cfg.c **** 			{0xA0u, 0x03u},
 373:Generated_Source\PSoC4/cyfitter_cfg.c **** 			{0xA2u, 0x14u},
 374:Generated_Source\PSoC4/cyfitter_cfg.c **** 			{0xA4u, 0x13u},
 375:Generated_Source\PSoC4/cyfitter_cfg.c **** 			{0xA6u, 0x04u},
 376:Generated_Source\PSoC4/cyfitter_cfg.c **** 			{0xA8u, 0x0Au},
 377:Generated_Source\PSoC4/cyfitter_cfg.c **** 			{0xAAu, 0x14u},
 378:Generated_Source\PSoC4/cyfitter_cfg.c **** 			{0xACu, 0x13u},
 379:Generated_Source\PSoC4/cyfitter_cfg.c **** 			{0xAEu, 0x0Cu},
 380:Generated_Source\PSoC4/cyfitter_cfg.c **** 			{0xB0u, 0x0Fu},
 381:Generated_Source\PSoC4/cyfitter_cfg.c **** 			{0xB2u, 0x10u},
 382:Generated_Source\PSoC4/cyfitter_cfg.c **** 			{0xB4u, 0x40u},
 383:Generated_Source\PSoC4/cyfitter_cfg.c **** 			{0xB6u, 0x20u},
 384:Generated_Source\PSoC4/cyfitter_cfg.c **** 			{0xBAu, 0x02u},
 385:Generated_Source\PSoC4/cyfitter_cfg.c **** 			{0xBBu, 0x20u},
 386:Generated_Source\PSoC4/cyfitter_cfg.c **** 			{0xBEu, 0x14u},
 387:Generated_Source\PSoC4/cyfitter_cfg.c **** 			{0xD4u, 0x18u},
 388:Generated_Source\PSoC4/cyfitter_cfg.c **** 			{0xD6u, 0x04u},
 389:Generated_Source\PSoC4/cyfitter_cfg.c **** 			{0xD8u, 0x04u},
 390:Generated_Source\PSoC4/cyfitter_cfg.c **** 			{0xD9u, 0x04u},
 391:Generated_Source\PSoC4/cyfitter_cfg.c **** 			{0xDBu, 0x04u},
 392:Generated_Source\PSoC4/cyfitter_cfg.c **** 			{0xDFu, 0x01u},
 393:Generated_Source\PSoC4/cyfitter_cfg.c **** 			{0x02u, 0x10u},
 394:Generated_Source\PSoC4/cyfitter_cfg.c **** 			{0x03u, 0x02u},
 395:Generated_Source\PSoC4/cyfitter_cfg.c **** 			{0x04u, 0x69u},
 396:Generated_Source\PSoC4/cyfitter_cfg.c **** 			{0x0Au, 0xA2u},
 397:Generated_Source\PSoC4/cyfitter_cfg.c **** 			{0x0Bu, 0x04u},
 398:Generated_Source\PSoC4/cyfitter_cfg.c **** 			{0x0Cu, 0x08u},
 399:Generated_Source\PSoC4/cyfitter_cfg.c **** 			{0x0Eu, 0x40u},
 400:Generated_Source\PSoC4/cyfitter_cfg.c **** 			{0x0Fu, 0x02u},
 401:Generated_Source\PSoC4/cyfitter_cfg.c **** 			{0x10u, 0x88u},
 402:Generated_Source\PSoC4/cyfitter_cfg.c **** 			{0x14u, 0x02u},
 403:Generated_Source\PSoC4/cyfitter_cfg.c **** 			{0x15u, 0x20u},
 404:Generated_Source\PSoC4/cyfitter_cfg.c **** 			{0x16u, 0x50u},
 405:Generated_Source\PSoC4/cyfitter_cfg.c **** 			{0x19u, 0x20u},
 406:Generated_Source\PSoC4/cyfitter_cfg.c **** 			{0x1Au, 0x80u},
 407:Generated_Source\PSoC4/cyfitter_cfg.c **** 			{0x1Cu, 0x20u},
 408:Generated_Source\PSoC4/cyfitter_cfg.c **** 			{0x1Du, 0x80u},
 409:Generated_Source\PSoC4/cyfitter_cfg.c **** 			{0x1Fu, 0x22u},
 410:Generated_Source\PSoC4/cyfitter_cfg.c **** 			{0x20u, 0x40u},
 411:Generated_Source\PSoC4/cyfitter_cfg.c **** 			{0x21u, 0x30u},
 412:Generated_Source\PSoC4/cyfitter_cfg.c **** 			{0x22u, 0x11u},
ARM GAS  C:\Users\Xwx47\AppData\Local\Temp\cc8bysOg.s 			page 13


 413:Generated_Source\PSoC4/cyfitter_cfg.c **** 			{0x23u, 0x10u},
 414:Generated_Source\PSoC4/cyfitter_cfg.c **** 			{0x26u, 0x10u},
 415:Generated_Source\PSoC4/cyfitter_cfg.c **** 			{0x28u, 0x02u},
 416:Generated_Source\PSoC4/cyfitter_cfg.c **** 			{0x29u, 0x20u},
 417:Generated_Source\PSoC4/cyfitter_cfg.c **** 			{0x2Au, 0x10u},
 418:Generated_Source\PSoC4/cyfitter_cfg.c **** 			{0x2Bu, 0x0Au},
 419:Generated_Source\PSoC4/cyfitter_cfg.c **** 			{0x30u, 0x88u},
 420:Generated_Source\PSoC4/cyfitter_cfg.c **** 			{0x31u, 0x20u},
 421:Generated_Source\PSoC4/cyfitter_cfg.c **** 			{0x38u, 0x40u},
 422:Generated_Source\PSoC4/cyfitter_cfg.c **** 			{0x40u, 0x02u},
 423:Generated_Source\PSoC4/cyfitter_cfg.c **** 			{0x43u, 0x08u},
 424:Generated_Source\PSoC4/cyfitter_cfg.c **** 			{0x48u, 0x08u},
 425:Generated_Source\PSoC4/cyfitter_cfg.c **** 			{0x4Bu, 0x04u},
 426:Generated_Source\PSoC4/cyfitter_cfg.c **** 			{0x52u, 0x48u},
 427:Generated_Source\PSoC4/cyfitter_cfg.c **** 			{0x53u, 0x80u},
 428:Generated_Source\PSoC4/cyfitter_cfg.c **** 			{0x58u, 0x20u},
 429:Generated_Source\PSoC4/cyfitter_cfg.c **** 			{0x59u, 0x89u},
 430:Generated_Source\PSoC4/cyfitter_cfg.c **** 			{0x5Fu, 0x02u},
 431:Generated_Source\PSoC4/cyfitter_cfg.c **** 			{0x66u, 0x20u},
 432:Generated_Source\PSoC4/cyfitter_cfg.c **** 			{0x67u, 0x42u},
 433:Generated_Source\PSoC4/cyfitter_cfg.c **** 			{0x83u, 0x21u},
 434:Generated_Source\PSoC4/cyfitter_cfg.c **** 			{0x87u, 0x40u},
 435:Generated_Source\PSoC4/cyfitter_cfg.c **** 			{0x88u, 0x10u},
 436:Generated_Source\PSoC4/cyfitter_cfg.c **** 			{0x89u, 0x80u},
 437:Generated_Source\PSoC4/cyfitter_cfg.c **** 			{0xC0u, 0xF5u},
 438:Generated_Source\PSoC4/cyfitter_cfg.c **** 			{0xC2u, 0xBFu},
 439:Generated_Source\PSoC4/cyfitter_cfg.c **** 			{0xC4u, 0xFAu},
 440:Generated_Source\PSoC4/cyfitter_cfg.c **** 			{0xCAu, 0x0Cu},
 441:Generated_Source\PSoC4/cyfitter_cfg.c **** 			{0xCCu, 0x0Eu},
 442:Generated_Source\PSoC4/cyfitter_cfg.c **** 			{0xCEu, 0x08u},
 443:Generated_Source\PSoC4/cyfitter_cfg.c **** 			{0xD0u, 0x0Au},
 444:Generated_Source\PSoC4/cyfitter_cfg.c **** 			{0xD2u, 0x04u},
 445:Generated_Source\PSoC4/cyfitter_cfg.c **** 			{0xD6u, 0x8Fu},
 446:Generated_Source\PSoC4/cyfitter_cfg.c **** 			{0xD8u, 0xB0u},
 447:Generated_Source\PSoC4/cyfitter_cfg.c **** 			{0x90u, 0x04u},
 448:Generated_Source\PSoC4/cyfitter_cfg.c **** 			{0x96u, 0x01u},
 449:Generated_Source\PSoC4/cyfitter_cfg.c **** 			{0xA8u, 0x02u},
 450:Generated_Source\PSoC4/cyfitter_cfg.c **** 			{0xB2u, 0x02u},
 451:Generated_Source\PSoC4/cyfitter_cfg.c **** 			{0xB4u, 0x04u},
 452:Generated_Source\PSoC4/cyfitter_cfg.c **** 			{0xB6u, 0x01u},
 453:Generated_Source\PSoC4/cyfitter_cfg.c **** 			{0xBEu, 0x14u},
 454:Generated_Source\PSoC4/cyfitter_cfg.c **** 			{0xC0u, 0x06u},
 455:Generated_Source\PSoC4/cyfitter_cfg.c **** 			{0xC6u, 0x04u},
 456:Generated_Source\PSoC4/cyfitter_cfg.c **** 			{0xC9u, 0xFFu},
 457:Generated_Source\PSoC4/cyfitter_cfg.c **** 			{0xCAu, 0x07u},
 458:Generated_Source\PSoC4/cyfitter_cfg.c **** 			{0xCBu, 0xFFu},
 459:Generated_Source\PSoC4/cyfitter_cfg.c **** 			{0xCCu, 0x40u},
 460:Generated_Source\PSoC4/cyfitter_cfg.c **** 			{0xCDu, 0x20u},
 461:Generated_Source\PSoC4/cyfitter_cfg.c **** 			{0xCEu, 0xF0u},
 462:Generated_Source\PSoC4/cyfitter_cfg.c **** 			{0xCFu, 0x05u},
 463:Generated_Source\PSoC4/cyfitter_cfg.c **** 			{0xD0u, 0x08u},
 464:Generated_Source\PSoC4/cyfitter_cfg.c **** 			{0xD8u, 0x04u},
 465:Generated_Source\PSoC4/cyfitter_cfg.c **** 			{0xDAu, 0x04u},
 466:Generated_Source\PSoC4/cyfitter_cfg.c **** 			{0xDFu, 0x01u},
 467:Generated_Source\PSoC4/cyfitter_cfg.c **** 			{0xE0u, 0x40u},
 468:Generated_Source\PSoC4/cyfitter_cfg.c **** 			{0xE1u, 0xA8u},
 469:Generated_Source\PSoC4/cyfitter_cfg.c **** 			{0xE2u, 0x40u},
ARM GAS  C:\Users\Xwx47\AppData\Local\Temp\cc8bysOg.s 			page 14


 470:Generated_Source\PSoC4/cyfitter_cfg.c **** 			{0xE3u, 0x20u},
 471:Generated_Source\PSoC4/cyfitter_cfg.c **** 			{0x04u, 0x40u},
 472:Generated_Source\PSoC4/cyfitter_cfg.c **** 			{0x07u, 0x48u},
 473:Generated_Source\PSoC4/cyfitter_cfg.c **** 			{0x08u, 0x08u},
 474:Generated_Source\PSoC4/cyfitter_cfg.c **** 			{0x0Au, 0x80u},
 475:Generated_Source\PSoC4/cyfitter_cfg.c **** 			{0x0Eu, 0x29u},
 476:Generated_Source\PSoC4/cyfitter_cfg.c **** 			{0x12u, 0x08u},
 477:Generated_Source\PSoC4/cyfitter_cfg.c **** 			{0x14u, 0x80u},
 478:Generated_Source\PSoC4/cyfitter_cfg.c **** 			{0x15u, 0x10u},
 479:Generated_Source\PSoC4/cyfitter_cfg.c **** 			{0x16u, 0x11u},
 480:Generated_Source\PSoC4/cyfitter_cfg.c **** 			{0x18u, 0x04u},
 481:Generated_Source\PSoC4/cyfitter_cfg.c **** 			{0x19u, 0x08u},
 482:Generated_Source\PSoC4/cyfitter_cfg.c **** 			{0x1Au, 0x01u},
 483:Generated_Source\PSoC4/cyfitter_cfg.c **** 			{0x1Cu, 0x41u},
 484:Generated_Source\PSoC4/cyfitter_cfg.c **** 			{0x1Fu, 0x1Au},
 485:Generated_Source\PSoC4/cyfitter_cfg.c **** 			{0x27u, 0xA6u},
 486:Generated_Source\PSoC4/cyfitter_cfg.c **** 			{0x2Du, 0x10u},
 487:Generated_Source\PSoC4/cyfitter_cfg.c **** 			{0x2Fu, 0x1Au},
 488:Generated_Source\PSoC4/cyfitter_cfg.c **** 			{0x34u, 0x0Au},
 489:Generated_Source\PSoC4/cyfitter_cfg.c **** 			{0x35u, 0x20u},
 490:Generated_Source\PSoC4/cyfitter_cfg.c **** 			{0x36u, 0x10u},
 491:Generated_Source\PSoC4/cyfitter_cfg.c **** 			{0x37u, 0x80u},
 492:Generated_Source\PSoC4/cyfitter_cfg.c **** 			{0x38u, 0x03u},
 493:Generated_Source\PSoC4/cyfitter_cfg.c **** 			{0x3Du, 0x01u},
 494:Generated_Source\PSoC4/cyfitter_cfg.c **** 			{0x42u, 0x20u},
 495:Generated_Source\PSoC4/cyfitter_cfg.c **** 			{0x43u, 0x04u},
 496:Generated_Source\PSoC4/cyfitter_cfg.c **** 			{0x44u, 0x8Au},
 497:Generated_Source\PSoC4/cyfitter_cfg.c **** 			{0x45u, 0x80u},
 498:Generated_Source\PSoC4/cyfitter_cfg.c **** 			{0x47u, 0x40u},
 499:Generated_Source\PSoC4/cyfitter_cfg.c **** 			{0x4Bu, 0x10u},
 500:Generated_Source\PSoC4/cyfitter_cfg.c **** 			{0x4Cu, 0x01u},
 501:Generated_Source\PSoC4/cyfitter_cfg.c **** 			{0x4Du, 0x21u},
 502:Generated_Source\PSoC4/cyfitter_cfg.c **** 			{0x50u, 0x88u},
 503:Generated_Source\PSoC4/cyfitter_cfg.c **** 			{0x57u, 0x01u},
 504:Generated_Source\PSoC4/cyfitter_cfg.c **** 			{0x5Fu, 0x20u},
 505:Generated_Source\PSoC4/cyfitter_cfg.c **** 			{0x6Cu, 0x14u},
 506:Generated_Source\PSoC4/cyfitter_cfg.c **** 			{0x6Eu, 0x40u},
 507:Generated_Source\PSoC4/cyfitter_cfg.c **** 			{0x76u, 0x11u},
 508:Generated_Source\PSoC4/cyfitter_cfg.c **** 			{0x77u, 0x08u},
 509:Generated_Source\PSoC4/cyfitter_cfg.c **** 			{0x84u, 0x80u},
 510:Generated_Source\PSoC4/cyfitter_cfg.c **** 			{0x87u, 0x10u},
 511:Generated_Source\PSoC4/cyfitter_cfg.c **** 			{0x8Cu, 0x0Cu},
 512:Generated_Source\PSoC4/cyfitter_cfg.c **** 			{0x8Eu, 0x04u},
 513:Generated_Source\PSoC4/cyfitter_cfg.c **** 			{0x92u, 0x80u},
 514:Generated_Source\PSoC4/cyfitter_cfg.c **** 			{0x93u, 0x10u},
 515:Generated_Source\PSoC4/cyfitter_cfg.c **** 			{0x94u, 0x29u},
 516:Generated_Source\PSoC4/cyfitter_cfg.c **** 			{0x96u, 0x40u},
 517:Generated_Source\PSoC4/cyfitter_cfg.c **** 			{0x9Du, 0x08u},
 518:Generated_Source\PSoC4/cyfitter_cfg.c **** 			{0x9Eu, 0x20u},
 519:Generated_Source\PSoC4/cyfitter_cfg.c **** 			{0x9Fu, 0x02u},
 520:Generated_Source\PSoC4/cyfitter_cfg.c **** 			{0xA1u, 0x80u},
 521:Generated_Source\PSoC4/cyfitter_cfg.c **** 			{0xA2u, 0x18u},
 522:Generated_Source\PSoC4/cyfitter_cfg.c **** 			{0xA4u, 0x88u},
 523:Generated_Source\PSoC4/cyfitter_cfg.c **** 			{0xA7u, 0x01u},
 524:Generated_Source\PSoC4/cyfitter_cfg.c **** 			{0xA8u, 0x20u},
 525:Generated_Source\PSoC4/cyfitter_cfg.c **** 			{0xABu, 0x80u},
 526:Generated_Source\PSoC4/cyfitter_cfg.c **** 			{0xB5u, 0x01u},
ARM GAS  C:\Users\Xwx47\AppData\Local\Temp\cc8bysOg.s 			page 15


 527:Generated_Source\PSoC4/cyfitter_cfg.c **** 			{0xB6u, 0x08u},
 528:Generated_Source\PSoC4/cyfitter_cfg.c **** 			{0xC0u, 0xD0u},
 529:Generated_Source\PSoC4/cyfitter_cfg.c **** 			{0xC2u, 0xECu},
 530:Generated_Source\PSoC4/cyfitter_cfg.c **** 			{0xC4u, 0xF2u},
 531:Generated_Source\PSoC4/cyfitter_cfg.c **** 			{0xCAu, 0x70u},
 532:Generated_Source\PSoC4/cyfitter_cfg.c **** 			{0xCCu, 0xF0u},
 533:Generated_Source\PSoC4/cyfitter_cfg.c **** 			{0xCEu, 0x80u},
 534:Generated_Source\PSoC4/cyfitter_cfg.c **** 			{0xD0u, 0xB0u},
 535:Generated_Source\PSoC4/cyfitter_cfg.c **** 			{0xD2u, 0x34u},
 536:Generated_Source\PSoC4/cyfitter_cfg.c **** 			{0xD6u, 0x20u},
 537:Generated_Source\PSoC4/cyfitter_cfg.c **** 			{0x6Eu, 0x80u},
 538:Generated_Source\PSoC4/cyfitter_cfg.c **** 			{0x86u, 0x40u},
 539:Generated_Source\PSoC4/cyfitter_cfg.c **** 			{0xDAu, 0x80u},
 540:Generated_Source\PSoC4/cyfitter_cfg.c **** 			{0xE6u, 0x40u},
 541:Generated_Source\PSoC4/cyfitter_cfg.c **** 			{0x01u, 0x08u},
 542:Generated_Source\PSoC4/cyfitter_cfg.c **** 			{0x54u, 0x02u},
 543:Generated_Source\PSoC4/cyfitter_cfg.c **** 			{0x8Cu, 0x02u},
 544:Generated_Source\PSoC4/cyfitter_cfg.c **** 			{0x8Du, 0x08u},
 545:Generated_Source\PSoC4/cyfitter_cfg.c **** 			{0xC0u, 0x08u},
 546:Generated_Source\PSoC4/cyfitter_cfg.c **** 			{0xD6u, 0x04u},
 547:Generated_Source\PSoC4/cyfitter_cfg.c **** 			{0xE2u, 0x02u},
 548:Generated_Source\PSoC4/cyfitter_cfg.c **** 			{0xE4u, 0x02u},
 549:Generated_Source\PSoC4/cyfitter_cfg.c **** 			{0x10u, 0x01u},
 550:Generated_Source\PSoC4/cyfitter_cfg.c **** 			{0x11u, 0x01u},
 551:Generated_Source\PSoC4/cyfitter_cfg.c **** 		};
 552:Generated_Source\PSoC4/cyfitter_cfg.c **** 
 553:Generated_Source\PSoC4/cyfitter_cfg.c **** 
 554:Generated_Source\PSoC4/cyfitter_cfg.c **** 
 555:Generated_Source\PSoC4/cyfitter_cfg.c **** 		CYPACKED typedef struct {
 556:Generated_Source\PSoC4/cyfitter_cfg.c **** 			void CYFAR *address;
 557:Generated_Source\PSoC4/cyfitter_cfg.c **** 			uint16 size;
 558:Generated_Source\PSoC4/cyfitter_cfg.c **** 		} CYPACKED_ATTR cfg_memset_t;
 559:Generated_Source\PSoC4/cyfitter_cfg.c **** 
 560:Generated_Source\PSoC4/cyfitter_cfg.c **** 
 561:Generated_Source\PSoC4/cyfitter_cfg.c **** 		CYPACKED typedef struct {
 562:Generated_Source\PSoC4/cyfitter_cfg.c **** 			void CYFAR *dest;
 563:Generated_Source\PSoC4/cyfitter_cfg.c **** 			const void CYCODE *src;
 564:Generated_Source\PSoC4/cyfitter_cfg.c **** 			uint16 size;
 565:Generated_Source\PSoC4/cyfitter_cfg.c **** 		} CYPACKED_ATTR cfg_memcpy_t;
 566:Generated_Source\PSoC4/cyfitter_cfg.c **** 
 567:Generated_Source\PSoC4/cyfitter_cfg.c **** 		static const cfg_memset_t CYCODE cfg_memset_list[] = {
 568:Generated_Source\PSoC4/cyfitter_cfg.c **** 			/* address, size */
 569:Generated_Source\PSoC4/cyfitter_cfg.c **** 			{(void CYFAR *)(CYDEV_UDB_P0_U0_BASE), 512u},
 570:Generated_Source\PSoC4/cyfitter_cfg.c **** 			{(void CYFAR *)(CYDEV_UDB_P1_U1_BASE), 384u},
 571:Generated_Source\PSoC4/cyfitter_cfg.c **** 			{(void CYFAR *)(CYDEV_UDB_DSI0_BASE), 1024u},
 572:Generated_Source\PSoC4/cyfitter_cfg.c **** 		};
 573:Generated_Source\PSoC4/cyfitter_cfg.c **** 
 574:Generated_Source\PSoC4/cyfitter_cfg.c **** 		/* UDB_0_0_1_CONFIG Address: CYDEV_UDB_P1_U0_BASE Size (bytes): 128 */
 575:Generated_Source\PSoC4/cyfitter_cfg.c **** 		static const uint8 CYCODE BS_UDB_0_0_1_CONFIG_VAL[] = {
 576:Generated_Source\PSoC4/cyfitter_cfg.c **** 			0x00u, 0x00u, 0xE3u, 0x02u, 0x00u, 0x00u, 0x00u, 0x00u, 0x08u, 0x00u, 0x00u, 0x00u, 0x9Cu, 0x00u
 577:Generated_Source\PSoC4/cyfitter_cfg.c **** 			0x00u, 0x00u, 0x00u, 0x08u, 0xFFu, 0x08u, 0x00u, 0x00u, 0x84u, 0x0Du, 0x00u, 0x00u, 0x00u, 0x00u
 578:Generated_Source\PSoC4/cyfitter_cfg.c **** 			0xE7u, 0x00u, 0x18u, 0x00u, 0x18u, 0x0Du, 0x00u, 0x00u, 0x3Cu, 0x01u, 0xC2u, 0x0Cu, 0x10u, 0x01u
 579:Generated_Source\PSoC4/cyfitter_cfg.c **** 			0x58u, 0x04u, 0x1Fu, 0x01u, 0x98u, 0x02u, 0x38u, 0x08u, 0x00u, 0x02u, 0x2Au, 0x00u, 0x00u, 0x00u
 580:Generated_Source\PSoC4/cyfitter_cfg.c **** 			0x41u, 0x06u, 0x05u, 0x00u, 0x02u, 0xE0u, 0x00u, 0xC0u, 0x22u, 0xFFu, 0xFFu, 0xFFu, 0x62u, 0xA0u
 581:Generated_Source\PSoC4/cyfitter_cfg.c **** 			0x0Cu, 0x00u, 0x00u, 0x00u, 0x00u, 0x00u, 0x02u, 0x11u, 0x04u, 0x04u, 0x04u, 0x04u, 0x00u, 0x00u
 582:Generated_Source\PSoC4/cyfitter_cfg.c **** 			0x00u, 0x00u, 0x00u, 0x00u, 0x00u, 0x00u, 0x40u, 0x02u, 0x00u, 0x10u, 0x30u, 0x10u, 0x00u, 0x10u
 583:Generated_Source\PSoC4/cyfitter_cfg.c **** 			0x00u, 0x00u, 0x00u, 0x00u, 0x00u, 0x00u, 0x00u, 0x00u, 0x00u, 0x00u, 0x00u, 0x00u, 0x00u, 0x00u
ARM GAS  C:\Users\Xwx47\AppData\Local\Temp\cc8bysOg.s 			page 16


 584:Generated_Source\PSoC4/cyfitter_cfg.c **** 
 585:Generated_Source\PSoC4/cyfitter_cfg.c **** 		static const cfg_memcpy_t CYCODE cfg_memcpy_list [] = {
 586:Generated_Source\PSoC4/cyfitter_cfg.c **** 			/* dest, src, size */
 587:Generated_Source\PSoC4/cyfitter_cfg.c **** 			{(void CYFAR *)(CYDEV_UDB_P1_U0_BASE), BS_UDB_0_0_1_CONFIG_VAL, 128u},
 588:Generated_Source\PSoC4/cyfitter_cfg.c **** 		};
 589:Generated_Source\PSoC4/cyfitter_cfg.c **** 
 590:Generated_Source\PSoC4/cyfitter_cfg.c **** 		uint8 CYDATA i;
 591:Generated_Source\PSoC4/cyfitter_cfg.c **** 
 592:Generated_Source\PSoC4/cyfitter_cfg.c **** 		/* Zero out critical memory blocks before beginning configuration */
 593:Generated_Source\PSoC4/cyfitter_cfg.c **** 		for (i = 0u; i < (sizeof(cfg_memset_list)/sizeof(cfg_memset_list[0])); i++)
 264              		.loc 1 593 0
 265 0082 0024     		movs	r4, #0
 266 0084 0FE0     		b	.L12
 267              	.LVL21:
 268              	.L13:
 269              	.LBB4:
 594:Generated_Source\PSoC4/cyfitter_cfg.c **** 		{
 595:Generated_Source\PSoC4/cyfitter_cfg.c **** 			const cfg_memset_t CYCODE * CYDATA ms = &cfg_memset_list[i];
 596:Generated_Source\PSoC4/cyfitter_cfg.c **** 			CYMEMZERO(ms->address, (size_t)(uint32)(ms->size));
 270              		.loc 1 596 0 discriminator 3
 271 0086 3448     		ldr	r0, .L16+4
 272 0088 6200     		lsls	r2, r4, #1
 273 008a 1319     		adds	r3, r2, r4
 274 008c 5900     		lsls	r1, r3, #1
 275 008e 0B00     		movs	r3, r1
 276 0090 4118     		adds	r1, r0, r1
 277 0092 8988     		ldrh	r1, [r1, #4]
 278 0094 1A5A     		ldrh	r2, [r3, r0]
 279 0096 C318     		adds	r3, r0, r3
 280 0098 5888     		ldrh	r0, [r3, #2]
 281 009a 0004     		lsls	r0, r0, #16
 282 009c 1043     		orrs	r0, r2
 283 009e FFF7FEFF 		bl	CYMEMZERO
 284              	.LVL22:
 285              	.LBE4:
 593:Generated_Source\PSoC4/cyfitter_cfg.c **** 		{
 286              		.loc 1 593 0 discriminator 3
 287 00a2 0134     		adds	r4, r4, #1
 288              	.LVL23:
 289 00a4 E4B2     		uxtb	r4, r4
 290              	.LVL24:
 291              	.L12:
 593:Generated_Source\PSoC4/cyfitter_cfg.c **** 		{
 292              		.loc 1 593 0 is_stmt 0 discriminator 1
 293 00a6 022C     		cmp	r4, #2
 294 00a8 EDD9     		bls	.L13
 295 00aa 0024     		movs	r4, #0
 296              	.LVL25:
 297 00ac 11E0     		b	.L14
 298              	.LVL26:
 299              	.L15:
 300              	.LBB5:
 597:Generated_Source\PSoC4/cyfitter_cfg.c **** 		}
 598:Generated_Source\PSoC4/cyfitter_cfg.c **** 
 599:Generated_Source\PSoC4/cyfitter_cfg.c **** 		/* Copy device configuration data into registers */
 600:Generated_Source\PSoC4/cyfitter_cfg.c **** 		for (i = 0u; i < (sizeof(cfg_memcpy_list)/sizeof(cfg_memcpy_list[0])); i++)
 601:Generated_Source\PSoC4/cyfitter_cfg.c **** 		{
ARM GAS  C:\Users\Xwx47\AppData\Local\Temp\cc8bysOg.s 			page 17


 602:Generated_Source\PSoC4/cyfitter_cfg.c **** 			const cfg_memcpy_t CYCODE * CYDATA mc = &cfg_memcpy_list[i];
 603:Generated_Source\PSoC4/cyfitter_cfg.c **** 			void * CYDATA destPtr = mc->dest;
 301              		.loc 1 603 0 is_stmt 1 discriminator 3
 302 00ae 2A4E     		ldr	r6, .L16+4
 303 00b0 A200     		lsls	r2, r4, #2
 304 00b2 1319     		adds	r3, r2, r4
 305 00b4 5900     		lsls	r1, r3, #1
 306 00b6 7118     		adds	r1, r6, r1
 307 00b8 8D8A     		ldrh	r5, [r1, #20]
 308 00ba C88A     		ldrh	r0, [r1, #22]
 309 00bc 0004     		lsls	r0, r0, #16
 310 00be 2843     		orrs	r0, r5
 311              	.LVL27:
 604:Generated_Source\PSoC4/cyfitter_cfg.c **** 			const void CYCODE * CYDATA srcPtr = mc->src;
 312              		.loc 1 604 0 discriminator 3
 313 00c0 0A8B     		ldrh	r2, [r1, #24]
 314 00c2 498B     		ldrh	r1, [r1, #26]
 315 00c4 0904     		lsls	r1, r1, #16
 316 00c6 1143     		orrs	r1, r2
 317              	.LVL28:
 605:Generated_Source\PSoC4/cyfitter_cfg.c **** 			uint16 CYDATA numBytes = mc->size;
 606:Generated_Source\PSoC4/cyfitter_cfg.c **** 			CYCONFIGCPYCODE(destPtr, srcPtr, numBytes);
 318              		.loc 1 606 0 discriminator 3
 319 00c8 8022     		movs	r2, #128
 320 00ca FFF7FEFF 		bl	CYCONFIGCPYCODE
 321              	.LVL29:
 322              	.LBE5:
 600:Generated_Source\PSoC4/cyfitter_cfg.c **** 		{
 323              		.loc 1 600 0 discriminator 3
 324 00ce 0134     		adds	r4, r4, #1
 325              	.LVL30:
 326 00d0 E4B2     		uxtb	r4, r4
 327              	.LVL31:
 328              	.L14:
 600:Generated_Source\PSoC4/cyfitter_cfg.c **** 		{
 329              		.loc 1 600 0 is_stmt 0 discriminator 1
 330 00d2 002C     		cmp	r4, #0
 331 00d4 EBD0     		beq	.L15
 607:Generated_Source\PSoC4/cyfitter_cfg.c **** 		}
 608:Generated_Source\PSoC4/cyfitter_cfg.c **** 
 609:Generated_Source\PSoC4/cyfitter_cfg.c **** 		cfg_write_bytes32(cy_cfg_addr_table, cy_cfg_data_table);
 332              		.loc 1 609 0 is_stmt 1
 333 00d6 2049     		ldr	r1, .L16+4
 334 00d8 2031     		adds	r1, r1, #32
 335 00da 2048     		ldr	r0, .L16+8
 336 00dc 0430     		adds	r0, r0, #4
 337 00de FFF7FEFF 		bl	cfg_write_bytes32
 338              	.LVL32:
 610:Generated_Source\PSoC4/cyfitter_cfg.c **** 
 611:Generated_Source\PSoC4/cyfitter_cfg.c **** 		/* Perform normal device configuration. Order is not critical for these items. */
 612:Generated_Source\PSoC4/cyfitter_cfg.c **** 		CY_SET_REG16((void *)(CYREG_UDB_BCTL0_DRV), 0x0100u);
 339              		.loc 1 612 0
 340 00e2 8022     		movs	r2, #128
 341 00e4 5200     		lsls	r2, r2, #1
 342 00e6 1E4B     		ldr	r3, .L16+12
 343 00e8 1A80     		strh	r2, [r3]
 613:Generated_Source\PSoC4/cyfitter_cfg.c **** 		CY_SET_REG8((void *)(CYREG_UDB_BCTL0_DRV + 0x2u), 0x01u);
ARM GAS  C:\Users\Xwx47\AppData\Local\Temp\cc8bysOg.s 			page 18


 344              		.loc 1 613 0
 345 00ea 0123     		movs	r3, #1
 346 00ec 1D4A     		ldr	r2, .L16+16
 347 00ee 1370     		strb	r3, [r2]
 614:Generated_Source\PSoC4/cyfitter_cfg.c **** 
 615:Generated_Source\PSoC4/cyfitter_cfg.c **** 		/* HSIOM Starting address: CYDEV_HSIOM_BASE */
 616:Generated_Source\PSoC4/cyfitter_cfg.c **** 		CY_SET_REG32((void *)(CYREG_HSIOM_PORT_SEL3), 0x0000EE30u);
 348              		.loc 1 616 0
 349 00f0 1D49     		ldr	r1, .L16+20
 350 00f2 1E4A     		ldr	r2, .L16+24
 351 00f4 1160     		str	r1, [r2]
 617:Generated_Source\PSoC4/cyfitter_cfg.c **** 
 618:Generated_Source\PSoC4/cyfitter_cfg.c **** 		/* UDB_PA_1 Starting address: CYDEV_UDB_PA1_BASE */
 619:Generated_Source\PSoC4/cyfitter_cfg.c **** 		CY_SET_REG32((void *)(CYDEV_UDB_PA1_BASE), 0x00990000u);
 352              		.loc 1 619 0
 353 00f6 9921     		movs	r1, #153
 354 00f8 0904     		lsls	r1, r1, #16
 355 00fa 1D4A     		ldr	r2, .L16+28
 356 00fc 1160     		str	r1, [r2]
 620:Generated_Source\PSoC4/cyfitter_cfg.c **** 
 621:Generated_Source\PSoC4/cyfitter_cfg.c **** 		/* UDB_PA_3 Starting address: CYDEV_UDB_PA3_BASE */
 622:Generated_Source\PSoC4/cyfitter_cfg.c **** 		CY_SET_REG32((void *)(CYDEV_UDB_PA3_BASE), 0x00990004u);
 357              		.loc 1 622 0
 358 00fe 1D49     		ldr	r1, .L16+32
 359 0100 1D4A     		ldr	r2, .L16+36
 360 0102 1160     		str	r1, [r2]
 623:Generated_Source\PSoC4/cyfitter_cfg.c **** 		CY_SET_REG32((void *)(CYREG_UDB_PA3_CFG4), 0x00020000u);
 361              		.loc 1 623 0
 362 0104 8021     		movs	r1, #128
 363 0106 8902     		lsls	r1, r1, #10
 364 0108 1C4A     		ldr	r2, .L16+40
 365 010a 1160     		str	r1, [r2]
 624:Generated_Source\PSoC4/cyfitter_cfg.c **** 		CY_SET_REG32((void *)(CYREG_UDB_PA3_CFG8), 0x000C0000u);
 366              		.loc 1 624 0
 367 010c C021     		movs	r1, #192
 368 010e 0903     		lsls	r1, r1, #12
 369 0110 1B4A     		ldr	r2, .L16+44
 370 0112 1160     		str	r1, [r2]
 625:Generated_Source\PSoC4/cyfitter_cfg.c **** 
 626:Generated_Source\PSoC4/cyfitter_cfg.c **** 		/* INT_SELECT Starting address: CYDEV_CPUSS_INTR_SELECT */
 627:Generated_Source\PSoC4/cyfitter_cfg.c **** 		CY_SET_REG32((void *)(CYREG_CPUSS_INTR_SELECT), 0x00000001u);
 371              		.loc 1 627 0
 372 0114 1B4A     		ldr	r2, .L16+48
 373 0116 1360     		str	r3, [r2]
 628:Generated_Source\PSoC4/cyfitter_cfg.c **** 
 629:Generated_Source\PSoC4/cyfitter_cfg.c **** 		/* INT_CONFIG Starting address: CYDEV_UDB_INT_CFG */
 630:Generated_Source\PSoC4/cyfitter_cfg.c **** 		CY_SET_REG32((void *)(CYREG_UDB_INT_CFG), 0x00000002u);
 374              		.loc 1 630 0
 375 0118 0221     		movs	r1, #2
 376 011a 1B4B     		ldr	r3, .L16+52
 377 011c 1960     		str	r1, [r3]
 631:Generated_Source\PSoC4/cyfitter_cfg.c **** 
 632:Generated_Source\PSoC4/cyfitter_cfg.c **** 		/* Enable UDB array and digital routing */
 633:Generated_Source\PSoC4/cyfitter_cfg.c **** 		CY_SET_XTND_REG8((void *)CYREG_UDB_UDBIF_WAIT_CFG, (uint8)((CY_GET_XTND_REG8((void *)CYREG_UDB_UD
 378              		.loc 1 633 0
 379 011e 1B48     		ldr	r0, .L16+56
 380 0120 0378     		ldrb	r3, [r0]
ARM GAS  C:\Users\Xwx47\AppData\Local\Temp\cc8bysOg.s 			page 19


 381 0122 3C22     		movs	r2, #60
 382 0124 9343     		bics	r3, r2
 383 0126 1422     		movs	r2, #20
 384 0128 1343     		orrs	r3, r2
 385 012a DBB2     		uxtb	r3, r3
 386 012c 0370     		strb	r3, [r0]
 634:Generated_Source\PSoC4/cyfitter_cfg.c **** 		CY_SET_XTND_REG8((void *)CYREG_UDB_UDBIF_BANK_CTL, (uint8)(CY_GET_XTND_REG8((void *)CYREG_UDB_UDB
 387              		.loc 1 634 0
 388 012e 184A     		ldr	r2, .L16+60
 389 0130 1078     		ldrb	r0, [r2]
 390 0132 1623     		movs	r3, #22
 391 0134 0343     		orrs	r3, r0
 392 0136 DBB2     		uxtb	r3, r3
 393 0138 1370     		strb	r3, [r2]
 394              	.LBE3:
 635:Generated_Source\PSoC4/cyfitter_cfg.c **** 	}
 636:Generated_Source\PSoC4/cyfitter_cfg.c **** 
 637:Generated_Source\PSoC4/cyfitter_cfg.c **** 	/* Perform second pass device configuration. These items must be configured in specific order afte
 638:Generated_Source\PSoC4/cyfitter_cfg.c **** 	/* IOPINS0_1 Starting address: CYDEV_PRT1_BASE */
 639:Generated_Source\PSoC4/cyfitter_cfg.c **** 	CY_SET_REG32((void *)(CYREG_PRT1_PC), 0x00180000u);
 395              		.loc 1 639 0
 396 013a C022     		movs	r2, #192
 397 013c 5203     		lsls	r2, r2, #13
 398 013e 154B     		ldr	r3, .L16+64
 399 0140 1A60     		str	r2, [r3]
 640:Generated_Source\PSoC4/cyfitter_cfg.c **** 
 641:Generated_Source\PSoC4/cyfitter_cfg.c **** 	/* IOPINS0_3 Starting address: CYDEV_PRT3_BASE */
 642:Generated_Source\PSoC4/cyfitter_cfg.c **** 	CY_SET_REG32((void *)(CYDEV_PRT3_BASE), 0x00000002u);
 400              		.loc 1 642 0
 401 0142 154B     		ldr	r3, .L16+68
 402 0144 1960     		str	r1, [r3]
 643:Generated_Source\PSoC4/cyfitter_cfg.c **** 	CY_SET_REG32((void *)(CYREG_PRT3_PC), 0x00000DB1u);
 403              		.loc 1 643 0
 404 0146 154A     		ldr	r2, .L16+72
 405 0148 154B     		ldr	r3, .L16+76
 406 014a 1A60     		str	r2, [r3]
 644:Generated_Source\PSoC4/cyfitter_cfg.c **** 
 645:Generated_Source\PSoC4/cyfitter_cfg.c **** 
 646:Generated_Source\PSoC4/cyfitter_cfg.c **** 	/* Setup clocks based on selections from Clock DWR */
 647:Generated_Source\PSoC4/cyfitter_cfg.c **** 	ClockSetup();
 407              		.loc 1 647 0
 408 014c FFF758FF 		bl	ClockSetup
 409              	.LVL33:
 648:Generated_Source\PSoC4/cyfitter_cfg.c **** 
 649:Generated_Source\PSoC4/cyfitter_cfg.c **** 	/* Perform basic analog initialization to defaults */
 650:Generated_Source\PSoC4/cyfitter_cfg.c **** 	AnalogSetDefault();
 651:Generated_Source\PSoC4/cyfitter_cfg.c **** 
 652:Generated_Source\PSoC4/cyfitter_cfg.c **** }
 410              		.loc 1 652 0
 411              		@ sp needed
 412              	.LVL34:
 413 0150 70BD     		pop	{r4, r5, r6, pc}
 414              	.L17:
 415 0152 C046     		.align	2
 416              	.L16:
 417 0154 1C700F40 		.word	1074753564
 418 0158 00000000 		.word	.LANCHOR0
ARM GAS  C:\Users\Xwx47\AppData\Local\Temp\cc8bysOg.s 			page 20


 419 015c 00020000 		.word	.LANCHOR1
 420 0160 00600F40 		.word	1074749440
 421 0164 02600F40 		.word	1074749442
 422 0168 30EE0000 		.word	60976
 423 016c 0C000140 		.word	1073807372
 424 0170 10500F40 		.word	1074745360
 425 0174 04009900 		.word	10027012
 426 0178 30500F40 		.word	1074745392
 427 017c 34500F40 		.word	1074745396
 428 0180 38500F40 		.word	1074745400
 429 0184 20000040 		.word	1073741856
 430 0188 00800F40 		.word	1074757632
 431 018c 01700F40 		.word	1074753537
 432 0190 00700F40 		.word	1074753536
 433 0194 08010440 		.word	1074004232
 434 0198 00030440 		.word	1074004736
 435 019c B10D0000 		.word	3505
 436 01a0 08030440 		.word	1074004744
 437              		.cfi_endproc
 438              	.LFE6:
 439              		.size	cyfitter_cfg, .-cyfitter_cfg
 440              		.section	.rodata
 441              		.align	2
 442              		.set	.LANCHOR0,. + 0
 443              		.set	.LANCHOR1,. + 512
 444              		.type	cfg_memset_list.4875, %object
 445              		.size	cfg_memset_list.4875, 18
 446              	cfg_memset_list.4875:
 447 0000 00300F40 		.word	1074737152
 448 0004 0002     		.short	512
 449 0006 80320F40 		.4byte	1074737792
 450 000a 8001     		.short	384
 451 000c 00400F40 		.word	1074741248
 452 0010 0004     		.short	1024
 453 0012 0000     		.space	2
 454              		.type	cfg_memcpy_list.4877, %object
 455              		.size	cfg_memcpy_list.4877, 10
 456              	cfg_memcpy_list.4877:
 457 0014 00320F40 		.word	1074737664
 458 0018 24020000 		.word	BS_UDB_0_0_1_CONFIG_VAL.4876
 459 001c 8000     		.short	128
 460 001e 0000     		.space	2
 461              		.type	cy_cfg_data_table.4865, %object
 462              		.size	cy_cfg_data_table.4865, 484
 463              	cy_cfg_data_table.4865:
 464 0020 80       		.byte	-128
 465 0021 0F       		.byte	15
 466 0022 81       		.byte	-127
 467 0023 38       		.byte	56
 468 0024 82       		.byte	-126
 469 0025 71       		.byte	113
 470 0026 04       		.byte	4
 471 0027 0C       		.byte	12
 472 0028 06       		.byte	6
 473 0029 71       		.byte	113
 474 002a 0C       		.byte	12
 475 002b 10       		.byte	16
ARM GAS  C:\Users\Xwx47\AppData\Local\Temp\cc8bysOg.s 			page 21


 476 002c 0E       		.byte	14
 477 002d AC       		.byte	-84
 478 002e 0F       		.byte	15
 479 002f 0C       		.byte	12
 480 0030 12       		.byte	18
 481 0031 03       		.byte	3
 482 0032 14       		.byte	20
 483 0033 DC       		.byte	-36
 484 0034 15       		.byte	21
 485 0035 80       		.byte	-128
 486 0036 16       		.byte	22
 487 0037 22       		.byte	34
 488 0038 17       		.byte	23
 489 0039 13       		.byte	19
 490 003a 18       		.byte	24
 491 003b 14       		.byte	20
 492 003c 19       		.byte	25
 493 003d 2C       		.byte	44
 494 003e 1B       		.byte	27
 495 003f 43       		.byte	67
 496 0040 1C       		.byte	28
 497 0041 09       		.byte	9
 498 0042 1E       		.byte	30
 499 0043 D0       		.byte	-48
 500 0044 1F       		.byte	31
 501 0045 08       		.byte	8
 502 0046 20       		.byte	32
 503 0047 10       		.byte	16
 504 0048 22       		.byte	34
 505 0049 40       		.byte	64
 506 004a 29       		.byte	41
 507 004b 71       		.byte	113
 508 004c 2A       		.byte	42
 509 004d 20       		.byte	32
 510 004e 2B       		.byte	43
 511 004f 0E       		.byte	14
 512 0050 2D       		.byte	45
 513 0051 71       		.byte	113
 514 0052 2F       		.byte	47
 515 0053 06       		.byte	6
 516 0054 30       		.byte	48
 517 0055 1F       		.byte	31
 518 0056 31       		.byte	49
 519 0057 C0       		.byte	-64
 520 0058 33       		.byte	51
 521 0059 30       		.byte	48
 522 005a 34       		.byte	52
 523 005b E0       		.byte	-32
 524 005c 35       		.byte	53
 525 005d 0F       		.byte	15
 526 005e 39       		.byte	57
 527 005f 0A       		.byte	10
 528 0060 3A       		.byte	58
 529 0061 20       		.byte	32
 530 0062 3B       		.byte	59
 531 0063 20       		.byte	32
 532 0064 3F       		.byte	63
ARM GAS  C:\Users\Xwx47\AppData\Local\Temp\cc8bysOg.s 			page 22


 533 0065 04       		.byte	4
 534 0066 40       		.byte	64
 535 0067 16       		.byte	22
 536 0068 41       		.byte	65
 537 0069 03       		.byte	3
 538 006a 45       		.byte	69
 539 006b 0B       		.byte	11
 540 006c 46       		.byte	70
 541 006d 0C       		.byte	12
 542 006e 47       		.byte	71
 543 006f 0E       		.byte	14
 544 0070 48       		.byte	72
 545 0071 15       		.byte	21
 546 0072 49       		.byte	73
 547 0073 FF       		.byte	-1
 548 0074 4A       		.byte	74
 549 0075 FF       		.byte	-1
 550 0076 4B       		.byte	75
 551 0077 FF       		.byte	-1
 552 0078 4E       		.byte	78
 553 0079 F0       		.byte	-16
 554 007a 4F       		.byte	79
 555 007b 44       		.byte	68
 556 007c 50       		.byte	80
 557 007d 0C       		.byte	12
 558 007e 54       		.byte	84
 559 007f 01       		.byte	1
 560 0080 58       		.byte	88
 561 0081 04       		.byte	4
 562 0082 59       		.byte	89
 563 0083 04       		.byte	4
 564 0084 5A       		.byte	90
 565 0085 04       		.byte	4
 566 0086 5B       		.byte	91
 567 0087 04       		.byte	4
 568 0088 5F       		.byte	95
 569 0089 01       		.byte	1
 570 008a 66       		.byte	102
 571 008b C0       		.byte	-64
 572 008c 6A       		.byte	106
 573 008d 40       		.byte	64
 574 008e 6B       		.byte	107
 575 008f 02       		.byte	2
 576 0090 82       		.byte	-126
 577 0091 40       		.byte	64
 578 0092 84       		.byte	-124
 579 0093 20       		.byte	32
 580 0094 88       		.byte	-120
 581 0095 20       		.byte	32
 582 0096 8E       		.byte	-114
 583 0097 08       		.byte	8
 584 0098 90       		.byte	-112
 585 0099 20       		.byte	32
 586 009a 96       		.byte	-106
 587 009b 15       		.byte	21
 588 009c 9E       		.byte	-98
 589 009d 40       		.byte	64
ARM GAS  C:\Users\Xwx47\AppData\Local\Temp\cc8bysOg.s 			page 23


 590 009e A0       		.byte	-96
 591 009f 03       		.byte	3
 592 00a0 A2       		.byte	-94
 593 00a1 14       		.byte	20
 594 00a2 A4       		.byte	-92
 595 00a3 13       		.byte	19
 596 00a4 A6       		.byte	-90
 597 00a5 04       		.byte	4
 598 00a6 A8       		.byte	-88
 599 00a7 0A       		.byte	10
 600 00a8 AA       		.byte	-86
 601 00a9 14       		.byte	20
 602 00aa AC       		.byte	-84
 603 00ab 13       		.byte	19
 604 00ac AE       		.byte	-82
 605 00ad 0C       		.byte	12
 606 00ae B0       		.byte	-80
 607 00af 0F       		.byte	15
 608 00b0 B2       		.byte	-78
 609 00b1 10       		.byte	16
 610 00b2 B4       		.byte	-76
 611 00b3 40       		.byte	64
 612 00b4 B6       		.byte	-74
 613 00b5 20       		.byte	32
 614 00b6 BA       		.byte	-70
 615 00b7 02       		.byte	2
 616 00b8 BB       		.byte	-69
 617 00b9 20       		.byte	32
 618 00ba BE       		.byte	-66
 619 00bb 14       		.byte	20
 620 00bc D4       		.byte	-44
 621 00bd 18       		.byte	24
 622 00be D6       		.byte	-42
 623 00bf 04       		.byte	4
 624 00c0 D8       		.byte	-40
 625 00c1 04       		.byte	4
 626 00c2 D9       		.byte	-39
 627 00c3 04       		.byte	4
 628 00c4 DB       		.byte	-37
 629 00c5 04       		.byte	4
 630 00c6 DF       		.byte	-33
 631 00c7 01       		.byte	1
 632 00c8 02       		.byte	2
 633 00c9 10       		.byte	16
 634 00ca 03       		.byte	3
 635 00cb 02       		.byte	2
 636 00cc 04       		.byte	4
 637 00cd 69       		.byte	105
 638 00ce 0A       		.byte	10
 639 00cf A2       		.byte	-94
 640 00d0 0B       		.byte	11
 641 00d1 04       		.byte	4
 642 00d2 0C       		.byte	12
 643 00d3 08       		.byte	8
 644 00d4 0E       		.byte	14
 645 00d5 40       		.byte	64
 646 00d6 0F       		.byte	15
ARM GAS  C:\Users\Xwx47\AppData\Local\Temp\cc8bysOg.s 			page 24


 647 00d7 02       		.byte	2
 648 00d8 10       		.byte	16
 649 00d9 88       		.byte	-120
 650 00da 14       		.byte	20
 651 00db 02       		.byte	2
 652 00dc 15       		.byte	21
 653 00dd 20       		.byte	32
 654 00de 16       		.byte	22
 655 00df 50       		.byte	80
 656 00e0 19       		.byte	25
 657 00e1 20       		.byte	32
 658 00e2 1A       		.byte	26
 659 00e3 80       		.byte	-128
 660 00e4 1C       		.byte	28
 661 00e5 20       		.byte	32
 662 00e6 1D       		.byte	29
 663 00e7 80       		.byte	-128
 664 00e8 1F       		.byte	31
 665 00e9 22       		.byte	34
 666 00ea 20       		.byte	32
 667 00eb 40       		.byte	64
 668 00ec 21       		.byte	33
 669 00ed 30       		.byte	48
 670 00ee 22       		.byte	34
 671 00ef 11       		.byte	17
 672 00f0 23       		.byte	35
 673 00f1 10       		.byte	16
 674 00f2 26       		.byte	38
 675 00f3 10       		.byte	16
 676 00f4 28       		.byte	40
 677 00f5 02       		.byte	2
 678 00f6 29       		.byte	41
 679 00f7 20       		.byte	32
 680 00f8 2A       		.byte	42
 681 00f9 10       		.byte	16
 682 00fa 2B       		.byte	43
 683 00fb 0A       		.byte	10
 684 00fc 30       		.byte	48
 685 00fd 88       		.byte	-120
 686 00fe 31       		.byte	49
 687 00ff 20       		.byte	32
 688 0100 38       		.byte	56
 689 0101 40       		.byte	64
 690 0102 40       		.byte	64
 691 0103 02       		.byte	2
 692 0104 43       		.byte	67
 693 0105 08       		.byte	8
 694 0106 48       		.byte	72
 695 0107 08       		.byte	8
 696 0108 4B       		.byte	75
 697 0109 04       		.byte	4
 698 010a 52       		.byte	82
 699 010b 48       		.byte	72
 700 010c 53       		.byte	83
 701 010d 80       		.byte	-128
 702 010e 58       		.byte	88
 703 010f 20       		.byte	32
ARM GAS  C:\Users\Xwx47\AppData\Local\Temp\cc8bysOg.s 			page 25


 704 0110 59       		.byte	89
 705 0111 89       		.byte	-119
 706 0112 5F       		.byte	95
 707 0113 02       		.byte	2
 708 0114 66       		.byte	102
 709 0115 20       		.byte	32
 710 0116 67       		.byte	103
 711 0117 42       		.byte	66
 712 0118 83       		.byte	-125
 713 0119 21       		.byte	33
 714 011a 87       		.byte	-121
 715 011b 40       		.byte	64
 716 011c 88       		.byte	-120
 717 011d 10       		.byte	16
 718 011e 89       		.byte	-119
 719 011f 80       		.byte	-128
 720 0120 C0       		.byte	-64
 721 0121 F5       		.byte	-11
 722 0122 C2       		.byte	-62
 723 0123 BF       		.byte	-65
 724 0124 C4       		.byte	-60
 725 0125 FA       		.byte	-6
 726 0126 CA       		.byte	-54
 727 0127 0C       		.byte	12
 728 0128 CC       		.byte	-52
 729 0129 0E       		.byte	14
 730 012a CE       		.byte	-50
 731 012b 08       		.byte	8
 732 012c D0       		.byte	-48
 733 012d 0A       		.byte	10
 734 012e D2       		.byte	-46
 735 012f 04       		.byte	4
 736 0130 D6       		.byte	-42
 737 0131 8F       		.byte	-113
 738 0132 D8       		.byte	-40
 739 0133 B0       		.byte	-80
 740 0134 90       		.byte	-112
 741 0135 04       		.byte	4
 742 0136 96       		.byte	-106
 743 0137 01       		.byte	1
 744 0138 A8       		.byte	-88
 745 0139 02       		.byte	2
 746 013a B2       		.byte	-78
 747 013b 02       		.byte	2
 748 013c B4       		.byte	-76
 749 013d 04       		.byte	4
 750 013e B6       		.byte	-74
 751 013f 01       		.byte	1
 752 0140 BE       		.byte	-66
 753 0141 14       		.byte	20
 754 0142 C0       		.byte	-64
 755 0143 06       		.byte	6
 756 0144 C6       		.byte	-58
 757 0145 04       		.byte	4
 758 0146 C9       		.byte	-55
 759 0147 FF       		.byte	-1
 760 0148 CA       		.byte	-54
ARM GAS  C:\Users\Xwx47\AppData\Local\Temp\cc8bysOg.s 			page 26


 761 0149 07       		.byte	7
 762 014a CB       		.byte	-53
 763 014b FF       		.byte	-1
 764 014c CC       		.byte	-52
 765 014d 40       		.byte	64
 766 014e CD       		.byte	-51
 767 014f 20       		.byte	32
 768 0150 CE       		.byte	-50
 769 0151 F0       		.byte	-16
 770 0152 CF       		.byte	-49
 771 0153 05       		.byte	5
 772 0154 D0       		.byte	-48
 773 0155 08       		.byte	8
 774 0156 D8       		.byte	-40
 775 0157 04       		.byte	4
 776 0158 DA       		.byte	-38
 777 0159 04       		.byte	4
 778 015a DF       		.byte	-33
 779 015b 01       		.byte	1
 780 015c E0       		.byte	-32
 781 015d 40       		.byte	64
 782 015e E1       		.byte	-31
 783 015f A8       		.byte	-88
 784 0160 E2       		.byte	-30
 785 0161 40       		.byte	64
 786 0162 E3       		.byte	-29
 787 0163 20       		.byte	32
 788 0164 04       		.byte	4
 789 0165 40       		.byte	64
 790 0166 07       		.byte	7
 791 0167 48       		.byte	72
 792 0168 08       		.byte	8
 793 0169 08       		.byte	8
 794 016a 0A       		.byte	10
 795 016b 80       		.byte	-128
 796 016c 0E       		.byte	14
 797 016d 29       		.byte	41
 798 016e 12       		.byte	18
 799 016f 08       		.byte	8
 800 0170 14       		.byte	20
 801 0171 80       		.byte	-128
 802 0172 15       		.byte	21
 803 0173 10       		.byte	16
 804 0174 16       		.byte	22
 805 0175 11       		.byte	17
 806 0176 18       		.byte	24
 807 0177 04       		.byte	4
 808 0178 19       		.byte	25
 809 0179 08       		.byte	8
 810 017a 1A       		.byte	26
 811 017b 01       		.byte	1
 812 017c 1C       		.byte	28
 813 017d 41       		.byte	65
 814 017e 1F       		.byte	31
 815 017f 1A       		.byte	26
 816 0180 27       		.byte	39
 817 0181 A6       		.byte	-90
ARM GAS  C:\Users\Xwx47\AppData\Local\Temp\cc8bysOg.s 			page 27


 818 0182 2D       		.byte	45
 819 0183 10       		.byte	16
 820 0184 2F       		.byte	47
 821 0185 1A       		.byte	26
 822 0186 34       		.byte	52
 823 0187 0A       		.byte	10
 824 0188 35       		.byte	53
 825 0189 20       		.byte	32
 826 018a 36       		.byte	54
 827 018b 10       		.byte	16
 828 018c 37       		.byte	55
 829 018d 80       		.byte	-128
 830 018e 38       		.byte	56
 831 018f 03       		.byte	3
 832 0190 3D       		.byte	61
 833 0191 01       		.byte	1
 834 0192 42       		.byte	66
 835 0193 20       		.byte	32
 836 0194 43       		.byte	67
 837 0195 04       		.byte	4
 838 0196 44       		.byte	68
 839 0197 8A       		.byte	-118
 840 0198 45       		.byte	69
 841 0199 80       		.byte	-128
 842 019a 47       		.byte	71
 843 019b 40       		.byte	64
 844 019c 4B       		.byte	75
 845 019d 10       		.byte	16
 846 019e 4C       		.byte	76
 847 019f 01       		.byte	1
 848 01a0 4D       		.byte	77
 849 01a1 21       		.byte	33
 850 01a2 50       		.byte	80
 851 01a3 88       		.byte	-120
 852 01a4 57       		.byte	87
 853 01a5 01       		.byte	1
 854 01a6 5F       		.byte	95
 855 01a7 20       		.byte	32
 856 01a8 6C       		.byte	108
 857 01a9 14       		.byte	20
 858 01aa 6E       		.byte	110
 859 01ab 40       		.byte	64
 860 01ac 76       		.byte	118
 861 01ad 11       		.byte	17
 862 01ae 77       		.byte	119
 863 01af 08       		.byte	8
 864 01b0 84       		.byte	-124
 865 01b1 80       		.byte	-128
 866 01b2 87       		.byte	-121
 867 01b3 10       		.byte	16
 868 01b4 8C       		.byte	-116
 869 01b5 0C       		.byte	12
 870 01b6 8E       		.byte	-114
 871 01b7 04       		.byte	4
 872 01b8 92       		.byte	-110
 873 01b9 80       		.byte	-128
 874 01ba 93       		.byte	-109
ARM GAS  C:\Users\Xwx47\AppData\Local\Temp\cc8bysOg.s 			page 28


 875 01bb 10       		.byte	16
 876 01bc 94       		.byte	-108
 877 01bd 29       		.byte	41
 878 01be 96       		.byte	-106
 879 01bf 40       		.byte	64
 880 01c0 9D       		.byte	-99
 881 01c1 08       		.byte	8
 882 01c2 9E       		.byte	-98
 883 01c3 20       		.byte	32
 884 01c4 9F       		.byte	-97
 885 01c5 02       		.byte	2
 886 01c6 A1       		.byte	-95
 887 01c7 80       		.byte	-128
 888 01c8 A2       		.byte	-94
 889 01c9 18       		.byte	24
 890 01ca A4       		.byte	-92
 891 01cb 88       		.byte	-120
 892 01cc A7       		.byte	-89
 893 01cd 01       		.byte	1
 894 01ce A8       		.byte	-88
 895 01cf 20       		.byte	32
 896 01d0 AB       		.byte	-85
 897 01d1 80       		.byte	-128
 898 01d2 B5       		.byte	-75
 899 01d3 01       		.byte	1
 900 01d4 B6       		.byte	-74
 901 01d5 08       		.byte	8
 902 01d6 C0       		.byte	-64
 903 01d7 D0       		.byte	-48
 904 01d8 C2       		.byte	-62
 905 01d9 EC       		.byte	-20
 906 01da C4       		.byte	-60
 907 01db F2       		.byte	-14
 908 01dc CA       		.byte	-54
 909 01dd 70       		.byte	112
 910 01de CC       		.byte	-52
 911 01df F0       		.byte	-16
 912 01e0 CE       		.byte	-50
 913 01e1 80       		.byte	-128
 914 01e2 D0       		.byte	-48
 915 01e3 B0       		.byte	-80
 916 01e4 D2       		.byte	-46
 917 01e5 34       		.byte	52
 918 01e6 D6       		.byte	-42
 919 01e7 20       		.byte	32
 920 01e8 6E       		.byte	110
 921 01e9 80       		.byte	-128
 922 01ea 86       		.byte	-122
 923 01eb 40       		.byte	64
 924 01ec DA       		.byte	-38
 925 01ed 80       		.byte	-128
 926 01ee E6       		.byte	-26
 927 01ef 40       		.byte	64
 928 01f0 01       		.byte	1
 929 01f1 08       		.byte	8
 930 01f2 54       		.byte	84
 931 01f3 02       		.byte	2
ARM GAS  C:\Users\Xwx47\AppData\Local\Temp\cc8bysOg.s 			page 29


 932 01f4 8C       		.byte	-116
 933 01f5 02       		.byte	2
 934 01f6 8D       		.byte	-115
 935 01f7 08       		.byte	8
 936 01f8 C0       		.byte	-64
 937 01f9 08       		.byte	8
 938 01fa D6       		.byte	-42
 939 01fb 04       		.byte	4
 940 01fc E2       		.byte	-30
 941 01fd 02       		.byte	2
 942 01fe E4       		.byte	-28
 943 01ff 02       		.byte	2
 944 0200 10       		.byte	16
 945 0201 01       		.byte	1
 946 0202 11       		.byte	17
 947 0203 01       		.byte	1
 948              		.type	cy_cfg_addr_table.4864, %object
 949              		.size	cy_cfg_addr_table.4864, 32
 950              	cy_cfg_addr_table.4864:
 951 0204 03000F40 		.word	1074724867
 952 0208 51300F40 		.word	1074737233
 953 020c 36310F40 		.word	1074737462
 954 0210 18320F40 		.word	1074737688
 955 0214 42330F40 		.word	1074737986
 956 0218 04400F40 		.word	1074741252
 957 021c 08430F40 		.word	1074742024
 958 0220 02600F40 		.word	1074749442
 959              		.type	BS_UDB_0_0_1_CONFIG_VAL.4876, %object
 960              		.size	BS_UDB_0_0_1_CONFIG_VAL.4876, 128
 961              	BS_UDB_0_0_1_CONFIG_VAL.4876:
 962 0224 00       		.byte	0
 963 0225 00       		.byte	0
 964 0226 E3       		.byte	-29
 965 0227 02       		.byte	2
 966 0228 00       		.byte	0
 967 0229 00       		.byte	0
 968 022a 00       		.byte	0
 969 022b 00       		.byte	0
 970 022c 08       		.byte	8
 971 022d 00       		.byte	0
 972 022e 00       		.byte	0
 973 022f 00       		.byte	0
 974 0230 9C       		.byte	-100
 975 0231 00       		.byte	0
 976 0232 61       		.byte	97
 977 0233 00       		.byte	0
 978 0234 00       		.byte	0
 979 0235 00       		.byte	0
 980 0236 00       		.byte	0
 981 0237 08       		.byte	8
 982 0238 FF       		.byte	-1
 983 0239 08       		.byte	8
 984 023a 00       		.byte	0
 985 023b 00       		.byte	0
 986 023c 84       		.byte	-124
 987 023d 0D       		.byte	13
 988 023e 00       		.byte	0
ARM GAS  C:\Users\Xwx47\AppData\Local\Temp\cc8bysOg.s 			page 30


 989 023f 00       		.byte	0
 990 0240 00       		.byte	0
 991 0241 00       		.byte	0
 992 0242 04       		.byte	4
 993 0243 02       		.byte	2
 994 0244 E7       		.byte	-25
 995 0245 00       		.byte	0
 996 0246 18       		.byte	24
 997 0247 00       		.byte	0
 998 0248 18       		.byte	24
 999 0249 0D       		.byte	13
 1000 024a 00       		.byte	0
 1001 024b 00       		.byte	0
 1002 024c 3C       		.byte	60
 1003 024d 01       		.byte	1
 1004 024e C2       		.byte	-62
 1005 024f 0C       		.byte	12
 1006 0250 10       		.byte	16
 1007 0251 01       		.byte	1
 1008 0252 00       		.byte	0
 1009 0253 0C       		.byte	12
 1010 0254 58       		.byte	88
 1011 0255 04       		.byte	4
 1012 0256 1F       		.byte	31
 1013 0257 01       		.byte	1
 1014 0258 98       		.byte	-104
 1015 0259 02       		.byte	2
 1016 025a 38       		.byte	56
 1017 025b 08       		.byte	8
 1018 025c 00       		.byte	0
 1019 025d 02       		.byte	2
 1020 025e 2A       		.byte	42
 1021 025f 00       		.byte	0
 1022 0260 00       		.byte	0
 1023 0261 00       		.byte	0
 1024 0262 00       		.byte	0
 1025 0263 14       		.byte	20
 1026 0264 41       		.byte	65
 1027 0265 06       		.byte	6
 1028 0266 05       		.byte	5
 1029 0267 00       		.byte	0
 1030 0268 02       		.byte	2
 1031 0269 E0       		.byte	-32
 1032 026a 00       		.byte	0
 1033 026b C0       		.byte	-64
 1034 026c 22       		.byte	34
 1035 026d FF       		.byte	-1
 1036 026e FF       		.byte	-1
 1037 026f FF       		.byte	-1
 1038 0270 62       		.byte	98
 1039 0271 A0       		.byte	-96
 1040 0272 F0       		.byte	-16
 1041 0273 41       		.byte	65
 1042 0274 0C       		.byte	12
 1043 0275 00       		.byte	0
 1044 0276 00       		.byte	0
 1045 0277 00       		.byte	0
ARM GAS  C:\Users\Xwx47\AppData\Local\Temp\cc8bysOg.s 			page 31


 1046 0278 00       		.byte	0
 1047 0279 00       		.byte	0
 1048 027a 02       		.byte	2
 1049 027b 11       		.byte	17
 1050 027c 04       		.byte	4
 1051 027d 04       		.byte	4
 1052 027e 04       		.byte	4
 1053 027f 04       		.byte	4
 1054 0280 00       		.byte	0
 1055 0281 00       		.byte	0
 1056 0282 00       		.byte	0
 1057 0283 01       		.byte	1
 1058 0284 00       		.byte	0
 1059 0285 00       		.byte	0
 1060 0286 00       		.byte	0
 1061 0287 00       		.byte	0
 1062 0288 00       		.byte	0
 1063 0289 00       		.byte	0
 1064 028a 40       		.byte	64
 1065 028b 02       		.byte	2
 1066 028c 00       		.byte	0
 1067 028d 10       		.byte	16
 1068 028e 30       		.byte	48
 1069 028f 10       		.byte	16
 1070 0290 00       		.byte	0
 1071 0291 10       		.byte	16
 1072 0292 10       		.byte	16
 1073 0293 12       		.byte	18
 1074 0294 00       		.byte	0
 1075 0295 00       		.byte	0
 1076 0296 00       		.byte	0
 1077 0297 00       		.byte	0
 1078 0298 00       		.byte	0
 1079 0299 00       		.byte	0
 1080 029a 00       		.byte	0
 1081 029b 00       		.byte	0
 1082 029c 00       		.byte	0
 1083 029d 00       		.byte	0
 1084 029e 00       		.byte	0
 1085 029f 00       		.byte	0
 1086 02a0 00       		.byte	0
 1087 02a1 00       		.byte	0
 1088 02a2 00       		.byte	0
 1089 02a3 00       		.byte	0
 1090              		.text
 1091              	.Letext0:
 1092              		.file 2 "c:\\program files (x86)\\cypress\\psoc creator\\4.1\\psoc creator\\import\\gnu\\arm\\5.4.
 1093              		.file 3 "Generated_Source\\PSoC4\\cytypes.h"
 1094              		.file 4 "Generated_Source\\PSoC4\\CyLib.h"