ARM GAS  C:\Users\Xwx47\AppData\Local\Temp\cc290KoJ.s 			page 1


   1              		.syntax unified
   2              		.cpu cortex-m0
   3              		.fpu softvfp
   4              		.eabi_attribute 20, 1
   5              		.eabi_attribute 21, 1
   6              		.eabi_attribute 23, 3
   7              		.eabi_attribute 24, 1
   8              		.eabi_attribute 25, 1
   9              		.eabi_attribute 26, 1
  10              		.eabi_attribute 30, 1
  11              		.eabi_attribute 34, 0
  12              		.eabi_attribute 18, 4
  13              		.thumb
  14              		.syntax unified
  15              		.file	"main.c"
  16              		.text
  17              	.Ltext0:
  18              		.cfi_sections	.debug_frame
  19              		.section	.text.vUARTTask,"ax",%progbits
  20              		.align	2
  21              		.code	16
  22              		.thumb_func
  23              		.type	vUARTTask, %function
  24              	vUARTTask:
  25              	.LFB35:
  26              		.file 1 "main.c"
   1:main.c        **** #include "project.h"
   2:main.c        **** 
   3:main.c        **** #include "FreeRTOS.h"
   4:main.c        **** #include "task.h"
   5:main.c        **** #include "stream_buffer.h"
   6:main.c        **** 
   7:main.c        **** // tasks
   8:main.c        **** static void vLEDTask (void *arg);
   9:main.c        **** static void vUARTTask (void *arg);
  10:main.c        **** 
  11:main.c        **** // setup
  12:main.c        **** static void prvHardwareSetup(void);
  13:main.c        **** 
  14:main.c        **** // interrupt handlers
  15:main.c        **** CY_ISR_PROTO(UART_Rx_Handler);
  16:main.c        **** 
  17:main.c        **** /**
  18:main.c        ****  * Stream buffers allow a stream of bytes to be passed from an
  19:main.c        ****  * interrupt service routine to a task. a byte stream can be of
  20:main.c        ****  * arbitrary length and does not necessarily have a beggining or
  21:main.c        ****  * end.
  22:main.c        ****  */
  23:main.c        **** #define sbiSTREAM_BUFFER_LENGTH_BYTES   (sizeof(char) * 10)
  24:main.c        **** #define sbiSTREAM_BUFFER_TRIGGER_LEVEL  ((BaseType_t)1)
  25:main.c        **** 
  26:main.c        **** static StreamBufferHandle_t xStreamBuffer = NULL;
  27:main.c        **** 
  28:main.c        **** int main(void)
  29:main.c        **** {    
  30:main.c        ****     prvHardwareSetup();
  31:main.c        ****     
ARM GAS  C:\Users\Xwx47\AppData\Local\Temp\cc290KoJ.s 			page 2


  32:main.c        ****     xStreamBuffer = xStreamBufferCreate(
  33:main.c        ****         sbiSTREAM_BUFFER_LENGTH_BYTES,
  34:main.c        ****         /* The number of bytes that must be in the stream buffer
  35:main.c        ****          * before a task that is blocked on the stream buffer to
  36:main.c        ****          * wait for data is moved out of the blocked state. */
  37:main.c        ****         sbiSTREAM_BUFFER_TRIGGER_LEVEL
  38:main.c        ****     );
  39:main.c        **** 
  40:main.c        ****     xTaskCreate(
  41:main.c        ****         (TaskFunction_t) vLEDTask,
  42:main.c        ****         "LED",
  43:main.c        ****         configMINIMAL_STACK_SIZE,
  44:main.c        ****         (void*) 500,
  45:main.c        ****         tskIDLE_PRIORITY + 1,
  46:main.c        ****         NULL
  47:main.c        ****     );
  48:main.c        **** 
  49:main.c        ****     xTaskCreate(
  50:main.c        ****         (TaskFunction_t) vUARTTask,
  51:main.c        ****         "UART",
  52:main.c        ****         configMINIMAL_STACK_SIZE,
  53:main.c        ****         NULL,
  54:main.c        ****         tskIDLE_PRIORITY + 1,
  55:main.c        ****         NULL
  56:main.c        ****     );
  57:main.c        ****     
  58:main.c        ****     vTaskStartScheduler();
  59:main.c        **** 
  60:main.c        ****     while(1) {
  61:main.c        ****     }
  62:main.c        **** }
  63:main.c        **** 
  64:main.c        **** static void vLEDTask (void *arg)
  65:main.c        **** {
  66:main.c        ****     const TickType_t time = pdMS_TO_TICKS((TickType_t) arg);
  67:main.c        ****     
  68:main.c        ****     while(1) {
  69:main.c        ****         LED_Write(~LED_Read());
  70:main.c        ****         vTaskDelay(time);
  71:main.c        ****     }
  72:main.c        **** }
  73:main.c        **** 
  74:main.c        **** CY_ISR(UART_Rx_Handler)
  75:main.c        **** {  
  76:main.c        ****     char data = UART_GetChar();
  77:main.c        ****     
  78:main.c        ****     xStreamBufferSendFromISR(
  79:main.c        ****         xStreamBuffer,
  80:main.c        ****         (void*) &data,
  81:main.c        ****         sizeof(char),
  82:main.c        ****         NULL
  83:main.c        ****     );
  84:main.c        ****     
  85:main.c        ****     isr_UART_Rx_ClearPending();
  86:main.c        **** }
  87:main.c        **** 
  88:main.c        **** static void vUARTTask (void *arg)
ARM GAS  C:\Users\Xwx47\AppData\Local\Temp\cc290KoJ.s 			page 3


  89:main.c        **** {
  27              		.loc 1 89 0
  28              		.cfi_startproc
  29              		@ args = 0, pretend = 0, frame = 8
  30              		@ frame_needed = 0, uses_anonymous_args = 0
  31              	.LVL0:
  32 0000 10B5     		push	{r4, lr}
  33              		.cfi_def_cfa_offset 8
  34              		.cfi_offset 4, -8
  35              		.cfi_offset 14, -4
  36 0002 82B0     		sub	sp, sp, #8
  37              		.cfi_def_cfa_offset 16
  38              	.LVL1:
  39              	.L2:
  90:main.c        ****     (void)arg;
  91:main.c        ****     char data_received;
  92:main.c        ****     
  93:main.c        ****     while(1) {
  94:main.c        ****         
  95:main.c        ****         xStreamBufferReceive(
  40              		.loc 1 95 0 discriminator 1
  41 0004 6B46     		mov	r3, sp
  42 0006 DC1D     		adds	r4, r3, #7
  43 0008 054B     		ldr	r3, .L3
  44 000a 1868     		ldr	r0, [r3]
  45 000c 0123     		movs	r3, #1
  46 000e 5B42     		rsbs	r3, r3, #0
  47 0010 0122     		movs	r2, #1
  48 0012 2100     		movs	r1, r4
  49 0014 FFF7FEFF 		bl	xStreamBufferReceive
  50              	.LVL2:
  96:main.c        ****             xStreamBuffer,
  97:main.c        ****             (void*) &data_received,
  98:main.c        ****             sizeof(char),
  99:main.c        ****             portMAX_DELAY
 100:main.c        ****         );
 101:main.c        ****         
 102:main.c        ****         UART_PutChar(data_received);
  51              		.loc 1 102 0 discriminator 1
  52 0018 2078     		ldrb	r0, [r4]
  53 001a FFF7FEFF 		bl	UART_PutChar
  54              	.LVL3:
  55 001e F1E7     		b	.L2
  56              	.L4:
  57              		.align	2
  58              	.L3:
  59 0020 00000000 		.word	.LANCHOR0
  60              		.cfi_endproc
  61              	.LFE35:
  62              		.size	vUARTTask, .-vUARTTask
  63              		.global	__aeabi_uidiv
  64              		.section	.text.vLEDTask,"ax",%progbits
  65              		.align	2
  66              		.code	16
  67              		.thumb_func
  68              		.type	vLEDTask, %function
  69              	vLEDTask:
ARM GAS  C:\Users\Xwx47\AppData\Local\Temp\cc290KoJ.s 			page 4


  70              	.LFB33:
  65:main.c        ****     const TickType_t time = pdMS_TO_TICKS((TickType_t) arg);
  71              		.loc 1 65 0
  72              		.cfi_startproc
  73              		@ args = 0, pretend = 0, frame = 0
  74              		@ frame_needed = 0, uses_anonymous_args = 0
  75              	.LVL4:
  76 0000 10B5     		push	{r4, lr}
  77              		.cfi_def_cfa_offset 8
  78              		.cfi_offset 4, -8
  79              		.cfi_offset 14, -4
  66:main.c        ****     
  80              		.loc 1 66 0
  81 0002 FA21     		movs	r1, #250
  82 0004 8900     		lsls	r1, r1, #2
  83 0006 4843     		muls	r0, r1
  84              	.LVL5:
  85 0008 FFF7FEFF 		bl	__aeabi_uidiv
  86              	.LVL6:
  87 000c 0400     		movs	r4, r0
  88              	.LVL7:
  89              	.L6:
  69:main.c        ****         vTaskDelay(time);
  90              		.loc 1 69 0 discriminator 1
  91 000e FFF7FEFF 		bl	LED_Read
  92              	.LVL8:
  93 0012 C043     		mvns	r0, r0
  94 0014 C0B2     		uxtb	r0, r0
  95 0016 FFF7FEFF 		bl	LED_Write
  96              	.LVL9:
  70:main.c        ****     }
  97              		.loc 1 70 0 discriminator 1
  98 001a 2000     		movs	r0, r4
  99 001c FFF7FEFF 		bl	vTaskDelay
 100              	.LVL10:
 101 0020 F5E7     		b	.L6
 102              		.cfi_endproc
 103              	.LFE33:
 104              		.size	vLEDTask, .-vLEDTask
 105 0022 C046     		.section	.text.prvHardwareSetup,"ax",%progbits
 106              		.align	2
 107              		.code	16
 108              		.thumb_func
 109              		.type	prvHardwareSetup, %function
 110              	prvHardwareSetup:
 111              	.LFB36:
 103:main.c        ****         
 104:main.c        ****     }
 105:main.c        **** }
 106:main.c        **** 
 107:main.c        **** static void prvHardwareSetup(void)
 108:main.c        **** {
 112              		.loc 1 108 0
 113              		.cfi_startproc
 114              		@ args = 0, pretend = 0, frame = 0
 115              		@ frame_needed = 0, uses_anonymous_args = 0
 116 0000 10B5     		push	{r4, lr}
ARM GAS  C:\Users\Xwx47\AppData\Local\Temp\cc290KoJ.s 			page 5


 117              		.cfi_def_cfa_offset 8
 118              		.cfi_offset 4, -8
 119              		.cfi_offset 14, -4
 120              	.LVL11:
 109:main.c        ****     // Port layer functions that need to be copied into the vector table.
 110:main.c        ****     extern void xPortPendSVHandler(void);
 111:main.c        ****     extern void xPortSysTickHandler(void);
 112:main.c        ****     extern void vPortSVCHandler(void );
 113:main.c        **** 
 114:main.c        ****     const uint8_t CORTEX_INTERRUPT_BASE = 16;
 115:main.c        ****     // Handler for Cortex Supervisor Call (SVC) - Address 11 (SVCall_IRQn = -5)
 116:main.c        ****     CyIntSetSysVector(CORTEX_INTERRUPT_BASE + SVCall_IRQn,
 121              		.loc 1 116 0
 122 0002 0949     		ldr	r1, .L8
 123 0004 0B20     		movs	r0, #11
 124 0006 FFF7FEFF 		bl	CyIntSetSysVector
 125              	.LVL12:
 117:main.c        ****                     (cyisraddress) vPortSVCHandler);
 118:main.c        ****     // Handler for Cortex PendSV Call - Address 14 (PendSV_IRQn = -2)
 119:main.c        ****     CyIntSetSysVector(CORTEX_INTERRUPT_BASE + PendSV_IRQn,
 126              		.loc 1 119 0
 127 000a 0849     		ldr	r1, .L8+4
 128 000c 0E20     		movs	r0, #14
 129 000e FFF7FEFF 		bl	CyIntSetSysVector
 130              	.LVL13:
 120:main.c        ****                     (cyisraddress) xPortPendSVHandler);
 121:main.c        ****     // Handler for Cortex SYSTICK - Address 15 (SysTick_IRQn = -1)
 122:main.c        ****     CyIntSetSysVector(CORTEX_INTERRUPT_BASE + SysTick_IRQn,
 131              		.loc 1 122 0
 132 0012 0749     		ldr	r1, .L8+8
 133 0014 0F20     		movs	r0, #15
 134 0016 FFF7FEFF 		bl	CyIntSetSysVector
 135              	.LVL14:
 123:main.c        ****                     (cyisraddress) xPortSysTickHandler);
 124:main.c        ****     
 125:main.c        ****     // Start-up the peripherals.
 126:main.c        ****     isr_UART_Rx_StartEx(UART_Rx_Handler);
 136              		.loc 1 126 0
 137 001a 0648     		ldr	r0, .L8+12
 138 001c FFF7FEFF 		bl	isr_UART_Rx_StartEx
 139              	.LVL15:
 127:main.c        ****     
 128:main.c        ****     CyGlobalIntEnable;
 140              		.loc 1 128 0
 141              		.syntax divided
 142              	@ 128 "main.c" 1
 143 0020 62B6     		CPSIE   i
 144              	@ 0 "" 2
 129:main.c        ****     
 130:main.c        ****     UART_Start();
 145              		.loc 1 130 0
 146              		.thumb
 147              		.syntax unified
 148 0022 FFF7FEFF 		bl	UART_Start
 149              	.LVL16:
 131:main.c        **** }
 150              		.loc 1 131 0
ARM GAS  C:\Users\Xwx47\AppData\Local\Temp\cc290KoJ.s 			page 6


 151              		@ sp needed
 152 0026 10BD     		pop	{r4, pc}
 153              	.L9:
 154              		.align	2
 155              	.L8:
 156 0028 00000000 		.word	SVC_Handler
 157 002c 00000000 		.word	PendSV_Handler
 158 0030 00000000 		.word	SysTick_Handler
 159 0034 00000000 		.word	UART_Rx_Handler
 160              		.cfi_endproc
 161              	.LFE36:
 162              		.size	prvHardwareSetup, .-prvHardwareSetup
 163              		.section	.text.UART_Rx_Handler,"ax",%progbits
 164              		.align	2
 165              		.global	UART_Rx_Handler
 166              		.code	16
 167              		.thumb_func
 168              		.type	UART_Rx_Handler, %function
 169              	UART_Rx_Handler:
 170              	.LFB34:
  75:main.c        ****     char data = UART_GetChar();
 171              		.loc 1 75 0
 172              		.cfi_startproc
 173              		@ args = 0, pretend = 0, frame = 8
 174              		@ frame_needed = 0, uses_anonymous_args = 0
 175 0000 00B5     		push	{lr}
 176              		.cfi_def_cfa_offset 4
 177              		.cfi_offset 14, -4
 178 0002 83B0     		sub	sp, sp, #12
 179              		.cfi_def_cfa_offset 16
  76:main.c        ****     
 180              		.loc 1 76 0
 181 0004 FFF7FEFF 		bl	UART_GetChar
 182              	.LVL17:
 183 0008 6B46     		mov	r3, sp
 184 000a D91D     		adds	r1, r3, #7
 185 000c 0870     		strb	r0, [r1]
  78:main.c        ****         xStreamBuffer,
 186              		.loc 1 78 0
 187 000e 054B     		ldr	r3, .L11
 188 0010 1868     		ldr	r0, [r3]
 189 0012 0023     		movs	r3, #0
 190 0014 0122     		movs	r2, #1
 191 0016 FFF7FEFF 		bl	xStreamBufferSendFromISR
 192              	.LVL18:
  85:main.c        **** }
 193              		.loc 1 85 0
 194 001a FFF7FEFF 		bl	isr_UART_Rx_ClearPending
 195              	.LVL19:
  86:main.c        **** 
 196              		.loc 1 86 0
 197 001e 03B0     		add	sp, sp, #12
 198              		@ sp needed
 199 0020 00BD     		pop	{pc}
 200              	.L12:
 201 0022 C046     		.align	2
 202              	.L11:
ARM GAS  C:\Users\Xwx47\AppData\Local\Temp\cc290KoJ.s 			page 7


 203 0024 00000000 		.word	.LANCHOR0
 204              		.cfi_endproc
 205              	.LFE34:
 206              		.size	UART_Rx_Handler, .-UART_Rx_Handler
 207              		.section	.text.main,"ax",%progbits
 208              		.align	2
 209              		.global	main
 210              		.code	16
 211              		.thumb_func
 212              		.type	main, %function
 213              	main:
 214              	.LFB32:
  29:main.c        ****     prvHardwareSetup();
 215              		.loc 1 29 0
 216              		.cfi_startproc
 217              		@ Volatile: function does not return.
 218              		@ args = 0, pretend = 0, frame = 0
 219              		@ frame_needed = 0, uses_anonymous_args = 0
 220 0000 30B5     		push	{r4, r5, lr}
 221              		.cfi_def_cfa_offset 12
 222              		.cfi_offset 4, -12
 223              		.cfi_offset 5, -8
 224              		.cfi_offset 14, -4
 225 0002 83B0     		sub	sp, sp, #12
 226              		.cfi_def_cfa_offset 24
  30:main.c        ****     
 227              		.loc 1 30 0
 228 0004 FFF7FEFF 		bl	prvHardwareSetup
 229              	.LVL20:
  32:main.c        ****         sbiSTREAM_BUFFER_LENGTH_BYTES,
 230              		.loc 1 32 0
 231 0008 0022     		movs	r2, #0
 232 000a 0121     		movs	r1, #1
 233 000c 0A20     		movs	r0, #10
 234 000e FFF7FEFF 		bl	xStreamBufferGenericCreate
 235              	.LVL21:
 236 0012 0C4B     		ldr	r3, .L15
 237 0014 1860     		str	r0, [r3]
  40:main.c        ****         (TaskFunction_t) vLEDTask,
 238              		.loc 1 40 0
 239 0016 0025     		movs	r5, #0
 240 0018 0195     		str	r5, [sp, #4]
 241 001a 0124     		movs	r4, #1
 242 001c 0094     		str	r4, [sp]
 243 001e FA23     		movs	r3, #250
 244 0020 5B00     		lsls	r3, r3, #1
 245 0022 3222     		movs	r2, #50
 246 0024 0849     		ldr	r1, .L15+4
 247 0026 0948     		ldr	r0, .L15+8
 248 0028 FFF7FEFF 		bl	xTaskCreate
 249              	.LVL22:
  49:main.c        ****         (TaskFunction_t) vUARTTask,
 250              		.loc 1 49 0
 251 002c 0195     		str	r5, [sp, #4]
 252 002e 0094     		str	r4, [sp]
 253 0030 0023     		movs	r3, #0
 254 0032 3222     		movs	r2, #50
ARM GAS  C:\Users\Xwx47\AppData\Local\Temp\cc290KoJ.s 			page 8


 255 0034 0649     		ldr	r1, .L15+12
 256 0036 0748     		ldr	r0, .L15+16
 257 0038 FFF7FEFF 		bl	xTaskCreate
 258              	.LVL23:
  58:main.c        **** 
 259              		.loc 1 58 0
 260 003c FFF7FEFF 		bl	vTaskStartScheduler
 261              	.LVL24:
 262              	.L14:
 263 0040 FEE7     		b	.L14
 264              	.L16:
 265 0042 C046     		.align	2
 266              	.L15:
 267 0044 00000000 		.word	.LANCHOR0
 268 0048 00000000 		.word	.LC7
 269 004c 00000000 		.word	vLEDTask
 270 0050 04000000 		.word	.LC10
 271 0054 00000000 		.word	vUARTTask
 272              		.cfi_endproc
 273              	.LFE32:
 274              		.size	main, .-main
 275              		.section	.text.vApplicationMallocFailedHook,"ax",%progbits
 276              		.align	2
 277              		.global	vApplicationMallocFailedHook
 278              		.code	16
 279              		.thumb_func
 280              		.type	vApplicationMallocFailedHook, %function
 281              	vApplicationMallocFailedHook:
 282              	.LFB37:
 132:main.c        **** 
 133:main.c        **** // The heap space has been execeeded.
 134:main.c        **** void vApplicationMallocFailedHook(void)
 135:main.c        **** {
 283              		.loc 1 135 0
 284              		.cfi_startproc
 285              		@ Volatile: function does not return.
 286              		@ args = 0, pretend = 0, frame = 0
 287              		@ frame_needed = 0, uses_anonymous_args = 0
 288 0000 10B5     		push	{r4, lr}
 289              		.cfi_def_cfa_offset 8
 290              		.cfi_offset 4, -8
 291              		.cfi_offset 14, -4
 136:main.c        ****     taskDISABLE_INTERRUPTS();
 292              		.loc 1 136 0
 293              		.syntax divided
 294              	@ 136 "main.c" 1
 295 0002 72B6     		 cpsid i 
 296              	@ 0 "" 2
 137:main.c        ****     LED_Write(1);
 297              		.loc 1 137 0
 298              		.thumb
 299              		.syntax unified
 300 0004 0120     		movs	r0, #1
 301 0006 FFF7FEFF 		bl	LED_Write
 302              	.LVL25:
 303              	.L18:
 304 000a FEE7     		b	.L18
ARM GAS  C:\Users\Xwx47\AppData\Local\Temp\cc290KoJ.s 			page 9


 305              		.cfi_endproc
 306              	.LFE37:
 307              		.size	vApplicationMallocFailedHook, .-vApplicationMallocFailedHook
 308              		.section	.text.vApplicationStackOverflowHook,"ax",%progbits
 309              		.align	2
 310              		.global	vApplicationStackOverflowHook
 311              		.code	16
 312              		.thumb_func
 313              		.type	vApplicationStackOverflowHook, %function
 314              	vApplicationStackOverflowHook:
 315              	.LFB38:
 138:main.c        ****     while(1) {
 139:main.c        ****     }
 140:main.c        **** }
 141:main.c        **** 
 142:main.c        **** // The stack space has been overflowed
 143:main.c        **** void vApplicationStackOverflowHook(void)
 144:main.c        **** {
 316              		.loc 1 144 0
 317              		.cfi_startproc
 318              		@ Volatile: function does not return.
 319              		@ args = 0, pretend = 0, frame = 0
 320              		@ frame_needed = 0, uses_anonymous_args = 0
 321              		@ link register save eliminated.
 145:main.c        ****     taskDISABLE_INTERRUPTS();
 322              		.loc 1 145 0
 323              		.syntax divided
 324              	@ 145 "main.c" 1
 325 0000 72B6     		 cpsid i 
 326              	@ 0 "" 2
 327              		.thumb
 328              		.syntax unified
 329              	.L20:
 330 0002 FEE7     		b	.L20
 331              		.cfi_endproc
 332              	.LFE38:
 333              		.size	vApplicationStackOverflowHook, .-vApplicationStackOverflowHook
 334              		.section	.rodata.str1.4,"aMS",%progbits,1
 335              		.align	2
 336              	.LC7:
 337 0000 4C454400 		.ascii	"LED\000"
 338              	.LC10:
 339 0004 55415254 		.ascii	"UART\000"
 339      00
 340              		.bss
 341              		.align	2
 342              		.set	.LANCHOR0,. + 0
 343              		.type	xStreamBuffer, %object
 344              		.size	xStreamBuffer, 4
 345              	xStreamBuffer:
 346 0000 00000000 		.space	4
 347              		.text
 348              	.Letext0:
 349              		.file 2 "c:\\program files (x86)\\cypress\\psoc creator\\4.1\\psoc creator\\import\\gnu\\arm\\5.4.
 350              		.file 3 "c:\\program files (x86)\\cypress\\psoc creator\\4.1\\psoc creator\\import\\gnu\\arm\\5.4.
 351              		.file 4 "Generated_Source\\PSoC4/cytypes.h"
 352              		.file 5 "..\\FreeRTOS10\\include/projdefs.h"
ARM GAS  C:\Users\Xwx47\AppData\Local\Temp\cc290KoJ.s 			page 10


 353              		.file 6 "..\\FreeRTOS10\\portable\\GCC\\ARM_CM0/portmacro.h"
 354              		.file 7 "..\\FreeRTOS10\\include/stream_buffer.h"
 355              		.file 8 "Generated_Source\\PSoC4/UART.h"
 356              		.file 9 "Generated_Source\\PSoC4/LED.h"
 357              		.file 10 "..\\FreeRTOS10\\include/task.h"
 358              		.file 11 "Generated_Source\\PSoC4/CyLib.h"
 359              		.file 12 "Generated_Source\\PSoC4/isr_UART_Rx.h"
 360              		.file 13 "Generated_Source\\PSoC4/core_cm0_psoc4.h"