ARM GAS  C:\Users\Xwx47\AppData\Local\Temp\cccdwVHq.s 			page 1


   1              		.syntax unified
   2              		.cpu cortex-m0
   3              		.fpu softvfp
   4              		.eabi_attribute 20, 1
   5              		.eabi_attribute 21, 1
   6              		.eabi_attribute 23, 3
   7              		.eabi_attribute 24, 1
   8              		.eabi_attribute 25, 1
   9              		.eabi_attribute 26, 1
  10              		.eabi_attribute 30, 1
  11              		.eabi_attribute 34, 0
  12              		.eabi_attribute 18, 4
  13              		.thumb
  14              		.syntax unified
  15              		.file	"port.c"
  16              		.text
  17              	.Ltext0:
  18              		.cfi_sections	.debug_frame
  19              		.section	.text.prvTaskExitError,"ax",%progbits
  20              		.align	2
  21              		.code	16
  22              		.thumb_func
  23              		.type	prvTaskExitError, %function
  24              	prvTaskExitError:
  25              	.LFB33:
  26              		.file 1 "..\\FreeRTOS10\\portable\\GCC\\ARM_CM0\\port.c"
   1:..\FreeRTOS10\portable\GCC\ARM_CM0/port.c **** /*
   2:..\FreeRTOS10\portable\GCC\ARM_CM0/port.c ****  * FreeRTOS Kernel V10.0.0
   3:..\FreeRTOS10\portable\GCC\ARM_CM0/port.c ****  * Copyright (C) 2017 Amazon.com, Inc. or its affiliates.  All Rights Reserved.
   4:..\FreeRTOS10\portable\GCC\ARM_CM0/port.c ****  *
   5:..\FreeRTOS10\portable\GCC\ARM_CM0/port.c ****  * Permission is hereby granted, free of charge, to any person obtaining a copy of
   6:..\FreeRTOS10\portable\GCC\ARM_CM0/port.c ****  * this software and associated documentation files (the "Software"), to deal in
   7:..\FreeRTOS10\portable\GCC\ARM_CM0/port.c ****  * the Software without restriction, including without limitation the rights to
   8:..\FreeRTOS10\portable\GCC\ARM_CM0/port.c ****  * use, copy, modify, merge, publish, distribute, sublicense, and/or sell copies of
   9:..\FreeRTOS10\portable\GCC\ARM_CM0/port.c ****  * the Software, and to permit persons to whom the Software is furnished to do so,
  10:..\FreeRTOS10\portable\GCC\ARM_CM0/port.c ****  * subject to the following conditions:
  11:..\FreeRTOS10\portable\GCC\ARM_CM0/port.c ****  *
  12:..\FreeRTOS10\portable\GCC\ARM_CM0/port.c ****  * The above copyright notice and this permission notice shall be included in all
  13:..\FreeRTOS10\portable\GCC\ARM_CM0/port.c ****  * copies or substantial portions of the Software. If you wish to use our Amazon
  14:..\FreeRTOS10\portable\GCC\ARM_CM0/port.c ****  * FreeRTOS name, please do so in a fair use way that does not cause confusion.
  15:..\FreeRTOS10\portable\GCC\ARM_CM0/port.c ****  *
  16:..\FreeRTOS10\portable\GCC\ARM_CM0/port.c ****  * THE SOFTWARE IS PROVIDED "AS IS", WITHOUT WARRANTY OF ANY KIND, EXPRESS OR
  17:..\FreeRTOS10\portable\GCC\ARM_CM0/port.c ****  * IMPLIED, INCLUDING BUT NOT LIMITED TO THE WARRANTIES OF MERCHANTABILITY, FITNESS
  18:..\FreeRTOS10\portable\GCC\ARM_CM0/port.c ****  * FOR A PARTICULAR PURPOSE AND NONINFRINGEMENT. IN NO EVENT SHALL THE AUTHORS OR
  19:..\FreeRTOS10\portable\GCC\ARM_CM0/port.c ****  * COPYRIGHT HOLDERS BE LIABLE FOR ANY CLAIM, DAMAGES OR OTHER LIABILITY, WHETHER
  20:..\FreeRTOS10\portable\GCC\ARM_CM0/port.c ****  * IN AN ACTION OF CONTRACT, TORT OR OTHERWISE, ARISING FROM, OUT OF OR IN
  21:..\FreeRTOS10\portable\GCC\ARM_CM0/port.c ****  * CONNECTION WITH THE SOFTWARE OR THE USE OR OTHER DEALINGS IN THE SOFTWARE.
  22:..\FreeRTOS10\portable\GCC\ARM_CM0/port.c ****  *
  23:..\FreeRTOS10\portable\GCC\ARM_CM0/port.c ****  * http://www.FreeRTOS.org
  24:..\FreeRTOS10\portable\GCC\ARM_CM0/port.c ****  * http://aws.amazon.com/freertos
  25:..\FreeRTOS10\portable\GCC\ARM_CM0/port.c ****  *
  26:..\FreeRTOS10\portable\GCC\ARM_CM0/port.c ****  * 1 tab == 4 spaces!
  27:..\FreeRTOS10\portable\GCC\ARM_CM0/port.c ****  */
  28:..\FreeRTOS10\portable\GCC\ARM_CM0/port.c **** 
  29:..\FreeRTOS10\portable\GCC\ARM_CM0/port.c **** /*-----------------------------------------------------------
  30:..\FreeRTOS10\portable\GCC\ARM_CM0/port.c ****  * Implementation of functions defined in portable.h for the ARM CM0 port.
  31:..\FreeRTOS10\portable\GCC\ARM_CM0/port.c ****  *----------------------------------------------------------*/
ARM GAS  C:\Users\Xwx47\AppData\Local\Temp\cccdwVHq.s 			page 2


  32:..\FreeRTOS10\portable\GCC\ARM_CM0/port.c **** 
  33:..\FreeRTOS10\portable\GCC\ARM_CM0/port.c **** /* Scheduler includes. */
  34:..\FreeRTOS10\portable\GCC\ARM_CM0/port.c **** #include "FreeRTOS.h"
  35:..\FreeRTOS10\portable\GCC\ARM_CM0/port.c **** #include "task.h"
  36:..\FreeRTOS10\portable\GCC\ARM_CM0/port.c **** 
  37:..\FreeRTOS10\portable\GCC\ARM_CM0/port.c **** /* Constants required to manipulate the NVIC. */
  38:..\FreeRTOS10\portable\GCC\ARM_CM0/port.c **** #define portNVIC_SYSTICK_CTRL			( ( volatile uint32_t * ) 0xe000e010 )
  39:..\FreeRTOS10\portable\GCC\ARM_CM0/port.c **** #define portNVIC_SYSTICK_LOAD			( ( volatile uint32_t * ) 0xe000e014 )
  40:..\FreeRTOS10\portable\GCC\ARM_CM0/port.c **** #define portNVIC_SYSTICK_CURRENT_VALUE	( ( volatile uint32_t * ) 0xe000e018 )
  41:..\FreeRTOS10\portable\GCC\ARM_CM0/port.c **** #define portNVIC_INT_CTRL				( ( volatile uint32_t *) 0xe000ed04 )
  42:..\FreeRTOS10\portable\GCC\ARM_CM0/port.c **** #define portNVIC_SYSPRI2				( ( volatile uint32_t *) 0xe000ed20 )
  43:..\FreeRTOS10\portable\GCC\ARM_CM0/port.c **** #define portNVIC_SYSTICK_CLK			0x00000004
  44:..\FreeRTOS10\portable\GCC\ARM_CM0/port.c **** #define portNVIC_SYSTICK_INT			0x00000002
  45:..\FreeRTOS10\portable\GCC\ARM_CM0/port.c **** #define portNVIC_SYSTICK_ENABLE			0x00000001
  46:..\FreeRTOS10\portable\GCC\ARM_CM0/port.c **** #define portNVIC_PENDSVSET				0x10000000
  47:..\FreeRTOS10\portable\GCC\ARM_CM0/port.c **** #define portMIN_INTERRUPT_PRIORITY		( 255UL )
  48:..\FreeRTOS10\portable\GCC\ARM_CM0/port.c **** #define portNVIC_PENDSV_PRI				( portMIN_INTERRUPT_PRIORITY << 16UL )
  49:..\FreeRTOS10\portable\GCC\ARM_CM0/port.c **** #define portNVIC_SYSTICK_PRI			( portMIN_INTERRUPT_PRIORITY << 24UL )
  50:..\FreeRTOS10\portable\GCC\ARM_CM0/port.c **** 
  51:..\FreeRTOS10\portable\GCC\ARM_CM0/port.c **** /* Constants required to set up the initial stack. */
  52:..\FreeRTOS10\portable\GCC\ARM_CM0/port.c **** #define portINITIAL_XPSR			( 0x01000000 )
  53:..\FreeRTOS10\portable\GCC\ARM_CM0/port.c **** 
  54:..\FreeRTOS10\portable\GCC\ARM_CM0/port.c **** /* Let the user override the pre-loading of the initial LR with the address of
  55:..\FreeRTOS10\portable\GCC\ARM_CM0/port.c **** prvTaskExitError() in case it messes up unwinding of the stack in the
  56:..\FreeRTOS10\portable\GCC\ARM_CM0/port.c **** debugger. */
  57:..\FreeRTOS10\portable\GCC\ARM_CM0/port.c **** #ifdef configTASK_RETURN_ADDRESS
  58:..\FreeRTOS10\portable\GCC\ARM_CM0/port.c **** 	#define portTASK_RETURN_ADDRESS	configTASK_RETURN_ADDRESS
  59:..\FreeRTOS10\portable\GCC\ARM_CM0/port.c **** #else
  60:..\FreeRTOS10\portable\GCC\ARM_CM0/port.c **** 	#define portTASK_RETURN_ADDRESS	prvTaskExitError
  61:..\FreeRTOS10\portable\GCC\ARM_CM0/port.c **** #endif
  62:..\FreeRTOS10\portable\GCC\ARM_CM0/port.c **** 
  63:..\FreeRTOS10\portable\GCC\ARM_CM0/port.c **** /*
  64:..\FreeRTOS10\portable\GCC\ARM_CM0/port.c ****  * Setup the timer to generate the tick interrupts.
  65:..\FreeRTOS10\portable\GCC\ARM_CM0/port.c ****  */
  66:..\FreeRTOS10\portable\GCC\ARM_CM0/port.c **** static void prvSetupTimerInterrupt( void );
  67:..\FreeRTOS10\portable\GCC\ARM_CM0/port.c **** 
  68:..\FreeRTOS10\portable\GCC\ARM_CM0/port.c **** /*
  69:..\FreeRTOS10\portable\GCC\ARM_CM0/port.c ****  * Exception handlers.
  70:..\FreeRTOS10\portable\GCC\ARM_CM0/port.c ****  */
  71:..\FreeRTOS10\portable\GCC\ARM_CM0/port.c **** void xPortPendSVHandler( void ) __attribute__ (( naked ));
  72:..\FreeRTOS10\portable\GCC\ARM_CM0/port.c **** void xPortSysTickHandler( void );
  73:..\FreeRTOS10\portable\GCC\ARM_CM0/port.c **** void vPortSVCHandler( void );
  74:..\FreeRTOS10\portable\GCC\ARM_CM0/port.c **** 
  75:..\FreeRTOS10\portable\GCC\ARM_CM0/port.c **** /*
  76:..\FreeRTOS10\portable\GCC\ARM_CM0/port.c ****  * Start first task is a separate function so it can be tested in isolation.
  77:..\FreeRTOS10\portable\GCC\ARM_CM0/port.c ****  */
  78:..\FreeRTOS10\portable\GCC\ARM_CM0/port.c **** static void vPortStartFirstTask( void ) __attribute__ (( naked ));
  79:..\FreeRTOS10\portable\GCC\ARM_CM0/port.c **** 
  80:..\FreeRTOS10\portable\GCC\ARM_CM0/port.c **** /*
  81:..\FreeRTOS10\portable\GCC\ARM_CM0/port.c ****  * Used to catch tasks that attempt to return from their implementing function.
  82:..\FreeRTOS10\portable\GCC\ARM_CM0/port.c ****  */
  83:..\FreeRTOS10\portable\GCC\ARM_CM0/port.c **** static void prvTaskExitError( void );
  84:..\FreeRTOS10\portable\GCC\ARM_CM0/port.c **** 
  85:..\FreeRTOS10\portable\GCC\ARM_CM0/port.c **** /*-----------------------------------------------------------*/
  86:..\FreeRTOS10\portable\GCC\ARM_CM0/port.c **** 
  87:..\FreeRTOS10\portable\GCC\ARM_CM0/port.c **** /* Each task maintains its own interrupt status in the critical nesting
  88:..\FreeRTOS10\portable\GCC\ARM_CM0/port.c **** variable. */
ARM GAS  C:\Users\Xwx47\AppData\Local\Temp\cccdwVHq.s 			page 3


  89:..\FreeRTOS10\portable\GCC\ARM_CM0/port.c **** static UBaseType_t uxCriticalNesting = 0xaaaaaaaa;
  90:..\FreeRTOS10\portable\GCC\ARM_CM0/port.c **** 
  91:..\FreeRTOS10\portable\GCC\ARM_CM0/port.c **** /*-----------------------------------------------------------*/
  92:..\FreeRTOS10\portable\GCC\ARM_CM0/port.c **** 
  93:..\FreeRTOS10\portable\GCC\ARM_CM0/port.c **** /*
  94:..\FreeRTOS10\portable\GCC\ARM_CM0/port.c ****  * See header file for description.
  95:..\FreeRTOS10\portable\GCC\ARM_CM0/port.c ****  */
  96:..\FreeRTOS10\portable\GCC\ARM_CM0/port.c **** StackType_t *pxPortInitialiseStack( StackType_t *pxTopOfStack, TaskFunction_t pxCode, void *pvParam
  97:..\FreeRTOS10\portable\GCC\ARM_CM0/port.c **** {
  98:..\FreeRTOS10\portable\GCC\ARM_CM0/port.c **** 	/* Simulate the stack frame as it would be created by a context switch
  99:..\FreeRTOS10\portable\GCC\ARM_CM0/port.c **** 	interrupt. */
 100:..\FreeRTOS10\portable\GCC\ARM_CM0/port.c **** 	pxTopOfStack--; /* Offset added to account for the way the MCU uses the stack on entry/exit of int
 101:..\FreeRTOS10\portable\GCC\ARM_CM0/port.c **** 	*pxTopOfStack = portINITIAL_XPSR;	/* xPSR */
 102:..\FreeRTOS10\portable\GCC\ARM_CM0/port.c **** 	pxTopOfStack--;
 103:..\FreeRTOS10\portable\GCC\ARM_CM0/port.c **** 	*pxTopOfStack = ( StackType_t ) pxCode;	/* PC */
 104:..\FreeRTOS10\portable\GCC\ARM_CM0/port.c **** 	pxTopOfStack--;
 105:..\FreeRTOS10\portable\GCC\ARM_CM0/port.c **** 	*pxTopOfStack = ( StackType_t ) portTASK_RETURN_ADDRESS;	/* LR */
 106:..\FreeRTOS10\portable\GCC\ARM_CM0/port.c **** 	pxTopOfStack -= 5;	/* R12, R3, R2 and R1. */
 107:..\FreeRTOS10\portable\GCC\ARM_CM0/port.c **** 	*pxTopOfStack = ( StackType_t ) pvParameters;	/* R0 */
 108:..\FreeRTOS10\portable\GCC\ARM_CM0/port.c **** 	pxTopOfStack -= 8; /* R11..R4. */
 109:..\FreeRTOS10\portable\GCC\ARM_CM0/port.c **** 
 110:..\FreeRTOS10\portable\GCC\ARM_CM0/port.c **** 	return pxTopOfStack;
 111:..\FreeRTOS10\portable\GCC\ARM_CM0/port.c **** }
 112:..\FreeRTOS10\portable\GCC\ARM_CM0/port.c **** /*-----------------------------------------------------------*/
 113:..\FreeRTOS10\portable\GCC\ARM_CM0/port.c **** 
 114:..\FreeRTOS10\portable\GCC\ARM_CM0/port.c **** static void prvTaskExitError( void )
 115:..\FreeRTOS10\portable\GCC\ARM_CM0/port.c **** {
  27              		.loc 1 115 0
  28              		.cfi_startproc
  29              		@ args = 0, pretend = 0, frame = 8
  30              		@ frame_needed = 0, uses_anonymous_args = 0
  31              		@ link register save eliminated.
  32 0000 82B0     		sub	sp, sp, #8
  33              		.cfi_def_cfa_offset 8
 116:..\FreeRTOS10\portable\GCC\ARM_CM0/port.c **** volatile uint32_t ulDummy = 0UL;
  34              		.loc 1 116 0
  35 0002 0023     		movs	r3, #0
  36 0004 0193     		str	r3, [sp, #4]
 117:..\FreeRTOS10\portable\GCC\ARM_CM0/port.c **** 
 118:..\FreeRTOS10\portable\GCC\ARM_CM0/port.c **** 	/* A function that implements a task must not exit or attempt to return to
 119:..\FreeRTOS10\portable\GCC\ARM_CM0/port.c **** 	its caller as there is nothing to return to.  If a task wants to exit it
 120:..\FreeRTOS10\portable\GCC\ARM_CM0/port.c **** 	should instead call vTaskDelete( NULL ).
 121:..\FreeRTOS10\portable\GCC\ARM_CM0/port.c **** 
 122:..\FreeRTOS10\portable\GCC\ARM_CM0/port.c **** 	Artificially force an assert() to be triggered if configASSERT() is
 123:..\FreeRTOS10\portable\GCC\ARM_CM0/port.c **** 	defined, then stop here so application writers can catch the error. */
 124:..\FreeRTOS10\portable\GCC\ARM_CM0/port.c **** 	configASSERT( uxCriticalNesting == ~0UL );
 125:..\FreeRTOS10\portable\GCC\ARM_CM0/port.c **** 	portDISABLE_INTERRUPTS();
  37              		.loc 1 125 0
  38              		.syntax divided
  39              	@ 125 "..\FreeRTOS10\portable\GCC\ARM_CM0\port.c" 1
  40 0006 72B6     		 cpsid i 
  41              	@ 0 "" 2
  42              		.thumb
  43              		.syntax unified
  44              	.L2:
 126:..\FreeRTOS10\portable\GCC\ARM_CM0/port.c **** 	while( ulDummy == 0 )
  45              		.loc 1 126 0 discriminator 1
ARM GAS  C:\Users\Xwx47\AppData\Local\Temp\cccdwVHq.s 			page 4


  46 0008 019B     		ldr	r3, [sp, #4]
  47 000a 002B     		cmp	r3, #0
  48 000c FCD0     		beq	.L2
 127:..\FreeRTOS10\portable\GCC\ARM_CM0/port.c **** 	{
 128:..\FreeRTOS10\portable\GCC\ARM_CM0/port.c **** 		/* This file calls prvTaskExitError() after the scheduler has been
 129:..\FreeRTOS10\portable\GCC\ARM_CM0/port.c **** 		started to remove a compiler warning about the function being defined
 130:..\FreeRTOS10\portable\GCC\ARM_CM0/port.c **** 		but never called.  ulDummy is used purely to quieten other warnings
 131:..\FreeRTOS10\portable\GCC\ARM_CM0/port.c **** 		about code appearing after this function is called - making ulDummy
 132:..\FreeRTOS10\portable\GCC\ARM_CM0/port.c **** 		volatile makes the compiler think the function could return and
 133:..\FreeRTOS10\portable\GCC\ARM_CM0/port.c **** 		therefore not output an 'unreachable code' warning for code that appears
 134:..\FreeRTOS10\portable\GCC\ARM_CM0/port.c **** 		after it. */
 135:..\FreeRTOS10\portable\GCC\ARM_CM0/port.c **** 	}
 136:..\FreeRTOS10\portable\GCC\ARM_CM0/port.c **** }
  49              		.loc 1 136 0
  50 000e 02B0     		add	sp, sp, #8
  51              		@ sp needed
  52 0010 7047     		bx	lr
  53              		.cfi_endproc
  54              	.LFE33:
  55              		.size	prvTaskExitError, .-prvTaskExitError
  56 0012 C046     		.section	.text.vPortStartFirstTask,"ax",%progbits
  57              		.align	2
  58              		.code	16
  59              		.thumb_func
  60              		.type	vPortStartFirstTask, %function
  61              	vPortStartFirstTask:
  62              	.LFB35:
 137:..\FreeRTOS10\portable\GCC\ARM_CM0/port.c **** /*-----------------------------------------------------------*/
 138:..\FreeRTOS10\portable\GCC\ARM_CM0/port.c **** 
 139:..\FreeRTOS10\portable\GCC\ARM_CM0/port.c **** void vPortSVCHandler( void )
 140:..\FreeRTOS10\portable\GCC\ARM_CM0/port.c **** {
 141:..\FreeRTOS10\portable\GCC\ARM_CM0/port.c **** 	/* This function is no longer used, but retained for backward
 142:..\FreeRTOS10\portable\GCC\ARM_CM0/port.c **** 	compatibility. */
 143:..\FreeRTOS10\portable\GCC\ARM_CM0/port.c **** }
 144:..\FreeRTOS10\portable\GCC\ARM_CM0/port.c **** /*-----------------------------------------------------------*/
 145:..\FreeRTOS10\portable\GCC\ARM_CM0/port.c **** 
 146:..\FreeRTOS10\portable\GCC\ARM_CM0/port.c **** void vPortStartFirstTask( void )
 147:..\FreeRTOS10\portable\GCC\ARM_CM0/port.c **** {
  63              		.loc 1 147 0
  64              		.cfi_startproc
  65              		@ Naked Function: prologue and epilogue provided by programmer.
  66              		@ args = 0, pretend = 0, frame = 0
  67              		@ frame_needed = 0, uses_anonymous_args = 0
 148:..\FreeRTOS10\portable\GCC\ARM_CM0/port.c **** 	/* The MSP stack is not reset as, unlike on M3/4 parts, there is no vector
 149:..\FreeRTOS10\portable\GCC\ARM_CM0/port.c **** 	table offset register that can be used to locate the initial stack value.
 150:..\FreeRTOS10\portable\GCC\ARM_CM0/port.c **** 	Not all M0 parts have the application vector table at address 0. */
 151:..\FreeRTOS10\portable\GCC\ARM_CM0/port.c **** 	__asm volatile(
  68              		.loc 1 151 0
  69              		.syntax divided
  70              	@ 151 "..\FreeRTOS10\portable\GCC\ARM_CM0\port.c" 1
  71              			.syntax unified				
  72 0000 0B4A     		ldr  r2, pxCurrentTCBConst2	
  73 0002 1368     		ldr  r3, [r2]				
  74 0004 1868     		ldr  r0, [r3]				
  75 0006 2030     		adds r0, #32					
  76 0008 80F30988 		msr  psp, r0					
  77 000c 0220     		movs r0, #2					
ARM GAS  C:\Users\Xwx47\AppData\Local\Temp\cccdwVHq.s 			page 5


  78 000e 80F31488 		msr  CONTROL, r0				
  79 0012 BFF36F8F 		isb							
  80 0016 3FBC     		pop  {r0-r5}					
  81 0018 AE46     		mov  lr, r5					
  82 001a 08BC     		pop  {r3}					
  83 001c 04BC     		pop  {r2}					
  84 001e 62B6     		cpsie i						
  85 0020 1847     		bx   r3						
  86              									
  87 0022 C046C046 		.align 4					
  87      C046C046 
  87      C046C046 
  87      C046
  88 0030 00000000 	pxCurrentTCBConst2: .word pxCurrentTCB	  
  89              	@ 0 "" 2
 152:..\FreeRTOS10\portable\GCC\ARM_CM0/port.c **** 	"	.syntax unified				\n"
 153:..\FreeRTOS10\portable\GCC\ARM_CM0/port.c **** 	"	ldr  r2, pxCurrentTCBConst2	\n" /* Obtain location of pxCurrentTCB. */
 154:..\FreeRTOS10\portable\GCC\ARM_CM0/port.c **** 	"	ldr  r3, [r2]				\n"
 155:..\FreeRTOS10\portable\GCC\ARM_CM0/port.c **** 	"	ldr  r0, [r3]				\n" /* The first item in pxCurrentTCB is the task top of stack. */
 156:..\FreeRTOS10\portable\GCC\ARM_CM0/port.c **** 	"	adds r0, #32					\n" /* Discard everything up to r0. */
 157:..\FreeRTOS10\portable\GCC\ARM_CM0/port.c **** 	"	msr  psp, r0					\n" /* This is now the new top of stack to use in the task. */
 158:..\FreeRTOS10\portable\GCC\ARM_CM0/port.c **** 	"	movs r0, #2					\n" /* Switch to the psp stack. */
 159:..\FreeRTOS10\portable\GCC\ARM_CM0/port.c **** 	"	msr  CONTROL, r0				\n"
 160:..\FreeRTOS10\portable\GCC\ARM_CM0/port.c **** 	"	isb							\n"
 161:..\FreeRTOS10\portable\GCC\ARM_CM0/port.c **** 	"	pop  {r0-r5}					\n" /* Pop the registers that are saved automatically. */
 162:..\FreeRTOS10\portable\GCC\ARM_CM0/port.c **** 	"	mov  lr, r5					\n" /* lr is now in r5. */
 163:..\FreeRTOS10\portable\GCC\ARM_CM0/port.c **** 	"	pop  {r3}					\n" /* Return address is now in r3. */
 164:..\FreeRTOS10\portable\GCC\ARM_CM0/port.c **** 	"	pop  {r2}					\n" /* Pop and discard XPSR. */
 165:..\FreeRTOS10\portable\GCC\ARM_CM0/port.c **** 	"	cpsie i						\n" /* The first task has its context and interrupts can be enabled. */
 166:..\FreeRTOS10\portable\GCC\ARM_CM0/port.c **** 	"	bx   r3						\n" /* Finally, jump to the user defined task code. */
 167:..\FreeRTOS10\portable\GCC\ARM_CM0/port.c **** 	"								\n"
 168:..\FreeRTOS10\portable\GCC\ARM_CM0/port.c **** 	"	.align 4					\n"
 169:..\FreeRTOS10\portable\GCC\ARM_CM0/port.c **** 	"pxCurrentTCBConst2: .word pxCurrentTCB	  "
 170:..\FreeRTOS10\portable\GCC\ARM_CM0/port.c **** 				  );
 171:..\FreeRTOS10\portable\GCC\ARM_CM0/port.c **** }
  90              		.loc 1 171 0
  91              		.thumb
  92              		.syntax unified
  93              		.cfi_endproc
  94              	.LFE35:
  95              		.size	vPortStartFirstTask, .-vPortStartFirstTask
  96              		.section	.text.prvSetupTimerInterrupt,"ax",%progbits
  97              		.align	2
  98              		.code	16
  99              		.thumb_func
 100              		.type	prvSetupTimerInterrupt, %function
 101              	prvSetupTimerInterrupt:
 102              	.LFB45:
 172:..\FreeRTOS10\portable\GCC\ARM_CM0/port.c **** /*-----------------------------------------------------------*/
 173:..\FreeRTOS10\portable\GCC\ARM_CM0/port.c **** 
 174:..\FreeRTOS10\portable\GCC\ARM_CM0/port.c **** /*
 175:..\FreeRTOS10\portable\GCC\ARM_CM0/port.c ****  * See header file for description.
 176:..\FreeRTOS10\portable\GCC\ARM_CM0/port.c ****  */
 177:..\FreeRTOS10\portable\GCC\ARM_CM0/port.c **** BaseType_t xPortStartScheduler( void )
 178:..\FreeRTOS10\portable\GCC\ARM_CM0/port.c **** {
 179:..\FreeRTOS10\portable\GCC\ARM_CM0/port.c **** 	/* Make PendSV, CallSV and SysTick the same priroity as the kernel. */
 180:..\FreeRTOS10\portable\GCC\ARM_CM0/port.c **** 	*(portNVIC_SYSPRI2) |= portNVIC_PENDSV_PRI;
ARM GAS  C:\Users\Xwx47\AppData\Local\Temp\cccdwVHq.s 			page 6


 181:..\FreeRTOS10\portable\GCC\ARM_CM0/port.c **** 	*(portNVIC_SYSPRI2) |= portNVIC_SYSTICK_PRI;
 182:..\FreeRTOS10\portable\GCC\ARM_CM0/port.c **** 
 183:..\FreeRTOS10\portable\GCC\ARM_CM0/port.c **** 	/* Start the timer that generates the tick ISR.  Interrupts are disabled
 184:..\FreeRTOS10\portable\GCC\ARM_CM0/port.c **** 	here already. */
 185:..\FreeRTOS10\portable\GCC\ARM_CM0/port.c **** 	prvSetupTimerInterrupt();
 186:..\FreeRTOS10\portable\GCC\ARM_CM0/port.c **** 
 187:..\FreeRTOS10\portable\GCC\ARM_CM0/port.c **** 	/* Initialise the critical nesting count ready for the first task. */
 188:..\FreeRTOS10\portable\GCC\ARM_CM0/port.c **** 	uxCriticalNesting = 0;
 189:..\FreeRTOS10\portable\GCC\ARM_CM0/port.c **** 
 190:..\FreeRTOS10\portable\GCC\ARM_CM0/port.c **** 	/* Start the first task. */
 191:..\FreeRTOS10\portable\GCC\ARM_CM0/port.c **** 	vPortStartFirstTask();
 192:..\FreeRTOS10\portable\GCC\ARM_CM0/port.c **** 
 193:..\FreeRTOS10\portable\GCC\ARM_CM0/port.c **** 	/* Should never get here as the tasks will now be executing!  Call the task
 194:..\FreeRTOS10\portable\GCC\ARM_CM0/port.c **** 	exit error function to prevent compiler warnings about a static function
 195:..\FreeRTOS10\portable\GCC\ARM_CM0/port.c **** 	not being called in the case that the application writer overrides this
 196:..\FreeRTOS10\portable\GCC\ARM_CM0/port.c **** 	functionality by defining configTASK_RETURN_ADDRESS.  Call
 197:..\FreeRTOS10\portable\GCC\ARM_CM0/port.c **** 	vTaskSwitchContext() so link time optimisation does not remove the
 198:..\FreeRTOS10\portable\GCC\ARM_CM0/port.c **** 	symbol. */
 199:..\FreeRTOS10\portable\GCC\ARM_CM0/port.c **** 	vTaskSwitchContext();
 200:..\FreeRTOS10\portable\GCC\ARM_CM0/port.c **** 	prvTaskExitError();
 201:..\FreeRTOS10\portable\GCC\ARM_CM0/port.c **** 
 202:..\FreeRTOS10\portable\GCC\ARM_CM0/port.c **** 	/* Should not get here! */
 203:..\FreeRTOS10\portable\GCC\ARM_CM0/port.c **** 	return 0;
 204:..\FreeRTOS10\portable\GCC\ARM_CM0/port.c **** }
 205:..\FreeRTOS10\portable\GCC\ARM_CM0/port.c **** /*-----------------------------------------------------------*/
 206:..\FreeRTOS10\portable\GCC\ARM_CM0/port.c **** 
 207:..\FreeRTOS10\portable\GCC\ARM_CM0/port.c **** void vPortEndScheduler( void )
 208:..\FreeRTOS10\portable\GCC\ARM_CM0/port.c **** {
 209:..\FreeRTOS10\portable\GCC\ARM_CM0/port.c **** 	/* Not implemented in ports where there is nothing to return to.
 210:..\FreeRTOS10\portable\GCC\ARM_CM0/port.c **** 	Artificially force an assert. */
 211:..\FreeRTOS10\portable\GCC\ARM_CM0/port.c **** 	configASSERT( uxCriticalNesting == 1000UL );
 212:..\FreeRTOS10\portable\GCC\ARM_CM0/port.c **** }
 213:..\FreeRTOS10\portable\GCC\ARM_CM0/port.c **** /*-----------------------------------------------------------*/
 214:..\FreeRTOS10\portable\GCC\ARM_CM0/port.c **** 
 215:..\FreeRTOS10\portable\GCC\ARM_CM0/port.c **** void vPortYield( void )
 216:..\FreeRTOS10\portable\GCC\ARM_CM0/port.c **** {
 217:..\FreeRTOS10\portable\GCC\ARM_CM0/port.c **** 	/* Set a PendSV to request a context switch. */
 218:..\FreeRTOS10\portable\GCC\ARM_CM0/port.c **** 	*( portNVIC_INT_CTRL ) = portNVIC_PENDSVSET;
 219:..\FreeRTOS10\portable\GCC\ARM_CM0/port.c **** 
 220:..\FreeRTOS10\portable\GCC\ARM_CM0/port.c **** 	/* Barriers are normally not required but do ensure the code is completely
 221:..\FreeRTOS10\portable\GCC\ARM_CM0/port.c **** 	within the specified behaviour for the architecture. */
 222:..\FreeRTOS10\portable\GCC\ARM_CM0/port.c **** 	__asm volatile( "dsb" ::: "memory" );
 223:..\FreeRTOS10\portable\GCC\ARM_CM0/port.c **** 	__asm volatile( "isb" );
 224:..\FreeRTOS10\portable\GCC\ARM_CM0/port.c **** }
 225:..\FreeRTOS10\portable\GCC\ARM_CM0/port.c **** /*-----------------------------------------------------------*/
 226:..\FreeRTOS10\portable\GCC\ARM_CM0/port.c **** 
 227:..\FreeRTOS10\portable\GCC\ARM_CM0/port.c **** void vPortEnterCritical( void )
 228:..\FreeRTOS10\portable\GCC\ARM_CM0/port.c **** {
 229:..\FreeRTOS10\portable\GCC\ARM_CM0/port.c ****     portDISABLE_INTERRUPTS();
 230:..\FreeRTOS10\portable\GCC\ARM_CM0/port.c ****     uxCriticalNesting++;
 231:..\FreeRTOS10\portable\GCC\ARM_CM0/port.c **** 	__asm volatile( "dsb" ::: "memory" );
 232:..\FreeRTOS10\portable\GCC\ARM_CM0/port.c **** 	__asm volatile( "isb" );
 233:..\FreeRTOS10\portable\GCC\ARM_CM0/port.c **** }
 234:..\FreeRTOS10\portable\GCC\ARM_CM0/port.c **** /*-----------------------------------------------------------*/
 235:..\FreeRTOS10\portable\GCC\ARM_CM0/port.c **** 
 236:..\FreeRTOS10\portable\GCC\ARM_CM0/port.c **** void vPortExitCritical( void )
 237:..\FreeRTOS10\portable\GCC\ARM_CM0/port.c **** {
ARM GAS  C:\Users\Xwx47\AppData\Local\Temp\cccdwVHq.s 			page 7


 238:..\FreeRTOS10\portable\GCC\ARM_CM0/port.c **** 	configASSERT( uxCriticalNesting );
 239:..\FreeRTOS10\portable\GCC\ARM_CM0/port.c ****     uxCriticalNesting--;
 240:..\FreeRTOS10\portable\GCC\ARM_CM0/port.c ****     if( uxCriticalNesting == 0 )
 241:..\FreeRTOS10\portable\GCC\ARM_CM0/port.c ****     {
 242:..\FreeRTOS10\portable\GCC\ARM_CM0/port.c ****         portENABLE_INTERRUPTS();
 243:..\FreeRTOS10\portable\GCC\ARM_CM0/port.c ****     }
 244:..\FreeRTOS10\portable\GCC\ARM_CM0/port.c **** }
 245:..\FreeRTOS10\portable\GCC\ARM_CM0/port.c **** /*-----------------------------------------------------------*/
 246:..\FreeRTOS10\portable\GCC\ARM_CM0/port.c **** 
 247:..\FreeRTOS10\portable\GCC\ARM_CM0/port.c **** uint32_t ulSetInterruptMaskFromISR( void )
 248:..\FreeRTOS10\portable\GCC\ARM_CM0/port.c **** {
 249:..\FreeRTOS10\portable\GCC\ARM_CM0/port.c **** 	__asm volatile(
 250:..\FreeRTOS10\portable\GCC\ARM_CM0/port.c **** 					" mrs r0, PRIMASK	\n"
 251:..\FreeRTOS10\portable\GCC\ARM_CM0/port.c **** 					" cpsid i			\n"
 252:..\FreeRTOS10\portable\GCC\ARM_CM0/port.c **** 					" bx lr				  "
 253:..\FreeRTOS10\portable\GCC\ARM_CM0/port.c **** 					::: "memory"
 254:..\FreeRTOS10\portable\GCC\ARM_CM0/port.c **** 				  );
 255:..\FreeRTOS10\portable\GCC\ARM_CM0/port.c **** 
 256:..\FreeRTOS10\portable\GCC\ARM_CM0/port.c **** #if !defined (__ARMCC_VERSION) && (__ARMCC_VERSION >= 6010050)
 257:..\FreeRTOS10\portable\GCC\ARM_CM0/port.c **** 	/* To avoid compiler warnings.  The return statement will nevere be reached,
 258:..\FreeRTOS10\portable\GCC\ARM_CM0/port.c **** 	but some compilers warn if it is not included, while others won't compile if
 259:..\FreeRTOS10\portable\GCC\ARM_CM0/port.c **** 	it is. */
 260:..\FreeRTOS10\portable\GCC\ARM_CM0/port.c **** 	return 0;
 261:..\FreeRTOS10\portable\GCC\ARM_CM0/port.c **** #endif
 262:..\FreeRTOS10\portable\GCC\ARM_CM0/port.c **** }
 263:..\FreeRTOS10\portable\GCC\ARM_CM0/port.c **** /*-----------------------------------------------------------*/
 264:..\FreeRTOS10\portable\GCC\ARM_CM0/port.c **** 
 265:..\FreeRTOS10\portable\GCC\ARM_CM0/port.c **** void vClearInterruptMaskFromISR( __attribute__( ( unused ) ) uint32_t ulMask )
 266:..\FreeRTOS10\portable\GCC\ARM_CM0/port.c **** {
 267:..\FreeRTOS10\portable\GCC\ARM_CM0/port.c **** 	__asm volatile(
 268:..\FreeRTOS10\portable\GCC\ARM_CM0/port.c **** 					" msr PRIMASK, r0	\n"
 269:..\FreeRTOS10\portable\GCC\ARM_CM0/port.c **** 					" bx lr				  "
 270:..\FreeRTOS10\portable\GCC\ARM_CM0/port.c **** 					::: "memory"
 271:..\FreeRTOS10\portable\GCC\ARM_CM0/port.c **** 				  );
 272:..\FreeRTOS10\portable\GCC\ARM_CM0/port.c **** 
 273:..\FreeRTOS10\portable\GCC\ARM_CM0/port.c **** #if !defined (__ARMCC_VERSION) && (__ARMCC_VERSION >= 6010050)
 274:..\FreeRTOS10\portable\GCC\ARM_CM0/port.c **** 	/* Just to avoid compiler warning.  ulMask is used from the asm code but
 275:..\FreeRTOS10\portable\GCC\ARM_CM0/port.c **** 	the compiler can't see that.  Some compilers generate warnings without the
 276:..\FreeRTOS10\portable\GCC\ARM_CM0/port.c **** 	following line, while others generate warnings if the line is included. */
 277:..\FreeRTOS10\portable\GCC\ARM_CM0/port.c **** 	( void ) ulMask;
 278:..\FreeRTOS10\portable\GCC\ARM_CM0/port.c **** #endif
 279:..\FreeRTOS10\portable\GCC\ARM_CM0/port.c **** }
 280:..\FreeRTOS10\portable\GCC\ARM_CM0/port.c **** /*-----------------------------------------------------------*/
 281:..\FreeRTOS10\portable\GCC\ARM_CM0/port.c **** 
 282:..\FreeRTOS10\portable\GCC\ARM_CM0/port.c **** void xPortPendSVHandler( void )
 283:..\FreeRTOS10\portable\GCC\ARM_CM0/port.c **** {
 284:..\FreeRTOS10\portable\GCC\ARM_CM0/port.c **** 	/* This is a naked function. */
 285:..\FreeRTOS10\portable\GCC\ARM_CM0/port.c **** 
 286:..\FreeRTOS10\portable\GCC\ARM_CM0/port.c **** 	__asm volatile
 287:..\FreeRTOS10\portable\GCC\ARM_CM0/port.c **** 	(
 288:..\FreeRTOS10\portable\GCC\ARM_CM0/port.c **** 	"	.syntax unified						\n"
 289:..\FreeRTOS10\portable\GCC\ARM_CM0/port.c **** 	"	mrs r0, psp							\n"
 290:..\FreeRTOS10\portable\GCC\ARM_CM0/port.c **** 	"										\n"
 291:..\FreeRTOS10\portable\GCC\ARM_CM0/port.c **** 	"	ldr	r3, pxCurrentTCBConst			\n" /* Get the location of the current TCB. */
 292:..\FreeRTOS10\portable\GCC\ARM_CM0/port.c **** 	"	ldr	r2, [r3]						\n"
 293:..\FreeRTOS10\portable\GCC\ARM_CM0/port.c **** 	"										\n"
 294:..\FreeRTOS10\portable\GCC\ARM_CM0/port.c **** 	"	subs r0, r0, #32					\n" /* Make space for the remaining low registers. */
ARM GAS  C:\Users\Xwx47\AppData\Local\Temp\cccdwVHq.s 			page 8


 295:..\FreeRTOS10\portable\GCC\ARM_CM0/port.c **** 	"	str r0, [r2]						\n" /* Save the new top of stack. */
 296:..\FreeRTOS10\portable\GCC\ARM_CM0/port.c **** 	"	stmia r0!, {r4-r7}					\n" /* Store the low registers that are not saved automatically. */
 297:..\FreeRTOS10\portable\GCC\ARM_CM0/port.c **** 	" 	mov r4, r8							\n" /* Store the high registers. */
 298:..\FreeRTOS10\portable\GCC\ARM_CM0/port.c **** 	" 	mov r5, r9							\n"
 299:..\FreeRTOS10\portable\GCC\ARM_CM0/port.c **** 	" 	mov r6, r10							\n"
 300:..\FreeRTOS10\portable\GCC\ARM_CM0/port.c **** 	" 	mov r7, r11							\n"
 301:..\FreeRTOS10\portable\GCC\ARM_CM0/port.c **** 	" 	stmia r0!, {r4-r7}					\n"
 302:..\FreeRTOS10\portable\GCC\ARM_CM0/port.c **** 	"										\n"
 303:..\FreeRTOS10\portable\GCC\ARM_CM0/port.c **** 	"	push {r3, r14}						\n"
 304:..\FreeRTOS10\portable\GCC\ARM_CM0/port.c **** 	"	cpsid i								\n"
 305:..\FreeRTOS10\portable\GCC\ARM_CM0/port.c **** 	"	bl vTaskSwitchContext				\n"
 306:..\FreeRTOS10\portable\GCC\ARM_CM0/port.c **** 	"	cpsie i								\n"
 307:..\FreeRTOS10\portable\GCC\ARM_CM0/port.c **** 	"	pop {r2, r3}						\n" /* lr goes in r3. r2 now holds tcb pointer. */
 308:..\FreeRTOS10\portable\GCC\ARM_CM0/port.c **** 	"										\n"
 309:..\FreeRTOS10\portable\GCC\ARM_CM0/port.c **** 	"	ldr r1, [r2]						\n"
 310:..\FreeRTOS10\portable\GCC\ARM_CM0/port.c **** 	"	ldr r0, [r1]						\n" /* The first item in pxCurrentTCB is the task top of stack. */
 311:..\FreeRTOS10\portable\GCC\ARM_CM0/port.c **** 	"	adds r0, r0, #16					\n" /* Move to the high registers. */
 312:..\FreeRTOS10\portable\GCC\ARM_CM0/port.c **** 	"	ldmia r0!, {r4-r7}					\n" /* Pop the high registers. */
 313:..\FreeRTOS10\portable\GCC\ARM_CM0/port.c **** 	" 	mov r8, r4							\n"
 314:..\FreeRTOS10\portable\GCC\ARM_CM0/port.c **** 	" 	mov r9, r5							\n"
 315:..\FreeRTOS10\portable\GCC\ARM_CM0/port.c **** 	" 	mov r10, r6							\n"
 316:..\FreeRTOS10\portable\GCC\ARM_CM0/port.c **** 	" 	mov r11, r7							\n"
 317:..\FreeRTOS10\portable\GCC\ARM_CM0/port.c **** 	"										\n"
 318:..\FreeRTOS10\portable\GCC\ARM_CM0/port.c **** 	"	msr psp, r0							\n" /* Remember the new top of stack for the task. */
 319:..\FreeRTOS10\portable\GCC\ARM_CM0/port.c **** 	"										\n"
 320:..\FreeRTOS10\portable\GCC\ARM_CM0/port.c **** 	"	subs r0, r0, #32					\n" /* Go back for the low registers that are not automatically restored. *
 321:..\FreeRTOS10\portable\GCC\ARM_CM0/port.c **** 	" 	ldmia r0!, {r4-r7}					\n" /* Pop low registers.  */
 322:..\FreeRTOS10\portable\GCC\ARM_CM0/port.c **** 	"										\n"
 323:..\FreeRTOS10\portable\GCC\ARM_CM0/port.c **** 	"	bx r3								\n"
 324:..\FreeRTOS10\portable\GCC\ARM_CM0/port.c **** 	"										\n"
 325:..\FreeRTOS10\portable\GCC\ARM_CM0/port.c **** 	"	.align 4							\n"
 326:..\FreeRTOS10\portable\GCC\ARM_CM0/port.c **** 	"pxCurrentTCBConst: .word pxCurrentTCB	  "
 327:..\FreeRTOS10\portable\GCC\ARM_CM0/port.c **** 	);
 328:..\FreeRTOS10\portable\GCC\ARM_CM0/port.c **** }
 329:..\FreeRTOS10\portable\GCC\ARM_CM0/port.c **** /*-----------------------------------------------------------*/
 330:..\FreeRTOS10\portable\GCC\ARM_CM0/port.c **** 
 331:..\FreeRTOS10\portable\GCC\ARM_CM0/port.c **** void xPortSysTickHandler( void )
 332:..\FreeRTOS10\portable\GCC\ARM_CM0/port.c **** {
 333:..\FreeRTOS10\portable\GCC\ARM_CM0/port.c **** uint32_t ulPreviousMask;
 334:..\FreeRTOS10\portable\GCC\ARM_CM0/port.c **** 
 335:..\FreeRTOS10\portable\GCC\ARM_CM0/port.c **** 	ulPreviousMask = portSET_INTERRUPT_MASK_FROM_ISR();
 336:..\FreeRTOS10\portable\GCC\ARM_CM0/port.c **** 	{
 337:..\FreeRTOS10\portable\GCC\ARM_CM0/port.c **** 		/* Increment the RTOS tick. */
 338:..\FreeRTOS10\portable\GCC\ARM_CM0/port.c **** 		if( xTaskIncrementTick() != pdFALSE )
 339:..\FreeRTOS10\portable\GCC\ARM_CM0/port.c **** 		{
 340:..\FreeRTOS10\portable\GCC\ARM_CM0/port.c **** 			/* Pend a context switch. */
 341:..\FreeRTOS10\portable\GCC\ARM_CM0/port.c **** 			*(portNVIC_INT_CTRL) = portNVIC_PENDSVSET;
 342:..\FreeRTOS10\portable\GCC\ARM_CM0/port.c **** 		}
 343:..\FreeRTOS10\portable\GCC\ARM_CM0/port.c **** 	}
 344:..\FreeRTOS10\portable\GCC\ARM_CM0/port.c **** 	portCLEAR_INTERRUPT_MASK_FROM_ISR( ulPreviousMask );
 345:..\FreeRTOS10\portable\GCC\ARM_CM0/port.c **** }
 346:..\FreeRTOS10\portable\GCC\ARM_CM0/port.c **** /*-----------------------------------------------------------*/
 347:..\FreeRTOS10\portable\GCC\ARM_CM0/port.c **** 
 348:..\FreeRTOS10\portable\GCC\ARM_CM0/port.c **** /*
 349:..\FreeRTOS10\portable\GCC\ARM_CM0/port.c ****  * Setup the systick timer to generate the tick interrupts at the required
 350:..\FreeRTOS10\portable\GCC\ARM_CM0/port.c ****  * frequency.
 351:..\FreeRTOS10\portable\GCC\ARM_CM0/port.c ****  */
ARM GAS  C:\Users\Xwx47\AppData\Local\Temp\cccdwVHq.s 			page 9


 352:..\FreeRTOS10\portable\GCC\ARM_CM0/port.c **** void prvSetupTimerInterrupt( void )
 353:..\FreeRTOS10\portable\GCC\ARM_CM0/port.c **** {
 103              		.loc 1 353 0
 104              		.cfi_startproc
 105              		@ args = 0, pretend = 0, frame = 0
 106              		@ frame_needed = 0, uses_anonymous_args = 0
 107              		@ link register save eliminated.
 354:..\FreeRTOS10\portable\GCC\ARM_CM0/port.c **** 	/* Stop and reset the SysTick. */
 355:..\FreeRTOS10\portable\GCC\ARM_CM0/port.c **** 	*(portNVIC_SYSTICK_CTRL) = 0UL;
 108              		.loc 1 355 0
 109 0000 054B     		ldr	r3, .L5
 110 0002 0022     		movs	r2, #0
 111 0004 1A60     		str	r2, [r3]
 356:..\FreeRTOS10\portable\GCC\ARM_CM0/port.c **** 	*(portNVIC_SYSTICK_CURRENT_VALUE) = 0UL;
 112              		.loc 1 356 0
 113 0006 0549     		ldr	r1, .L5+4
 114 0008 0A60     		str	r2, [r1]
 357:..\FreeRTOS10\portable\GCC\ARM_CM0/port.c **** 
 358:..\FreeRTOS10\portable\GCC\ARM_CM0/port.c **** 	/* Configure SysTick to interrupt at the requested rate. */
 359:..\FreeRTOS10\portable\GCC\ARM_CM0/port.c **** 	*(portNVIC_SYSTICK_LOAD) = ( configCPU_CLOCK_HZ / configTICK_RATE_HZ ) - 1UL;
 115              		.loc 1 359 0
 116 000a 0549     		ldr	r1, .L5+8
 117 000c 054A     		ldr	r2, .L5+12
 118 000e 1160     		str	r1, [r2]
 360:..\FreeRTOS10\portable\GCC\ARM_CM0/port.c **** 	*(portNVIC_SYSTICK_CTRL) = portNVIC_SYSTICK_CLK | portNVIC_SYSTICK_INT | portNVIC_SYSTICK_ENABLE;
 119              		.loc 1 360 0
 120 0010 0722     		movs	r2, #7
 121 0012 1A60     		str	r2, [r3]
 361:..\FreeRTOS10\portable\GCC\ARM_CM0/port.c **** }
 122              		.loc 1 361 0
 123              		@ sp needed
 124 0014 7047     		bx	lr
 125              	.L6:
 126 0016 C046     		.align	2
 127              	.L5:
 128 0018 10E000E0 		.word	-536813552
 129 001c 18E000E0 		.word	-536813544
 130 0020 BF5D0000 		.word	23999
 131 0024 14E000E0 		.word	-536813548
 132              		.cfi_endproc
 133              	.LFE45:
 134              		.size	prvSetupTimerInterrupt, .-prvSetupTimerInterrupt
 135              		.section	.text.pxPortInitialiseStack,"ax",%progbits
 136              		.align	2
 137              		.global	pxPortInitialiseStack
 138              		.code	16
 139              		.thumb_func
 140              		.type	pxPortInitialiseStack, %function
 141              	pxPortInitialiseStack:
 142              	.LFB32:
  97:..\FreeRTOS10\portable\GCC\ARM_CM0/port.c **** 	/* Simulate the stack frame as it would be created by a context switch
 143              		.loc 1 97 0
 144              		.cfi_startproc
 145              		@ args = 0, pretend = 0, frame = 0
 146              		@ frame_needed = 0, uses_anonymous_args = 0
 147              	.LVL0:
 148 0000 10B5     		push	{r4, lr}
ARM GAS  C:\Users\Xwx47\AppData\Local\Temp\cccdwVHq.s 			page 10


 149              		.cfi_def_cfa_offset 8
 150              		.cfi_offset 4, -8
 151              		.cfi_offset 14, -4
 152              	.LVL1:
 101:..\FreeRTOS10\portable\GCC\ARM_CM0/port.c **** 	pxTopOfStack--;
 153              		.loc 1 101 0
 154 0002 031F     		subs	r3, r0, #4
 155              	.LVL2:
 156 0004 8024     		movs	r4, #128
 157 0006 6404     		lsls	r4, r4, #17
 158 0008 1C60     		str	r4, [r3]
 159              	.LVL3:
 103:..\FreeRTOS10\portable\GCC\ARM_CM0/port.c **** 	pxTopOfStack--;
 160              		.loc 1 103 0
 161 000a 043B     		subs	r3, r3, #4
 162 000c 1960     		str	r1, [r3]
 163              	.LVL4:
 105:..\FreeRTOS10\portable\GCC\ARM_CM0/port.c **** 	pxTopOfStack -= 5;	/* R12, R3, R2 and R1. */
 164              		.loc 1 105 0
 165 000e 043B     		subs	r3, r3, #4
 166 0010 0249     		ldr	r1, .L8
 167              	.LVL5:
 168 0012 1960     		str	r1, [r3]
 169              	.LVL6:
 107:..\FreeRTOS10\portable\GCC\ARM_CM0/port.c **** 	pxTopOfStack -= 8; /* R11..R4. */
 170              		.loc 1 107 0
 171 0014 143B     		subs	r3, r3, #20
 172              	.LVL7:
 173 0016 1A60     		str	r2, [r3]
 108:..\FreeRTOS10\portable\GCC\ARM_CM0/port.c **** 
 174              		.loc 1 108 0
 175 0018 4038     		subs	r0, r0, #64
 176              	.LVL8:
 111:..\FreeRTOS10\portable\GCC\ARM_CM0/port.c **** /*-----------------------------------------------------------*/
 177              		.loc 1 111 0
 178              		@ sp needed
 179 001a 10BD     		pop	{r4, pc}
 180              	.L9:
 181              		.align	2
 182              	.L8:
 183 001c 00000000 		.word	prvTaskExitError
 184              		.cfi_endproc
 185              	.LFE32:
 186              		.size	pxPortInitialiseStack, .-pxPortInitialiseStack
 187              		.section	.text.SVC_Handler,"ax",%progbits
 188              		.align	2
 189              		.global	SVC_Handler
 190              		.code	16
 191              		.thumb_func
 192              		.type	SVC_Handler, %function
 193              	SVC_Handler:
 194              	.LFB34:
 140:..\FreeRTOS10\portable\GCC\ARM_CM0/port.c **** 	/* This function is no longer used, but retained for backward
 195              		.loc 1 140 0
 196              		.cfi_startproc
 197              		@ args = 0, pretend = 0, frame = 0
 198              		@ frame_needed = 0, uses_anonymous_args = 0
ARM GAS  C:\Users\Xwx47\AppData\Local\Temp\cccdwVHq.s 			page 11


 199              		@ link register save eliminated.
 143:..\FreeRTOS10\portable\GCC\ARM_CM0/port.c **** /*-----------------------------------------------------------*/
 200              		.loc 1 143 0
 201              		@ sp needed
 202 0000 7047     		bx	lr
 203              		.cfi_endproc
 204              	.LFE34:
 205              		.size	SVC_Handler, .-SVC_Handler
 206 0002 C046     		.section	.text.xPortStartScheduler,"ax",%progbits
 207              		.align	2
 208              		.global	xPortStartScheduler
 209              		.code	16
 210              		.thumb_func
 211              		.type	xPortStartScheduler, %function
 212              	xPortStartScheduler:
 213              	.LFB36:
 178:..\FreeRTOS10\portable\GCC\ARM_CM0/port.c **** 	/* Make PendSV, CallSV and SysTick the same priroity as the kernel. */
 214              		.loc 1 178 0
 215              		.cfi_startproc
 216              		@ args = 0, pretend = 0, frame = 0
 217              		@ frame_needed = 0, uses_anonymous_args = 0
 218 0000 10B5     		push	{r4, lr}
 219              		.cfi_def_cfa_offset 8
 220              		.cfi_offset 4, -8
 221              		.cfi_offset 14, -4
 180:..\FreeRTOS10\portable\GCC\ARM_CM0/port.c **** 	*(portNVIC_SYSPRI2) |= portNVIC_SYSTICK_PRI;
 222              		.loc 1 180 0
 223 0002 0C4B     		ldr	r3, .L12
 224 0004 1A68     		ldr	r2, [r3]
 225 0006 FF21     		movs	r1, #255
 226 0008 0904     		lsls	r1, r1, #16
 227 000a 0A43     		orrs	r2, r1
 228 000c 1A60     		str	r2, [r3]
 181:..\FreeRTOS10\portable\GCC\ARM_CM0/port.c **** 
 229              		.loc 1 181 0
 230 000e 1A68     		ldr	r2, [r3]
 231 0010 FF21     		movs	r1, #255
 232 0012 0906     		lsls	r1, r1, #24
 233 0014 0A43     		orrs	r2, r1
 234 0016 1A60     		str	r2, [r3]
 185:..\FreeRTOS10\portable\GCC\ARM_CM0/port.c **** 
 235              		.loc 1 185 0
 236 0018 FFF7FEFF 		bl	prvSetupTimerInterrupt
 237              	.LVL9:
 188:..\FreeRTOS10\portable\GCC\ARM_CM0/port.c **** 
 238              		.loc 1 188 0
 239 001c 0022     		movs	r2, #0
 240 001e 064B     		ldr	r3, .L12+4
 241 0020 1A60     		str	r2, [r3]
 191:..\FreeRTOS10\portable\GCC\ARM_CM0/port.c **** 
 242              		.loc 1 191 0
 243 0022 FFF7FEFF 		bl	vPortStartFirstTask
 244              	.LVL10:
 199:..\FreeRTOS10\portable\GCC\ARM_CM0/port.c **** 	prvTaskExitError();
 245              		.loc 1 199 0
 246 0026 FFF7FEFF 		bl	vTaskSwitchContext
 247              	.LVL11:
ARM GAS  C:\Users\Xwx47\AppData\Local\Temp\cccdwVHq.s 			page 12


 200:..\FreeRTOS10\portable\GCC\ARM_CM0/port.c **** 
 248              		.loc 1 200 0
 249 002a FFF7FEFF 		bl	prvTaskExitError
 250              	.LVL12:
 204:..\FreeRTOS10\portable\GCC\ARM_CM0/port.c **** /*-----------------------------------------------------------*/
 251              		.loc 1 204 0
 252 002e 0020     		movs	r0, #0
 253              		@ sp needed
 254 0030 10BD     		pop	{r4, pc}
 255              	.L13:
 256 0032 C046     		.align	2
 257              	.L12:
 258 0034 20ED00E0 		.word	-536810208
 259 0038 00000000 		.word	.LANCHOR0
 260              		.cfi_endproc
 261              	.LFE36:
 262              		.size	xPortStartScheduler, .-xPortStartScheduler
 263              		.section	.text.vPortEndScheduler,"ax",%progbits
 264              		.align	2
 265              		.global	vPortEndScheduler
 266              		.code	16
 267              		.thumb_func
 268              		.type	vPortEndScheduler, %function
 269              	vPortEndScheduler:
 270              	.LFB37:
 208:..\FreeRTOS10\portable\GCC\ARM_CM0/port.c **** 	/* Not implemented in ports where there is nothing to return to.
 271              		.loc 1 208 0
 272              		.cfi_startproc
 273              		@ args = 0, pretend = 0, frame = 0
 274              		@ frame_needed = 0, uses_anonymous_args = 0
 275              		@ link register save eliminated.
 212:..\FreeRTOS10\portable\GCC\ARM_CM0/port.c **** /*-----------------------------------------------------------*/
 276              		.loc 1 212 0
 277              		@ sp needed
 278 0000 7047     		bx	lr
 279              		.cfi_endproc
 280              	.LFE37:
 281              		.size	vPortEndScheduler, .-vPortEndScheduler
 282 0002 C046     		.section	.text.vPortYield,"ax",%progbits
 283              		.align	2
 284              		.global	vPortYield
 285              		.code	16
 286              		.thumb_func
 287              		.type	vPortYield, %function
 288              	vPortYield:
 289              	.LFB38:
 216:..\FreeRTOS10\portable\GCC\ARM_CM0/port.c **** 	/* Set a PendSV to request a context switch. */
 290              		.loc 1 216 0
 291              		.cfi_startproc
 292              		@ args = 0, pretend = 0, frame = 0
 293              		@ frame_needed = 0, uses_anonymous_args = 0
 294              		@ link register save eliminated.
 218:..\FreeRTOS10\portable\GCC\ARM_CM0/port.c **** 
 295              		.loc 1 218 0
 296 0000 8022     		movs	r2, #128
 297 0002 5205     		lsls	r2, r2, #21
 298 0004 034B     		ldr	r3, .L16
ARM GAS  C:\Users\Xwx47\AppData\Local\Temp\cccdwVHq.s 			page 13


 299 0006 1A60     		str	r2, [r3]
 222:..\FreeRTOS10\portable\GCC\ARM_CM0/port.c **** 	__asm volatile( "isb" );
 300              		.loc 1 222 0
 301              		.syntax divided
 302              	@ 222 "..\FreeRTOS10\portable\GCC\ARM_CM0\port.c" 1
 303 0008 BFF34F8F 		dsb
 304              	@ 0 "" 2
 223:..\FreeRTOS10\portable\GCC\ARM_CM0/port.c **** }
 305              		.loc 1 223 0
 306              	@ 223 "..\FreeRTOS10\portable\GCC\ARM_CM0\port.c" 1
 307 000c BFF36F8F 		isb
 308              	@ 0 "" 2
 224:..\FreeRTOS10\portable\GCC\ARM_CM0/port.c **** /*-----------------------------------------------------------*/
 309              		.loc 1 224 0
 310              		.thumb
 311              		.syntax unified
 312              		@ sp needed
 313 0010 7047     		bx	lr
 314              	.L17:
 315 0012 C046     		.align	2
 316              	.L16:
 317 0014 04ED00E0 		.word	-536810236
 318              		.cfi_endproc
 319              	.LFE38:
 320              		.size	vPortYield, .-vPortYield
 321              		.section	.text.vPortEnterCritical,"ax",%progbits
 322              		.align	2
 323              		.global	vPortEnterCritical
 324              		.code	16
 325              		.thumb_func
 326              		.type	vPortEnterCritical, %function
 327              	vPortEnterCritical:
 328              	.LFB39:
 228:..\FreeRTOS10\portable\GCC\ARM_CM0/port.c ****     portDISABLE_INTERRUPTS();
 329              		.loc 1 228 0
 330              		.cfi_startproc
 331              		@ args = 0, pretend = 0, frame = 0
 332              		@ frame_needed = 0, uses_anonymous_args = 0
 333              		@ link register save eliminated.
 229:..\FreeRTOS10\portable\GCC\ARM_CM0/port.c ****     uxCriticalNesting++;
 334              		.loc 1 229 0
 335              		.syntax divided
 336              	@ 229 "..\FreeRTOS10\portable\GCC\ARM_CM0\port.c" 1
 337 0000 72B6     		 cpsid i 
 338              	@ 0 "" 2
 230:..\FreeRTOS10\portable\GCC\ARM_CM0/port.c **** 	__asm volatile( "dsb" ::: "memory" );
 339              		.loc 1 230 0
 340              		.thumb
 341              		.syntax unified
 342 0002 044A     		ldr	r2, .L19
 343 0004 1368     		ldr	r3, [r2]
 344 0006 0133     		adds	r3, r3, #1
 345 0008 1360     		str	r3, [r2]
 231:..\FreeRTOS10\portable\GCC\ARM_CM0/port.c **** 	__asm volatile( "isb" );
 346              		.loc 1 231 0
 347              		.syntax divided
 348              	@ 231 "..\FreeRTOS10\portable\GCC\ARM_CM0\port.c" 1
ARM GAS  C:\Users\Xwx47\AppData\Local\Temp\cccdwVHq.s 			page 14


 349 000a BFF34F8F 		dsb
 350              	@ 0 "" 2
 232:..\FreeRTOS10\portable\GCC\ARM_CM0/port.c **** }
 351              		.loc 1 232 0
 352              	@ 232 "..\FreeRTOS10\portable\GCC\ARM_CM0\port.c" 1
 353 000e BFF36F8F 		isb
 354              	@ 0 "" 2
 233:..\FreeRTOS10\portable\GCC\ARM_CM0/port.c **** /*-----------------------------------------------------------*/
 355              		.loc 1 233 0
 356              		.thumb
 357              		.syntax unified
 358              		@ sp needed
 359 0012 7047     		bx	lr
 360              	.L20:
 361              		.align	2
 362              	.L19:
 363 0014 00000000 		.word	.LANCHOR0
 364              		.cfi_endproc
 365              	.LFE39:
 366              		.size	vPortEnterCritical, .-vPortEnterCritical
 367              		.section	.text.vPortExitCritical,"ax",%progbits
 368              		.align	2
 369              		.global	vPortExitCritical
 370              		.code	16
 371              		.thumb_func
 372              		.type	vPortExitCritical, %function
 373              	vPortExitCritical:
 374              	.LFB40:
 237:..\FreeRTOS10\portable\GCC\ARM_CM0/port.c **** 	configASSERT( uxCriticalNesting );
 375              		.loc 1 237 0
 376              		.cfi_startproc
 377              		@ args = 0, pretend = 0, frame = 0
 378              		@ frame_needed = 0, uses_anonymous_args = 0
 379              		@ link register save eliminated.
 239:..\FreeRTOS10\portable\GCC\ARM_CM0/port.c ****     if( uxCriticalNesting == 0 )
 380              		.loc 1 239 0
 381 0000 034A     		ldr	r2, .L23
 382 0002 1368     		ldr	r3, [r2]
 383 0004 013B     		subs	r3, r3, #1
 384 0006 1360     		str	r3, [r2]
 240:..\FreeRTOS10\portable\GCC\ARM_CM0/port.c ****     {
 385              		.loc 1 240 0
 386 0008 002B     		cmp	r3, #0
 387 000a 00D1     		bne	.L21
 242:..\FreeRTOS10\portable\GCC\ARM_CM0/port.c ****     }
 388              		.loc 1 242 0
 389              		.syntax divided
 390              	@ 242 "..\FreeRTOS10\portable\GCC\ARM_CM0\port.c" 1
 391 000c 62B6     		 cpsie i 
 392              	@ 0 "" 2
 393              		.thumb
 394              		.syntax unified
 395              	.L21:
 244:..\FreeRTOS10\portable\GCC\ARM_CM0/port.c **** /*-----------------------------------------------------------*/
 396              		.loc 1 244 0
 397              		@ sp needed
 398 000e 7047     		bx	lr
ARM GAS  C:\Users\Xwx47\AppData\Local\Temp\cccdwVHq.s 			page 15


 399              	.L24:
 400              		.align	2
 401              	.L23:
 402 0010 00000000 		.word	.LANCHOR0
 403              		.cfi_endproc
 404              	.LFE40:
 405              		.size	vPortExitCritical, .-vPortExitCritical
 406              		.section	.text.ulSetInterruptMaskFromISR,"ax",%progbits
 407              		.align	2
 408              		.global	ulSetInterruptMaskFromISR
 409              		.code	16
 410              		.thumb_func
 411              		.type	ulSetInterruptMaskFromISR, %function
 412              	ulSetInterruptMaskFromISR:
 413              	.LFB41:
 248:..\FreeRTOS10\portable\GCC\ARM_CM0/port.c **** 	__asm volatile(
 414              		.loc 1 248 0
 415              		.cfi_startproc
 416              		@ Naked Function: prologue and epilogue provided by programmer.
 417              		@ args = 0, pretend = 0, frame = 0
 418              		@ frame_needed = 0, uses_anonymous_args = 0
 249:..\FreeRTOS10\portable\GCC\ARM_CM0/port.c **** 					" mrs r0, PRIMASK	\n"
 419              		.loc 1 249 0
 420              		.syntax divided
 421              	@ 249 "..\FreeRTOS10\portable\GCC\ARM_CM0\port.c" 1
 422 0000 EFF31080 		 mrs r0, PRIMASK	
 423 0004 72B6     	 cpsid i			
 424 0006 7047     	 bx lr				  
 425              	@ 0 "" 2
 262:..\FreeRTOS10\portable\GCC\ARM_CM0/port.c **** /*-----------------------------------------------------------*/
 426              		.loc 1 262 0
 427              		.thumb
 428              		.syntax unified
 429              		.cfi_endproc
 430              	.LFE41:
 431              		.size	ulSetInterruptMaskFromISR, .-ulSetInterruptMaskFromISR
 432              		.section	.text.vClearInterruptMaskFromISR,"ax",%progbits
 433              		.align	2
 434              		.global	vClearInterruptMaskFromISR
 435              		.code	16
 436              		.thumb_func
 437              		.type	vClearInterruptMaskFromISR, %function
 438              	vClearInterruptMaskFromISR:
 439              	.LFB42:
 266:..\FreeRTOS10\portable\GCC\ARM_CM0/port.c **** 	__asm volatile(
 440              		.loc 1 266 0
 441              		.cfi_startproc
 442              		@ Naked Function: prologue and epilogue provided by programmer.
 443              		@ args = 0, pretend = 0, frame = 0
 444              		@ frame_needed = 0, uses_anonymous_args = 0
 445              	.LVL13:
 267:..\FreeRTOS10\portable\GCC\ARM_CM0/port.c **** 					" msr PRIMASK, r0	\n"
 446              		.loc 1 267 0
 447              		.syntax divided
 448              	@ 267 "..\FreeRTOS10\portable\GCC\ARM_CM0\port.c" 1
 449 0000 80F31088 		 msr PRIMASK, r0	
 450 0004 7047     	 bx lr				  
ARM GAS  C:\Users\Xwx47\AppData\Local\Temp\cccdwVHq.s 			page 16


 451              	@ 0 "" 2
 279:..\FreeRTOS10\portable\GCC\ARM_CM0/port.c **** /*-----------------------------------------------------------*/
 452              		.loc 1 279 0
 453              		.thumb
 454              		.syntax unified
 455              		.cfi_endproc
 456              	.LFE42:
 457              		.size	vClearInterruptMaskFromISR, .-vClearInterruptMaskFromISR
 458 0006 C046     		.section	.text.PendSV_Handler,"ax",%progbits
 459              		.align	2
 460              		.global	PendSV_Handler
 461              		.code	16
 462              		.thumb_func
 463              		.type	PendSV_Handler, %function
 464              	PendSV_Handler:
 465              	.LFB43:
 283:..\FreeRTOS10\portable\GCC\ARM_CM0/port.c **** 	/* This is a naked function. */
 466              		.loc 1 283 0
 467              		.cfi_startproc
 468              		@ Naked Function: prologue and epilogue provided by programmer.
 469              		@ args = 0, pretend = 0, frame = 0
 470              		@ frame_needed = 0, uses_anonymous_args = 0
 286:..\FreeRTOS10\portable\GCC\ARM_CM0/port.c **** 	(
 471              		.loc 1 286 0
 472              		.syntax divided
 473              	@ 286 "..\FreeRTOS10\portable\GCC\ARM_CM0\port.c" 1
 474              			.syntax unified						
 475 0000 EFF30980 		mrs r0, psp							
 476              											
 477 0004 0E4B     		ldr	r3, pxCurrentTCBConst			
 478 0006 1A68     		ldr	r2, [r3]						
 479              											
 480 0008 2038     		subs r0, r0, #32					
 481 000a 1060     		str r0, [r2]						
 482 000c F0C0     		stmia r0!, {r4-r7}					
 483 000e 4446     	 	mov r4, r8							
 484 0010 4D46     	 	mov r5, r9							
 485 0012 5646     	 	mov r6, r10							
 486 0014 5F46     	 	mov r7, r11							
 487 0016 F0C0     	 	stmia r0!, {r4-r7}					
 488              											
 489 0018 08B5     		push {r3, r14}						
 490 001a 72B6     		cpsid i								
 491 001c FFF7FEFF 		bl vTaskSwitchContext				
 492 0020 62B6     		cpsie i								
 493 0022 0CBC     		pop {r2, r3}						
 494              											
 495 0024 1168     		ldr r1, [r2]						
 496 0026 0868     		ldr r0, [r1]						
 497 0028 1030     		adds r0, r0, #16					
 498 002a F0C8     		ldmia r0!, {r4-r7}					
 499 002c A046     	 	mov r8, r4							
 500 002e A946     	 	mov r9, r5							
 501 0030 B246     	 	mov r10, r6							
 502 0032 BB46     	 	mov r11, r7							
 503              											
 504 0034 80F30988 		msr psp, r0							
ARM GAS  C:\Users\Xwx47\AppData\Local\Temp\cccdwVHq.s 			page 17


 505              											
 506 0038 2038     		subs r0, r0, #32					
 507 003a F0C8     	 	ldmia r0!, {r4-r7}					
 508              											
 509 003c 1847     		bx r3								
 510              											
 511 003e C046     		.align 4							
 512 0040 00000000 	pxCurrentTCBConst: .word pxCurrentTCB	  
 513              	@ 0 "" 2
 328:..\FreeRTOS10\portable\GCC\ARM_CM0/port.c **** /*-----------------------------------------------------------*/
 514              		.loc 1 328 0
 515              		.thumb
 516              		.syntax unified
 517              		.cfi_endproc
 518              	.LFE43:
 519              		.size	PendSV_Handler, .-PendSV_Handler
 520              		.section	.text.SysTick_Handler,"ax",%progbits
 521              		.align	2
 522              		.global	SysTick_Handler
 523              		.code	16
 524              		.thumb_func
 525              		.type	SysTick_Handler, %function
 526              	SysTick_Handler:
 527              	.LFB44:
 332:..\FreeRTOS10\portable\GCC\ARM_CM0/port.c **** uint32_t ulPreviousMask;
 528              		.loc 1 332 0
 529              		.cfi_startproc
 530              		@ args = 0, pretend = 0, frame = 0
 531              		@ frame_needed = 0, uses_anonymous_args = 0
 532 0000 10B5     		push	{r4, lr}
 533              		.cfi_def_cfa_offset 8
 534              		.cfi_offset 4, -8
 535              		.cfi_offset 14, -4
 335:..\FreeRTOS10\portable\GCC\ARM_CM0/port.c **** 	{
 536              		.loc 1 335 0
 537 0002 FFF7FEFF 		bl	ulSetInterruptMaskFromISR
 538              	.LVL14:
 539 0006 0400     		movs	r4, r0
 540              	.LVL15:
 338:..\FreeRTOS10\portable\GCC\ARM_CM0/port.c **** 		{
 541              		.loc 1 338 0
 542 0008 FFF7FEFF 		bl	xTaskIncrementTick
 543              	.LVL16:
 544 000c 0028     		cmp	r0, #0
 545 000e 03D0     		beq	.L29
 341:..\FreeRTOS10\portable\GCC\ARM_CM0/port.c **** 		}
 546              		.loc 1 341 0
 547 0010 8022     		movs	r2, #128
 548 0012 5205     		lsls	r2, r2, #21
 549 0014 024B     		ldr	r3, .L30
 550 0016 1A60     		str	r2, [r3]
 551              	.L29:
 344:..\FreeRTOS10\portable\GCC\ARM_CM0/port.c **** }
 552              		.loc 1 344 0
 553 0018 2000     		movs	r0, r4
 554 001a FFF7FEFF 		bl	vClearInterruptMaskFromISR
 555              	.LVL17:
ARM GAS  C:\Users\Xwx47\AppData\Local\Temp\cccdwVHq.s 			page 18


 345:..\FreeRTOS10\portable\GCC\ARM_CM0/port.c **** /*-----------------------------------------------------------*/
 556              		.loc 1 345 0
 557              		@ sp needed
 558              	.LVL18:
 559 001e 10BD     		pop	{r4, pc}
 560              	.L31:
 561              		.align	2
 562              	.L30:
 563 0020 04ED00E0 		.word	-536810236
 564              		.cfi_endproc
 565              	.LFE44:
 566              		.size	SysTick_Handler, .-SysTick_Handler
 567              		.data
 568              		.align	2
 569              		.set	.LANCHOR0,. + 0
 570              		.type	uxCriticalNesting, %object
 571              		.size	uxCriticalNesting, 4
 572              	uxCriticalNesting:
 573 0000 AAAAAAAA 		.word	-1431655766
 574              		.text
 575              	.Letext0:
 576              		.file 2 "c:\\program files (x86)\\cypress\\psoc creator\\4.1\\psoc creator\\import\\gnu\\arm\\5.4.
 577              		.file 3 "c:\\program files (x86)\\cypress\\psoc creator\\4.1\\psoc creator\\import\\gnu\\arm\\5.4.
 578              		.file 4 "..\\FreeRTOS10\\include/projdefs.h"
 579              		.file 5 "..\\FreeRTOS10\\portable\\GCC\\ARM_CM0/portmacro.h"
 580              		.file 6 "..\\FreeRTOS10\\include/task.h"