ARM GAS  C:\Users\Xwx47\AppData\Local\Temp\ccZsRkco.s 			page 1


   1              		.syntax unified
   2              		.cpu cortex-m0
   3              		.fpu softvfp
   4              		.eabi_attribute 20, 1
   5              		.eabi_attribute 21, 1
   6              		.eabi_attribute 23, 3
   7              		.eabi_attribute 24, 1
   8              		.eabi_attribute 25, 1
   9              		.eabi_attribute 26, 1
  10              		.eabi_attribute 30, 1
  11              		.eabi_attribute 34, 0
  12              		.eabi_attribute 18, 4
  13              		.thumb
  14              		.syntax unified
  15              		.file	"stream_buffer.c"
  16              		.text
  17              	.Ltext0:
  18              		.cfi_sections	.debug_frame
  19              		.section	.text.prvBytesInBuffer,"ax",%progbits
  20              		.align	2
  21              		.code	16
  22              		.thumb_func
  23              		.type	prvBytesInBuffer, %function
  24              	prvBytesInBuffer:
  25              	.LFB50:
  26              		.file 1 "..\\FreeRTOS10\\stream_buffer.c"
   1:..\FreeRTOS10/stream_buffer.c **** /*
   2:..\FreeRTOS10/stream_buffer.c ****  * FreeRTOS Kernel V10.0.0
   3:..\FreeRTOS10/stream_buffer.c ****  * Copyright (C) 2017 Amazon.com, Inc. or its affiliates.  All Rights Reserved.
   4:..\FreeRTOS10/stream_buffer.c ****  *
   5:..\FreeRTOS10/stream_buffer.c ****  * Permission is hereby granted, free of charge, to any person obtaining a copy of
   6:..\FreeRTOS10/stream_buffer.c ****  * this software and associated documentation files (the "Software"), to deal in
   7:..\FreeRTOS10/stream_buffer.c ****  * the Software without restriction, including without limitation the rights to
   8:..\FreeRTOS10/stream_buffer.c ****  * use, copy, modify, merge, publish, distribute, sublicense, and/or sell copies of
   9:..\FreeRTOS10/stream_buffer.c ****  * the Software, and to permit persons to whom the Software is furnished to do so,
  10:..\FreeRTOS10/stream_buffer.c ****  * subject to the following conditions:
  11:..\FreeRTOS10/stream_buffer.c ****  *
  12:..\FreeRTOS10/stream_buffer.c ****  * The above copyright notice and this permission notice shall be included in all
  13:..\FreeRTOS10/stream_buffer.c ****  * copies or substantial portions of the Software. If you wish to use our Amazon
  14:..\FreeRTOS10/stream_buffer.c ****  * FreeRTOS name, please do so in a fair use way that does not cause confusion.
  15:..\FreeRTOS10/stream_buffer.c ****  *
  16:..\FreeRTOS10/stream_buffer.c ****  * THE SOFTWARE IS PROVIDED "AS IS", WITHOUT WARRANTY OF ANY KIND, EXPRESS OR
  17:..\FreeRTOS10/stream_buffer.c ****  * IMPLIED, INCLUDING BUT NOT LIMITED TO THE WARRANTIES OF MERCHANTABILITY, FITNESS
  18:..\FreeRTOS10/stream_buffer.c ****  * FOR A PARTICULAR PURPOSE AND NONINFRINGEMENT. IN NO EVENT SHALL THE AUTHORS OR
  19:..\FreeRTOS10/stream_buffer.c ****  * COPYRIGHT HOLDERS BE LIABLE FOR ANY CLAIM, DAMAGES OR OTHER LIABILITY, WHETHER
  20:..\FreeRTOS10/stream_buffer.c ****  * IN AN ACTION OF CONTRACT, TORT OR OTHERWISE, ARISING FROM, OUT OF OR IN
  21:..\FreeRTOS10/stream_buffer.c ****  * CONNECTION WITH THE SOFTWARE OR THE USE OR OTHER DEALINGS IN THE SOFTWARE.
  22:..\FreeRTOS10/stream_buffer.c ****  *
  23:..\FreeRTOS10/stream_buffer.c ****  * http://www.FreeRTOS.org
  24:..\FreeRTOS10/stream_buffer.c ****  * http://aws.amazon.com/freertos
  25:..\FreeRTOS10/stream_buffer.c ****  *
  26:..\FreeRTOS10/stream_buffer.c ****  * 1 tab == 4 spaces!
  27:..\FreeRTOS10/stream_buffer.c ****  */
  28:..\FreeRTOS10/stream_buffer.c **** 
  29:..\FreeRTOS10/stream_buffer.c **** /* Standard includes. */
  30:..\FreeRTOS10/stream_buffer.c **** #include <stdint.h>
  31:..\FreeRTOS10/stream_buffer.c **** #include <string.h>
ARM GAS  C:\Users\Xwx47\AppData\Local\Temp\ccZsRkco.s 			page 2


  32:..\FreeRTOS10/stream_buffer.c **** 
  33:..\FreeRTOS10/stream_buffer.c **** /* Defining MPU_WRAPPERS_INCLUDED_FROM_API_FILE prevents task.h from redefining
  34:..\FreeRTOS10/stream_buffer.c **** all the API functions to use the MPU wrappers.  That should only be done when
  35:..\FreeRTOS10/stream_buffer.c **** task.h is included from an application file. */
  36:..\FreeRTOS10/stream_buffer.c **** #define MPU_WRAPPERS_INCLUDED_FROM_API_FILE
  37:..\FreeRTOS10/stream_buffer.c **** 
  38:..\FreeRTOS10/stream_buffer.c **** /* FreeRTOS includes. */
  39:..\FreeRTOS10/stream_buffer.c **** #include "FreeRTOS.h"
  40:..\FreeRTOS10/stream_buffer.c **** #include "task.h"
  41:..\FreeRTOS10/stream_buffer.c **** #include "stream_buffer.h"
  42:..\FreeRTOS10/stream_buffer.c **** 
  43:..\FreeRTOS10/stream_buffer.c **** /* Lint e961 and e750 are suppressed as a MISRA exception justified because the
  44:..\FreeRTOS10/stream_buffer.c **** MPU ports require MPU_WRAPPERS_INCLUDED_FROM_API_FILE to be defined for the
  45:..\FreeRTOS10/stream_buffer.c **** header files above, but not in this file, in order to generate the correct
  46:..\FreeRTOS10/stream_buffer.c **** privileged Vs unprivileged linkage and placement. */
  47:..\FreeRTOS10/stream_buffer.c **** #undef MPU_WRAPPERS_INCLUDED_FROM_API_FILE /*lint !e961 !e750. */
  48:..\FreeRTOS10/stream_buffer.c **** 
  49:..\FreeRTOS10/stream_buffer.c **** /* If the user has not provided application specific Rx notification macros,
  50:..\FreeRTOS10/stream_buffer.c **** or #defined the notification macros away, them provide default implementations
  51:..\FreeRTOS10/stream_buffer.c **** that uses task notifications. */
  52:..\FreeRTOS10/stream_buffer.c **** /*lint -save -e9026 Function like macros allowed and needed here so they can be overidden. */
  53:..\FreeRTOS10/stream_buffer.c **** #ifndef sbRECEIVE_COMPLETED
  54:..\FreeRTOS10/stream_buffer.c **** 	#define sbRECEIVE_COMPLETED( pxStreamBuffer )										\
  55:..\FreeRTOS10/stream_buffer.c **** 		vTaskSuspendAll();																\
  56:..\FreeRTOS10/stream_buffer.c **** 		{																				\
  57:..\FreeRTOS10/stream_buffer.c **** 			if( ( pxStreamBuffer )->xTaskWaitingToSend != NULL )						\
  58:..\FreeRTOS10/stream_buffer.c **** 			{																			\
  59:..\FreeRTOS10/stream_buffer.c **** 				( void ) xTaskNotify( ( pxStreamBuffer )->xTaskWaitingToSend,			\
  60:..\FreeRTOS10/stream_buffer.c **** 									  ( uint32_t ) 0,									\
  61:..\FreeRTOS10/stream_buffer.c **** 									  eNoAction );										\
  62:..\FreeRTOS10/stream_buffer.c **** 				( pxStreamBuffer )->xTaskWaitingToSend = NULL;							\
  63:..\FreeRTOS10/stream_buffer.c **** 			}																			\
  64:..\FreeRTOS10/stream_buffer.c **** 		}																				\
  65:..\FreeRTOS10/stream_buffer.c **** 		( void ) xTaskResumeAll();
  66:..\FreeRTOS10/stream_buffer.c **** #endif /* sbRECEIVE_COMPLETED */
  67:..\FreeRTOS10/stream_buffer.c **** 
  68:..\FreeRTOS10/stream_buffer.c **** #ifndef sbRECEIVE_COMPLETED_FROM_ISR
  69:..\FreeRTOS10/stream_buffer.c **** 	#define sbRECEIVE_COMPLETED_FROM_ISR( pxStreamBuffer,								\
  70:..\FreeRTOS10/stream_buffer.c **** 										  pxHigherPriorityTaskWoken )					\
  71:..\FreeRTOS10/stream_buffer.c **** 	{																					\
  72:..\FreeRTOS10/stream_buffer.c **** 	UBaseType_t uxSavedInterruptStatus;													\
  73:..\FreeRTOS10/stream_buffer.c **** 																						\
  74:..\FreeRTOS10/stream_buffer.c **** 		uxSavedInterruptStatus = ( UBaseType_t ) portSET_INTERRUPT_MASK_FROM_ISR();		\
  75:..\FreeRTOS10/stream_buffer.c **** 		{																				\
  76:..\FreeRTOS10/stream_buffer.c **** 			if( ( pxStreamBuffer )->xTaskWaitingToSend != NULL )						\
  77:..\FreeRTOS10/stream_buffer.c **** 			{																			\
  78:..\FreeRTOS10/stream_buffer.c **** 				( void ) xTaskNotifyFromISR( ( pxStreamBuffer )->xTaskWaitingToSend,	\
  79:..\FreeRTOS10/stream_buffer.c **** 											 ( uint32_t ) 0,							\
  80:..\FreeRTOS10/stream_buffer.c **** 											 eNoAction,									\
  81:..\FreeRTOS10/stream_buffer.c **** 											 pxHigherPriorityTaskWoken );				\
  82:..\FreeRTOS10/stream_buffer.c **** 				( pxStreamBuffer )->xTaskWaitingToSend = NULL;							\
  83:..\FreeRTOS10/stream_buffer.c **** 			}																			\
  84:..\FreeRTOS10/stream_buffer.c **** 		}																				\
  85:..\FreeRTOS10/stream_buffer.c **** 		portCLEAR_INTERRUPT_MASK_FROM_ISR( uxSavedInterruptStatus );					\
  86:..\FreeRTOS10/stream_buffer.c **** 	}
  87:..\FreeRTOS10/stream_buffer.c **** #endif /* sbRECEIVE_COMPLETED_FROM_ISR */
  88:..\FreeRTOS10/stream_buffer.c **** 
ARM GAS  C:\Users\Xwx47\AppData\Local\Temp\ccZsRkco.s 			page 3


  89:..\FreeRTOS10/stream_buffer.c **** /* If the user has not provided an application specific Tx notification macro,
  90:..\FreeRTOS10/stream_buffer.c **** or #defined the notification macro away, them provide a default implementation
  91:..\FreeRTOS10/stream_buffer.c **** that uses task notifications. */
  92:..\FreeRTOS10/stream_buffer.c **** #ifndef sbSEND_COMPLETED
  93:..\FreeRTOS10/stream_buffer.c **** 	#define sbSEND_COMPLETED( pxStreamBuffer )											\
  94:..\FreeRTOS10/stream_buffer.c **** 		vTaskSuspendAll();																\
  95:..\FreeRTOS10/stream_buffer.c **** 		{																				\
  96:..\FreeRTOS10/stream_buffer.c **** 			if( ( pxStreamBuffer )->xTaskWaitingToReceive != NULL )						\
  97:..\FreeRTOS10/stream_buffer.c **** 			{																			\
  98:..\FreeRTOS10/stream_buffer.c **** 				( void ) xTaskNotify( ( pxStreamBuffer )->xTaskWaitingToReceive,		\
  99:..\FreeRTOS10/stream_buffer.c **** 									  ( uint32_t ) 0,									\
 100:..\FreeRTOS10/stream_buffer.c **** 									  eNoAction );										\
 101:..\FreeRTOS10/stream_buffer.c **** 				( pxStreamBuffer )->xTaskWaitingToReceive = NULL;						\
 102:..\FreeRTOS10/stream_buffer.c **** 			}																			\
 103:..\FreeRTOS10/stream_buffer.c **** 		}																				\
 104:..\FreeRTOS10/stream_buffer.c **** 		( void ) xTaskResumeAll();
 105:..\FreeRTOS10/stream_buffer.c **** #endif /* sbSEND_COMPLETED */
 106:..\FreeRTOS10/stream_buffer.c **** 
 107:..\FreeRTOS10/stream_buffer.c **** #ifndef sbSEND_COMPLETE_FROM_ISR
 108:..\FreeRTOS10/stream_buffer.c **** 	#define sbSEND_COMPLETE_FROM_ISR( pxStreamBuffer, pxHigherPriorityTaskWoken )		\
 109:..\FreeRTOS10/stream_buffer.c **** 	{																					\
 110:..\FreeRTOS10/stream_buffer.c **** 	UBaseType_t uxSavedInterruptStatus;													\
 111:..\FreeRTOS10/stream_buffer.c **** 																						\
 112:..\FreeRTOS10/stream_buffer.c **** 		uxSavedInterruptStatus = ( UBaseType_t ) portSET_INTERRUPT_MASK_FROM_ISR();		\
 113:..\FreeRTOS10/stream_buffer.c **** 		{																				\
 114:..\FreeRTOS10/stream_buffer.c **** 			if( ( pxStreamBuffer )->xTaskWaitingToReceive != NULL )						\
 115:..\FreeRTOS10/stream_buffer.c **** 			{																			\
 116:..\FreeRTOS10/stream_buffer.c **** 				( void ) xTaskNotifyFromISR( ( pxStreamBuffer )->xTaskWaitingToReceive,	\
 117:..\FreeRTOS10/stream_buffer.c **** 											 ( uint32_t ) 0,							\
 118:..\FreeRTOS10/stream_buffer.c **** 											 eNoAction,									\
 119:..\FreeRTOS10/stream_buffer.c **** 											 pxHigherPriorityTaskWoken );				\
 120:..\FreeRTOS10/stream_buffer.c **** 				( pxStreamBuffer )->xTaskWaitingToReceive = NULL;						\
 121:..\FreeRTOS10/stream_buffer.c **** 			}																			\
 122:..\FreeRTOS10/stream_buffer.c **** 		}																				\
 123:..\FreeRTOS10/stream_buffer.c **** 		portCLEAR_INTERRUPT_MASK_FROM_ISR( uxSavedInterruptStatus );					\
 124:..\FreeRTOS10/stream_buffer.c **** 	}
 125:..\FreeRTOS10/stream_buffer.c **** #endif /* sbSEND_COMPLETE_FROM_ISR */
 126:..\FreeRTOS10/stream_buffer.c **** /*lint -restore (9026) */
 127:..\FreeRTOS10/stream_buffer.c **** 
 128:..\FreeRTOS10/stream_buffer.c **** /* The number of bytes used to hold the length of a message in the buffer. */
 129:..\FreeRTOS10/stream_buffer.c **** #define sbBYTES_TO_STORE_MESSAGE_LENGTH ( sizeof( size_t ) )
 130:..\FreeRTOS10/stream_buffer.c **** 
 131:..\FreeRTOS10/stream_buffer.c **** /* Bits stored in the ucFlags field of the stream buffer. */
 132:..\FreeRTOS10/stream_buffer.c **** #define sbFLAGS_IS_MESSAGE_BUFFER		( ( uint8_t ) 1 ) /* Set if the stream buffer was created as a m
 133:..\FreeRTOS10/stream_buffer.c **** #define sbFLAGS_IS_STATICALLY_ALLOCATED ( ( uint8_t ) 2 ) /* Set if the stream buffer was created u
 134:..\FreeRTOS10/stream_buffer.c **** 
 135:..\FreeRTOS10/stream_buffer.c **** /*-----------------------------------------------------------*/
 136:..\FreeRTOS10/stream_buffer.c **** 
 137:..\FreeRTOS10/stream_buffer.c **** /* Structure that hold state information on the buffer. */
 138:..\FreeRTOS10/stream_buffer.c **** typedef struct xSTREAM_BUFFER /*lint !e9058 Style convention uses tag. */
 139:..\FreeRTOS10/stream_buffer.c **** {
 140:..\FreeRTOS10/stream_buffer.c **** 	volatile size_t xTail;				/* Index to the next item to read within the buffer. */
 141:..\FreeRTOS10/stream_buffer.c **** 	volatile size_t xHead;				/* Index to the next item to write within the buffer. */
 142:..\FreeRTOS10/stream_buffer.c **** 	size_t xLength;						/* The length of the buffer pointed to by pucBuffer. */
 143:..\FreeRTOS10/stream_buffer.c **** 	size_t xTriggerLevelBytes;			/* The number of bytes that must be in the stream buffer before a tas
 144:..\FreeRTOS10/stream_buffer.c **** 	volatile TaskHandle_t xTaskWaitingToReceive; /* Holds the handle of a task waiting for data, or NU
 145:..\FreeRTOS10/stream_buffer.c **** 	volatile TaskHandle_t xTaskWaitingToSend;	/* Holds the handle of a task waiting to send data to a 
ARM GAS  C:\Users\Xwx47\AppData\Local\Temp\ccZsRkco.s 			page 4


 146:..\FreeRTOS10/stream_buffer.c **** 	uint8_t *pucBuffer;					/* Points to the buffer itself - that is - the RAM that stores the data pa
 147:..\FreeRTOS10/stream_buffer.c **** 	uint8_t ucFlags;
 148:..\FreeRTOS10/stream_buffer.c **** 
 149:..\FreeRTOS10/stream_buffer.c **** 	#if ( configUSE_TRACE_FACILITY == 1 )
 150:..\FreeRTOS10/stream_buffer.c **** 		UBaseType_t uxStreamBufferNumber;		/* Used for tracing purposes. */
 151:..\FreeRTOS10/stream_buffer.c **** 	#endif
 152:..\FreeRTOS10/stream_buffer.c **** } StreamBuffer_t;
 153:..\FreeRTOS10/stream_buffer.c **** 
 154:..\FreeRTOS10/stream_buffer.c **** /*
 155:..\FreeRTOS10/stream_buffer.c ****  * The number of bytes available to be read from the buffer.
 156:..\FreeRTOS10/stream_buffer.c ****  */
 157:..\FreeRTOS10/stream_buffer.c **** static size_t prvBytesInBuffer( const StreamBuffer_t * const pxStreamBuffer ) PRIVILEGED_FUNCTION;
 158:..\FreeRTOS10/stream_buffer.c **** 
 159:..\FreeRTOS10/stream_buffer.c **** /*
 160:..\FreeRTOS10/stream_buffer.c ****  * Add xCount bytes from pucData into the pxStreamBuffer message buffer.
 161:..\FreeRTOS10/stream_buffer.c ****  * Returns the number of bytes written, which will either equal xCount in the
 162:..\FreeRTOS10/stream_buffer.c ****  * success case, or 0 if there was not enough space in the buffer (in which case
 163:..\FreeRTOS10/stream_buffer.c ****  * no data is written into the buffer).
 164:..\FreeRTOS10/stream_buffer.c ****  */
 165:..\FreeRTOS10/stream_buffer.c **** static size_t prvWriteBytesToBuffer( StreamBuffer_t * const pxStreamBuffer, const uint8_t *pucData,
 166:..\FreeRTOS10/stream_buffer.c **** 
 167:..\FreeRTOS10/stream_buffer.c **** /*
 168:..\FreeRTOS10/stream_buffer.c ****  * If the stream buffer is being used as a message buffer, then reads an entire
 169:..\FreeRTOS10/stream_buffer.c ****  * message out of the buffer.  If the stream buffer is being used as a stream
 170:..\FreeRTOS10/stream_buffer.c ****  * buffer then read as many bytes as possible from the buffer.
 171:..\FreeRTOS10/stream_buffer.c ****  * prvReadBytesFromBuffer() is called to actually extract the bytes from the
 172:..\FreeRTOS10/stream_buffer.c ****  * buffer's data storage area.
 173:..\FreeRTOS10/stream_buffer.c ****  */
 174:..\FreeRTOS10/stream_buffer.c **** static size_t prvReadMessageFromBuffer( StreamBuffer_t *pxStreamBuffer,
 175:..\FreeRTOS10/stream_buffer.c **** 										void *pvRxData,
 176:..\FreeRTOS10/stream_buffer.c **** 										size_t xBufferLengthBytes,
 177:..\FreeRTOS10/stream_buffer.c **** 										size_t xBytesAvailable,
 178:..\FreeRTOS10/stream_buffer.c **** 										size_t xBytesToStoreMessageLength ) PRIVILEGED_FUNCTION;
 179:..\FreeRTOS10/stream_buffer.c **** 
 180:..\FreeRTOS10/stream_buffer.c **** /*
 181:..\FreeRTOS10/stream_buffer.c ****  * If the stream buffer is being used as a message buffer, then writes an entire
 182:..\FreeRTOS10/stream_buffer.c ****  * message to the buffer.  If the stream buffer is being used as a stream
 183:..\FreeRTOS10/stream_buffer.c ****  * buffer then write as many bytes as possible to the buffer.
 184:..\FreeRTOS10/stream_buffer.c ****  * prvWriteBytestoBuffer() is called to actually send the bytes to the buffer's
 185:..\FreeRTOS10/stream_buffer.c ****  * data storage area.
 186:..\FreeRTOS10/stream_buffer.c ****  */
 187:..\FreeRTOS10/stream_buffer.c **** static size_t prvWriteMessageToBuffer(  StreamBuffer_t * const pxStreamBuffer,
 188:..\FreeRTOS10/stream_buffer.c **** 										const void * pvTxData,
 189:..\FreeRTOS10/stream_buffer.c **** 										size_t xDataLengthBytes,
 190:..\FreeRTOS10/stream_buffer.c **** 										size_t xSpace,
 191:..\FreeRTOS10/stream_buffer.c **** 										size_t xRequiredSpace ) PRIVILEGED_FUNCTION;
 192:..\FreeRTOS10/stream_buffer.c **** 
 193:..\FreeRTOS10/stream_buffer.c **** /*
 194:..\FreeRTOS10/stream_buffer.c ****  * Read xMaxCount bytes from the pxStreamBuffer message buffer and write them
 195:..\FreeRTOS10/stream_buffer.c ****  * to pucData.
 196:..\FreeRTOS10/stream_buffer.c ****  */
 197:..\FreeRTOS10/stream_buffer.c **** static size_t prvReadBytesFromBuffer( StreamBuffer_t *pxStreamBuffer,
 198:..\FreeRTOS10/stream_buffer.c **** 									  uint8_t *pucData,
 199:..\FreeRTOS10/stream_buffer.c **** 									  size_t xMaxCount,
 200:..\FreeRTOS10/stream_buffer.c **** 									  size_t xBytesAvailable ); PRIVILEGED_FUNCTION
 201:..\FreeRTOS10/stream_buffer.c **** 
 202:..\FreeRTOS10/stream_buffer.c **** /*
ARM GAS  C:\Users\Xwx47\AppData\Local\Temp\ccZsRkco.s 			page 5


 203:..\FreeRTOS10/stream_buffer.c ****  * Called by both pxStreamBufferCreate() and pxStreamBufferCreateStatic() to
 204:..\FreeRTOS10/stream_buffer.c ****  * initialise the members of the newly created stream buffer structure.
 205:..\FreeRTOS10/stream_buffer.c ****  */
 206:..\FreeRTOS10/stream_buffer.c **** static void prvInitialiseNewStreamBuffer( StreamBuffer_t * const pxStreamBuffer,
 207:..\FreeRTOS10/stream_buffer.c **** 										  uint8_t * const pucBuffer,
 208:..\FreeRTOS10/stream_buffer.c **** 										  size_t xBufferSizeBytes,
 209:..\FreeRTOS10/stream_buffer.c **** 										  size_t xTriggerLevelBytes,
 210:..\FreeRTOS10/stream_buffer.c **** 										  BaseType_t xIsMessageBuffer ) PRIVILEGED_FUNCTION;
 211:..\FreeRTOS10/stream_buffer.c **** 
 212:..\FreeRTOS10/stream_buffer.c **** /*-----------------------------------------------------------*/
 213:..\FreeRTOS10/stream_buffer.c **** 
 214:..\FreeRTOS10/stream_buffer.c **** #if( configSUPPORT_DYNAMIC_ALLOCATION == 1 )
 215:..\FreeRTOS10/stream_buffer.c **** 
 216:..\FreeRTOS10/stream_buffer.c **** 	StreamBufferHandle_t xStreamBufferGenericCreate( size_t xBufferSizeBytes, size_t xTriggerLevelByte
 217:..\FreeRTOS10/stream_buffer.c **** 	{
 218:..\FreeRTOS10/stream_buffer.c **** 	uint8_t *pucAllocatedMemory;
 219:..\FreeRTOS10/stream_buffer.c **** 
 220:..\FreeRTOS10/stream_buffer.c **** 		/* In case the stream buffer is going to be used as a message buffer
 221:..\FreeRTOS10/stream_buffer.c **** 		(that is, it will hold discrete messages with a little meta data that
 222:..\FreeRTOS10/stream_buffer.c **** 		says how big the next message is) check the buffer will be large enough
 223:..\FreeRTOS10/stream_buffer.c **** 		to hold at least one message. */
 224:..\FreeRTOS10/stream_buffer.c **** 		configASSERT( xBufferSizeBytes > sbBYTES_TO_STORE_MESSAGE_LENGTH );
 225:..\FreeRTOS10/stream_buffer.c **** 		configASSERT( xTriggerLevelBytes <= xBufferSizeBytes );
 226:..\FreeRTOS10/stream_buffer.c **** 
 227:..\FreeRTOS10/stream_buffer.c **** 		/* A trigger level of 0 would cause a waiting task to unblock even when
 228:..\FreeRTOS10/stream_buffer.c **** 		the buffer was empty. */
 229:..\FreeRTOS10/stream_buffer.c **** 		if( xTriggerLevelBytes == ( size_t ) 0 )
 230:..\FreeRTOS10/stream_buffer.c **** 		{
 231:..\FreeRTOS10/stream_buffer.c **** 			xTriggerLevelBytes = ( size_t ) 1; /*lint !e9044 Parameter modified to ensure it doesn't have a 
 232:..\FreeRTOS10/stream_buffer.c **** 		}
 233:..\FreeRTOS10/stream_buffer.c **** 
 234:..\FreeRTOS10/stream_buffer.c **** 		/* A stream buffer requires a StreamBuffer_t structure and a buffer.
 235:..\FreeRTOS10/stream_buffer.c **** 		Both are allocated in a single call to pvPortMalloc().  The
 236:..\FreeRTOS10/stream_buffer.c **** 		StreamBuffer_t structure is placed at the start of the allocated memory
 237:..\FreeRTOS10/stream_buffer.c **** 		and the buffer follows immediately after.  The requested size is
 238:..\FreeRTOS10/stream_buffer.c **** 		incremented so the free space is returned as the user would expect -
 239:..\FreeRTOS10/stream_buffer.c **** 		this is a quirk of the implementation that means otherwise the free
 240:..\FreeRTOS10/stream_buffer.c **** 		space would be reported as one byte smaller than would be logically
 241:..\FreeRTOS10/stream_buffer.c **** 		expected. */
 242:..\FreeRTOS10/stream_buffer.c **** 		xBufferSizeBytes++;
 243:..\FreeRTOS10/stream_buffer.c **** 		pucAllocatedMemory = ( uint8_t * ) pvPortMalloc( xBufferSizeBytes + sizeof( StreamBuffer_t ) ); /
 244:..\FreeRTOS10/stream_buffer.c **** 
 245:..\FreeRTOS10/stream_buffer.c **** 		if( pucAllocatedMemory != NULL )
 246:..\FreeRTOS10/stream_buffer.c **** 		{
 247:..\FreeRTOS10/stream_buffer.c **** 			prvInitialiseNewStreamBuffer( ( StreamBuffer_t * ) pucAllocatedMemory, /* Structure at the start
 248:..\FreeRTOS10/stream_buffer.c **** 										   pucAllocatedMemory + sizeof( StreamBuffer_t ),  /* Storage area follows. */ /*lint !e9
 249:..\FreeRTOS10/stream_buffer.c **** 										   xBufferSizeBytes,
 250:..\FreeRTOS10/stream_buffer.c **** 										   xTriggerLevelBytes,
 251:..\FreeRTOS10/stream_buffer.c **** 										   xIsMessageBuffer );
 252:..\FreeRTOS10/stream_buffer.c **** 
 253:..\FreeRTOS10/stream_buffer.c **** 			traceSTREAM_BUFFER_CREATE( ( ( StreamBuffer_t * ) pucAllocatedMemory ), xIsMessageBuffer );
 254:..\FreeRTOS10/stream_buffer.c **** 		}
 255:..\FreeRTOS10/stream_buffer.c **** 		else
 256:..\FreeRTOS10/stream_buffer.c **** 		{
 257:..\FreeRTOS10/stream_buffer.c **** 			traceSTREAM_BUFFER_CREATE_FAILED( xIsMessageBuffer );
 258:..\FreeRTOS10/stream_buffer.c **** 		}
 259:..\FreeRTOS10/stream_buffer.c **** 
ARM GAS  C:\Users\Xwx47\AppData\Local\Temp\ccZsRkco.s 			page 6


 260:..\FreeRTOS10/stream_buffer.c **** 		return ( StreamBufferHandle_t * ) pucAllocatedMemory; /*lint !e9087 !e826 Safe cast as allocated 
 261:..\FreeRTOS10/stream_buffer.c **** 	}
 262:..\FreeRTOS10/stream_buffer.c **** 
 263:..\FreeRTOS10/stream_buffer.c **** #endif /* configSUPPORT_DYNAMIC_ALLOCATION */
 264:..\FreeRTOS10/stream_buffer.c **** /*-----------------------------------------------------------*/
 265:..\FreeRTOS10/stream_buffer.c **** 
 266:..\FreeRTOS10/stream_buffer.c **** #if( configSUPPORT_STATIC_ALLOCATION == 1 )
 267:..\FreeRTOS10/stream_buffer.c **** 
 268:..\FreeRTOS10/stream_buffer.c **** 	StreamBufferHandle_t xStreamBufferGenericCreateStatic( size_t xBufferSizeBytes,
 269:..\FreeRTOS10/stream_buffer.c **** 														   size_t xTriggerLevelBytes,
 270:..\FreeRTOS10/stream_buffer.c **** 														   BaseType_t xIsMessageBuffer,
 271:..\FreeRTOS10/stream_buffer.c **** 														   uint8_t * const pucStreamBufferStorageArea,
 272:..\FreeRTOS10/stream_buffer.c **** 														   StaticStreamBuffer_t * const pxStaticStreamBuffer )
 273:..\FreeRTOS10/stream_buffer.c **** 	{
 274:..\FreeRTOS10/stream_buffer.c **** 	StreamBuffer_t * const pxStreamBuffer = ( StreamBuffer_t * ) pxStaticStreamBuffer; /*lint !e740 !e
 275:..\FreeRTOS10/stream_buffer.c **** 	StreamBufferHandle_t xReturn;
 276:..\FreeRTOS10/stream_buffer.c **** 
 277:..\FreeRTOS10/stream_buffer.c **** 		configASSERT( pucStreamBufferStorageArea );
 278:..\FreeRTOS10/stream_buffer.c **** 		configASSERT( pxStaticStreamBuffer );
 279:..\FreeRTOS10/stream_buffer.c **** 		configASSERT( xTriggerLevelBytes <= xBufferSizeBytes );
 280:..\FreeRTOS10/stream_buffer.c **** 
 281:..\FreeRTOS10/stream_buffer.c **** 		/* A trigger level of 0 would cause a waiting task to unblock even when
 282:..\FreeRTOS10/stream_buffer.c **** 		the buffer was empty. */
 283:..\FreeRTOS10/stream_buffer.c **** 		if( xTriggerLevelBytes == ( size_t ) 0 )
 284:..\FreeRTOS10/stream_buffer.c **** 		{
 285:..\FreeRTOS10/stream_buffer.c **** 			xTriggerLevelBytes = ( size_t ) 1; /*lint !e9044 Function parameter deliberately modified to ens
 286:..\FreeRTOS10/stream_buffer.c **** 		}
 287:..\FreeRTOS10/stream_buffer.c **** 
 288:..\FreeRTOS10/stream_buffer.c **** 		/* In case the stream buffer is going to be used as a message buffer
 289:..\FreeRTOS10/stream_buffer.c **** 		(that is, it will hold discrete messages with a little meta data that
 290:..\FreeRTOS10/stream_buffer.c **** 		says how big the next message is) check the buffer will be large enough
 291:..\FreeRTOS10/stream_buffer.c **** 		to hold at least one message. */
 292:..\FreeRTOS10/stream_buffer.c **** 		configASSERT( xBufferSizeBytes > sbBYTES_TO_STORE_MESSAGE_LENGTH );
 293:..\FreeRTOS10/stream_buffer.c **** 
 294:..\FreeRTOS10/stream_buffer.c **** 		#if( configASSERT_DEFINED == 1 )
 295:..\FreeRTOS10/stream_buffer.c **** 		{
 296:..\FreeRTOS10/stream_buffer.c **** 			/* Sanity check that the size of the structure used to declare a
 297:..\FreeRTOS10/stream_buffer.c **** 			variable of type StaticStreamBuffer_t equals the size of the real
 298:..\FreeRTOS10/stream_buffer.c **** 			message buffer structure. */
 299:..\FreeRTOS10/stream_buffer.c **** 			volatile size_t xSize = sizeof( StaticStreamBuffer_t );
 300:..\FreeRTOS10/stream_buffer.c **** 			configASSERT( xSize == sizeof( StreamBuffer_t ) );
 301:..\FreeRTOS10/stream_buffer.c **** 		}
 302:..\FreeRTOS10/stream_buffer.c **** 		#endif /* configASSERT_DEFINED */
 303:..\FreeRTOS10/stream_buffer.c **** 
 304:..\FreeRTOS10/stream_buffer.c **** 		if( ( pucStreamBufferStorageArea != NULL ) && ( pxStaticStreamBuffer != NULL ) )
 305:..\FreeRTOS10/stream_buffer.c **** 		{
 306:..\FreeRTOS10/stream_buffer.c **** 			prvInitialiseNewStreamBuffer( pxStreamBuffer,
 307:..\FreeRTOS10/stream_buffer.c **** 										  pucStreamBufferStorageArea,
 308:..\FreeRTOS10/stream_buffer.c **** 										  xBufferSizeBytes,
 309:..\FreeRTOS10/stream_buffer.c **** 										  xTriggerLevelBytes,
 310:..\FreeRTOS10/stream_buffer.c **** 										  xIsMessageBuffer );
 311:..\FreeRTOS10/stream_buffer.c **** 
 312:..\FreeRTOS10/stream_buffer.c **** 			/* Remember this was statically allocated in case it is ever deleted
 313:..\FreeRTOS10/stream_buffer.c **** 			again. */
 314:..\FreeRTOS10/stream_buffer.c **** 			pxStreamBuffer->ucFlags |= sbFLAGS_IS_STATICALLY_ALLOCATED;
 315:..\FreeRTOS10/stream_buffer.c **** 
 316:..\FreeRTOS10/stream_buffer.c **** 			traceSTREAM_BUFFER_CREATE( pxStreamBuffer, xIsMessageBuffer );
ARM GAS  C:\Users\Xwx47\AppData\Local\Temp\ccZsRkco.s 			page 7


 317:..\FreeRTOS10/stream_buffer.c **** 
 318:..\FreeRTOS10/stream_buffer.c **** 			xReturn = ( StreamBufferHandle_t ) pxStaticStreamBuffer; /*lint !e9087 Data hiding requires cast
 319:..\FreeRTOS10/stream_buffer.c **** 		}
 320:..\FreeRTOS10/stream_buffer.c **** 		else
 321:..\FreeRTOS10/stream_buffer.c **** 		{
 322:..\FreeRTOS10/stream_buffer.c **** 			xReturn = NULL;
 323:..\FreeRTOS10/stream_buffer.c **** 			traceSTREAM_BUFFER_CREATE_STATIC_FAILED( xReturn, xIsMessageBuffer );
 324:..\FreeRTOS10/stream_buffer.c **** 		}
 325:..\FreeRTOS10/stream_buffer.c **** 
 326:..\FreeRTOS10/stream_buffer.c **** 		return xReturn;
 327:..\FreeRTOS10/stream_buffer.c **** 	}
 328:..\FreeRTOS10/stream_buffer.c **** 
 329:..\FreeRTOS10/stream_buffer.c **** #endif /* ( configSUPPORT_STATIC_ALLOCATION == 1 ) */
 330:..\FreeRTOS10/stream_buffer.c **** /*-----------------------------------------------------------*/
 331:..\FreeRTOS10/stream_buffer.c **** 
 332:..\FreeRTOS10/stream_buffer.c **** void vStreamBufferDelete( StreamBufferHandle_t xStreamBuffer )
 333:..\FreeRTOS10/stream_buffer.c **** {
 334:..\FreeRTOS10/stream_buffer.c **** StreamBuffer_t * pxStreamBuffer = ( StreamBuffer_t * ) xStreamBuffer; /*lint !e9087 !e9079 Safe cas
 335:..\FreeRTOS10/stream_buffer.c **** 
 336:..\FreeRTOS10/stream_buffer.c **** 	configASSERT( pxStreamBuffer );
 337:..\FreeRTOS10/stream_buffer.c **** 
 338:..\FreeRTOS10/stream_buffer.c **** 	traceSTREAM_BUFFER_DELETE( xStreamBuffer );
 339:..\FreeRTOS10/stream_buffer.c **** 
 340:..\FreeRTOS10/stream_buffer.c **** 	if( ( pxStreamBuffer->ucFlags & sbFLAGS_IS_STATICALLY_ALLOCATED ) == ( uint8_t ) pdFALSE )
 341:..\FreeRTOS10/stream_buffer.c **** 	{
 342:..\FreeRTOS10/stream_buffer.c **** 		#if( configSUPPORT_DYNAMIC_ALLOCATION == 1 )
 343:..\FreeRTOS10/stream_buffer.c **** 		{
 344:..\FreeRTOS10/stream_buffer.c **** 			/* Both the structure and the buffer were allocated using a single call
 345:..\FreeRTOS10/stream_buffer.c **** 			to pvPortMalloc(), hence only one call to vPortFree() is required. */
 346:..\FreeRTOS10/stream_buffer.c **** 			vPortFree( ( void * ) pxStreamBuffer ); /*lint !e9087 Standard free() semantics require void *, 
 347:..\FreeRTOS10/stream_buffer.c **** 		}
 348:..\FreeRTOS10/stream_buffer.c **** 		#else
 349:..\FreeRTOS10/stream_buffer.c **** 		{
 350:..\FreeRTOS10/stream_buffer.c **** 			/* Should not be possible to get here, ucFlags must be corrupt.
 351:..\FreeRTOS10/stream_buffer.c **** 			Force an assert. */
 352:..\FreeRTOS10/stream_buffer.c **** 			configASSERT( xStreamBuffer == ( StreamBufferHandle_t ) ~0 );
 353:..\FreeRTOS10/stream_buffer.c **** 		}
 354:..\FreeRTOS10/stream_buffer.c **** 		#endif
 355:..\FreeRTOS10/stream_buffer.c **** 	}
 356:..\FreeRTOS10/stream_buffer.c **** 	else
 357:..\FreeRTOS10/stream_buffer.c **** 	{
 358:..\FreeRTOS10/stream_buffer.c **** 		/* The structure and buffer were not allocated dynamically and cannot be
 359:..\FreeRTOS10/stream_buffer.c **** 		freed - just scrub the structure so future use will assert. */
 360:..\FreeRTOS10/stream_buffer.c **** 		memset( pxStreamBuffer, 0x00, sizeof( StreamBuffer_t ) );
 361:..\FreeRTOS10/stream_buffer.c **** 	}
 362:..\FreeRTOS10/stream_buffer.c **** }
 363:..\FreeRTOS10/stream_buffer.c **** /*-----------------------------------------------------------*/
 364:..\FreeRTOS10/stream_buffer.c **** 
 365:..\FreeRTOS10/stream_buffer.c **** BaseType_t xStreamBufferReset( StreamBufferHandle_t xStreamBuffer )
 366:..\FreeRTOS10/stream_buffer.c **** {
 367:..\FreeRTOS10/stream_buffer.c **** StreamBuffer_t * const pxStreamBuffer = ( StreamBuffer_t * ) xStreamBuffer; /*lint !e9087 !e9079 Sa
 368:..\FreeRTOS10/stream_buffer.c **** BaseType_t xReturn = pdFAIL, xIsMessageBuffer;
 369:..\FreeRTOS10/stream_buffer.c **** 
 370:..\FreeRTOS10/stream_buffer.c **** #if( configUSE_TRACE_FACILITY == 1 )
 371:..\FreeRTOS10/stream_buffer.c **** 	UBaseType_t uxStreamBufferNumber;
 372:..\FreeRTOS10/stream_buffer.c **** #endif
 373:..\FreeRTOS10/stream_buffer.c **** 
ARM GAS  C:\Users\Xwx47\AppData\Local\Temp\ccZsRkco.s 			page 8


 374:..\FreeRTOS10/stream_buffer.c **** 	configASSERT( pxStreamBuffer );
 375:..\FreeRTOS10/stream_buffer.c **** 
 376:..\FreeRTOS10/stream_buffer.c **** 	#if( configUSE_TRACE_FACILITY == 1 )
 377:..\FreeRTOS10/stream_buffer.c **** 	{
 378:..\FreeRTOS10/stream_buffer.c **** 		/* Store the stream buffer number so it can be restored after the
 379:..\FreeRTOS10/stream_buffer.c **** 		reset. */
 380:..\FreeRTOS10/stream_buffer.c **** 		uxStreamBufferNumber = pxStreamBuffer->uxStreamBufferNumber;
 381:..\FreeRTOS10/stream_buffer.c **** 	}
 382:..\FreeRTOS10/stream_buffer.c **** 	#endif
 383:..\FreeRTOS10/stream_buffer.c **** 
 384:..\FreeRTOS10/stream_buffer.c **** 	/* Can only reset a message buffer if there are no tasks blocked on it. */
 385:..\FreeRTOS10/stream_buffer.c **** 	if( pxStreamBuffer->xTaskWaitingToReceive == NULL )
 386:..\FreeRTOS10/stream_buffer.c **** 	{
 387:..\FreeRTOS10/stream_buffer.c **** 		if( pxStreamBuffer->xTaskWaitingToSend == NULL )
 388:..\FreeRTOS10/stream_buffer.c **** 		{
 389:..\FreeRTOS10/stream_buffer.c **** 			if( ( pxStreamBuffer->ucFlags & sbFLAGS_IS_MESSAGE_BUFFER ) != ( uint8_t ) 0 )
 390:..\FreeRTOS10/stream_buffer.c **** 			{
 391:..\FreeRTOS10/stream_buffer.c **** 				xIsMessageBuffer = pdTRUE;
 392:..\FreeRTOS10/stream_buffer.c **** 			}
 393:..\FreeRTOS10/stream_buffer.c **** 			else
 394:..\FreeRTOS10/stream_buffer.c **** 			{
 395:..\FreeRTOS10/stream_buffer.c **** 				xIsMessageBuffer = pdFALSE;
 396:..\FreeRTOS10/stream_buffer.c **** 			}
 397:..\FreeRTOS10/stream_buffer.c **** 
 398:..\FreeRTOS10/stream_buffer.c **** 			prvInitialiseNewStreamBuffer( pxStreamBuffer,
 399:..\FreeRTOS10/stream_buffer.c **** 										  pxStreamBuffer->pucBuffer,
 400:..\FreeRTOS10/stream_buffer.c **** 										  pxStreamBuffer->xLength,
 401:..\FreeRTOS10/stream_buffer.c **** 										  pxStreamBuffer->xTriggerLevelBytes,
 402:..\FreeRTOS10/stream_buffer.c **** 										  xIsMessageBuffer );
 403:..\FreeRTOS10/stream_buffer.c **** 			xReturn = pdPASS;
 404:..\FreeRTOS10/stream_buffer.c **** 
 405:..\FreeRTOS10/stream_buffer.c **** 			#if( configUSE_TRACE_FACILITY == 1 )
 406:..\FreeRTOS10/stream_buffer.c **** 			{
 407:..\FreeRTOS10/stream_buffer.c **** 				pxStreamBuffer->uxStreamBufferNumber = uxStreamBufferNumber;
 408:..\FreeRTOS10/stream_buffer.c **** 			}
 409:..\FreeRTOS10/stream_buffer.c **** 			#endif
 410:..\FreeRTOS10/stream_buffer.c **** 
 411:..\FreeRTOS10/stream_buffer.c **** 			traceSTREAM_BUFFER_RESET( xStreamBuffer );
 412:..\FreeRTOS10/stream_buffer.c **** 		}
 413:..\FreeRTOS10/stream_buffer.c **** 	}
 414:..\FreeRTOS10/stream_buffer.c **** 
 415:..\FreeRTOS10/stream_buffer.c **** 	return xReturn;
 416:..\FreeRTOS10/stream_buffer.c **** }
 417:..\FreeRTOS10/stream_buffer.c **** /*-----------------------------------------------------------*/
 418:..\FreeRTOS10/stream_buffer.c **** 
 419:..\FreeRTOS10/stream_buffer.c **** BaseType_t xStreamBufferSetTriggerLevel( StreamBufferHandle_t xStreamBuffer, size_t xTriggerLevel )
 420:..\FreeRTOS10/stream_buffer.c **** {
 421:..\FreeRTOS10/stream_buffer.c **** StreamBuffer_t * const pxStreamBuffer = ( StreamBuffer_t * ) xStreamBuffer; /*lint !e9087 !e9079 Sa
 422:..\FreeRTOS10/stream_buffer.c **** BaseType_t xReturn;
 423:..\FreeRTOS10/stream_buffer.c **** 
 424:..\FreeRTOS10/stream_buffer.c **** 	configASSERT( pxStreamBuffer );
 425:..\FreeRTOS10/stream_buffer.c **** 
 426:..\FreeRTOS10/stream_buffer.c **** 	/* It is not valid for the trigger level to be 0. */
 427:..\FreeRTOS10/stream_buffer.c **** 	if( xTriggerLevel == ( size_t ) 0 )
 428:..\FreeRTOS10/stream_buffer.c **** 	{
 429:..\FreeRTOS10/stream_buffer.c **** 		xTriggerLevel = ( size_t ) 1; /*lint !e9044 Parameter modified to ensure it doesn't have a danger
 430:..\FreeRTOS10/stream_buffer.c **** 	}
ARM GAS  C:\Users\Xwx47\AppData\Local\Temp\ccZsRkco.s 			page 9


 431:..\FreeRTOS10/stream_buffer.c **** 
 432:..\FreeRTOS10/stream_buffer.c **** 	/* The trigger level is the number of bytes that must be in the stream
 433:..\FreeRTOS10/stream_buffer.c **** 	buffer before a task that is waiting for data is unblocked. */
 434:..\FreeRTOS10/stream_buffer.c **** 	if( xTriggerLevel <= pxStreamBuffer->xLength )
 435:..\FreeRTOS10/stream_buffer.c **** 	{
 436:..\FreeRTOS10/stream_buffer.c **** 		pxStreamBuffer->xTriggerLevelBytes = xTriggerLevel;
 437:..\FreeRTOS10/stream_buffer.c **** 		xReturn = pdPASS;
 438:..\FreeRTOS10/stream_buffer.c **** 	}
 439:..\FreeRTOS10/stream_buffer.c **** 	else
 440:..\FreeRTOS10/stream_buffer.c **** 	{
 441:..\FreeRTOS10/stream_buffer.c **** 		xReturn = pdFALSE;
 442:..\FreeRTOS10/stream_buffer.c **** 	}
 443:..\FreeRTOS10/stream_buffer.c **** 
 444:..\FreeRTOS10/stream_buffer.c **** 	return xReturn;
 445:..\FreeRTOS10/stream_buffer.c **** }
 446:..\FreeRTOS10/stream_buffer.c **** /*-----------------------------------------------------------*/
 447:..\FreeRTOS10/stream_buffer.c **** 
 448:..\FreeRTOS10/stream_buffer.c **** size_t xStreamBufferSpacesAvailable( StreamBufferHandle_t xStreamBuffer )
 449:..\FreeRTOS10/stream_buffer.c **** {
 450:..\FreeRTOS10/stream_buffer.c **** const StreamBuffer_t * const pxStreamBuffer = ( StreamBuffer_t * ) xStreamBuffer; /*lint !e9087 !e9
 451:..\FreeRTOS10/stream_buffer.c **** size_t xSpace;
 452:..\FreeRTOS10/stream_buffer.c **** 
 453:..\FreeRTOS10/stream_buffer.c **** 	configASSERT( pxStreamBuffer );
 454:..\FreeRTOS10/stream_buffer.c **** 
 455:..\FreeRTOS10/stream_buffer.c **** 	xSpace = pxStreamBuffer->xLength + pxStreamBuffer->xTail;
 456:..\FreeRTOS10/stream_buffer.c **** 	xSpace -= pxStreamBuffer->xHead;
 457:..\FreeRTOS10/stream_buffer.c **** 	xSpace -= ( size_t ) 1;
 458:..\FreeRTOS10/stream_buffer.c **** 
 459:..\FreeRTOS10/stream_buffer.c **** 	if( xSpace >= pxStreamBuffer->xLength )
 460:..\FreeRTOS10/stream_buffer.c **** 	{
 461:..\FreeRTOS10/stream_buffer.c **** 		xSpace -= pxStreamBuffer->xLength;
 462:..\FreeRTOS10/stream_buffer.c **** 	}
 463:..\FreeRTOS10/stream_buffer.c **** 	else
 464:..\FreeRTOS10/stream_buffer.c **** 	{
 465:..\FreeRTOS10/stream_buffer.c **** 		mtCOVERAGE_TEST_MARKER();
 466:..\FreeRTOS10/stream_buffer.c **** 	}
 467:..\FreeRTOS10/stream_buffer.c **** 
 468:..\FreeRTOS10/stream_buffer.c **** 	return xSpace;
 469:..\FreeRTOS10/stream_buffer.c **** }
 470:..\FreeRTOS10/stream_buffer.c **** /*-----------------------------------------------------------*/
 471:..\FreeRTOS10/stream_buffer.c **** 
 472:..\FreeRTOS10/stream_buffer.c **** size_t xStreamBufferBytesAvailable( StreamBufferHandle_t xStreamBuffer )
 473:..\FreeRTOS10/stream_buffer.c **** {
 474:..\FreeRTOS10/stream_buffer.c **** const StreamBuffer_t * const pxStreamBuffer = ( StreamBuffer_t * ) xStreamBuffer; /*lint !e9087 !e9
 475:..\FreeRTOS10/stream_buffer.c **** size_t xReturn;
 476:..\FreeRTOS10/stream_buffer.c **** 
 477:..\FreeRTOS10/stream_buffer.c **** 	configASSERT( pxStreamBuffer );
 478:..\FreeRTOS10/stream_buffer.c **** 
 479:..\FreeRTOS10/stream_buffer.c **** 	xReturn = prvBytesInBuffer( pxStreamBuffer );
 480:..\FreeRTOS10/stream_buffer.c **** 	return xReturn;
 481:..\FreeRTOS10/stream_buffer.c **** }
 482:..\FreeRTOS10/stream_buffer.c **** /*-----------------------------------------------------------*/
 483:..\FreeRTOS10/stream_buffer.c **** 
 484:..\FreeRTOS10/stream_buffer.c **** size_t xStreamBufferSend( StreamBufferHandle_t xStreamBuffer,
 485:..\FreeRTOS10/stream_buffer.c **** 						  const void *pvTxData,
 486:..\FreeRTOS10/stream_buffer.c **** 						  size_t xDataLengthBytes,
 487:..\FreeRTOS10/stream_buffer.c **** 						  TickType_t xTicksToWait )
ARM GAS  C:\Users\Xwx47\AppData\Local\Temp\ccZsRkco.s 			page 10


 488:..\FreeRTOS10/stream_buffer.c **** {
 489:..\FreeRTOS10/stream_buffer.c **** StreamBuffer_t * const pxStreamBuffer = ( StreamBuffer_t * ) xStreamBuffer; /*lint !e9087 !e9079 Sa
 490:..\FreeRTOS10/stream_buffer.c **** size_t xReturn, xSpace = 0;
 491:..\FreeRTOS10/stream_buffer.c **** size_t xRequiredSpace = xDataLengthBytes;
 492:..\FreeRTOS10/stream_buffer.c **** TimeOut_t xTimeOut;
 493:..\FreeRTOS10/stream_buffer.c **** 
 494:..\FreeRTOS10/stream_buffer.c **** 	configASSERT( pvTxData );
 495:..\FreeRTOS10/stream_buffer.c **** 	configASSERT( pxStreamBuffer );
 496:..\FreeRTOS10/stream_buffer.c **** 
 497:..\FreeRTOS10/stream_buffer.c **** 	/* This send function is used to write to both message buffers and stream
 498:..\FreeRTOS10/stream_buffer.c **** 	buffers.  If this is a message buffer then the space needed must be
 499:..\FreeRTOS10/stream_buffer.c **** 	increased by the amount of bytes needed to store the length of the
 500:..\FreeRTOS10/stream_buffer.c **** 	message. */
 501:..\FreeRTOS10/stream_buffer.c **** 	if( ( pxStreamBuffer->ucFlags & sbFLAGS_IS_MESSAGE_BUFFER ) != ( uint8_t ) 0 )
 502:..\FreeRTOS10/stream_buffer.c **** 	{
 503:..\FreeRTOS10/stream_buffer.c **** 		xRequiredSpace += sbBYTES_TO_STORE_MESSAGE_LENGTH;
 504:..\FreeRTOS10/stream_buffer.c **** 	}
 505:..\FreeRTOS10/stream_buffer.c **** 	else
 506:..\FreeRTOS10/stream_buffer.c **** 	{
 507:..\FreeRTOS10/stream_buffer.c **** 		mtCOVERAGE_TEST_MARKER();
 508:..\FreeRTOS10/stream_buffer.c **** 	}
 509:..\FreeRTOS10/stream_buffer.c **** 
 510:..\FreeRTOS10/stream_buffer.c **** 	if( xTicksToWait != ( TickType_t ) 0 )
 511:..\FreeRTOS10/stream_buffer.c **** 	{
 512:..\FreeRTOS10/stream_buffer.c **** 		vTaskSetTimeOutState( &xTimeOut );
 513:..\FreeRTOS10/stream_buffer.c **** 
 514:..\FreeRTOS10/stream_buffer.c **** 		do
 515:..\FreeRTOS10/stream_buffer.c **** 		{
 516:..\FreeRTOS10/stream_buffer.c **** 			/* Wait until the required number of bytes are free in the message
 517:..\FreeRTOS10/stream_buffer.c **** 			buffer. */
 518:..\FreeRTOS10/stream_buffer.c **** 			taskENTER_CRITICAL();
 519:..\FreeRTOS10/stream_buffer.c **** 			{
 520:..\FreeRTOS10/stream_buffer.c **** 				xSpace = xStreamBufferSpacesAvailable( pxStreamBuffer );
 521:..\FreeRTOS10/stream_buffer.c **** 
 522:..\FreeRTOS10/stream_buffer.c **** 				if( xSpace < xRequiredSpace )
 523:..\FreeRTOS10/stream_buffer.c **** 				{
 524:..\FreeRTOS10/stream_buffer.c **** 					/* Clear notification state as going to wait for space. */
 525:..\FreeRTOS10/stream_buffer.c **** 					( void ) xTaskNotifyStateClear( NULL );
 526:..\FreeRTOS10/stream_buffer.c **** 
 527:..\FreeRTOS10/stream_buffer.c **** 					/* Should only be one writer. */
 528:..\FreeRTOS10/stream_buffer.c **** 					configASSERT( pxStreamBuffer->xTaskWaitingToSend == NULL );
 529:..\FreeRTOS10/stream_buffer.c **** 					pxStreamBuffer->xTaskWaitingToSend = xTaskGetCurrentTaskHandle();
 530:..\FreeRTOS10/stream_buffer.c **** 				}
 531:..\FreeRTOS10/stream_buffer.c **** 				else
 532:..\FreeRTOS10/stream_buffer.c **** 				{
 533:..\FreeRTOS10/stream_buffer.c **** 					taskEXIT_CRITICAL();
 534:..\FreeRTOS10/stream_buffer.c **** 					break;
 535:..\FreeRTOS10/stream_buffer.c **** 				}
 536:..\FreeRTOS10/stream_buffer.c **** 			}
 537:..\FreeRTOS10/stream_buffer.c **** 			taskEXIT_CRITICAL();
 538:..\FreeRTOS10/stream_buffer.c **** 
 539:..\FreeRTOS10/stream_buffer.c **** 			traceBLOCKING_ON_STREAM_BUFFER_SEND( xStreamBuffer );
 540:..\FreeRTOS10/stream_buffer.c **** 			( void ) xTaskNotifyWait( ( uint32_t ) 0, UINT32_MAX, NULL, xTicksToWait );
 541:..\FreeRTOS10/stream_buffer.c **** 			pxStreamBuffer->xTaskWaitingToSend = NULL;
 542:..\FreeRTOS10/stream_buffer.c **** 
 543:..\FreeRTOS10/stream_buffer.c **** 		} while( xTaskCheckForTimeOut( &xTimeOut, &xTicksToWait ) == pdFALSE );
 544:..\FreeRTOS10/stream_buffer.c **** 	}
ARM GAS  C:\Users\Xwx47\AppData\Local\Temp\ccZsRkco.s 			page 11


 545:..\FreeRTOS10/stream_buffer.c **** 	else
 546:..\FreeRTOS10/stream_buffer.c **** 	{
 547:..\FreeRTOS10/stream_buffer.c **** 		mtCOVERAGE_TEST_MARKER();
 548:..\FreeRTOS10/stream_buffer.c **** 	}
 549:..\FreeRTOS10/stream_buffer.c **** 
 550:..\FreeRTOS10/stream_buffer.c **** 	if( xSpace == ( size_t ) 0 )
 551:..\FreeRTOS10/stream_buffer.c **** 	{
 552:..\FreeRTOS10/stream_buffer.c **** 		xSpace = xStreamBufferSpacesAvailable( pxStreamBuffer );
 553:..\FreeRTOS10/stream_buffer.c **** 	}
 554:..\FreeRTOS10/stream_buffer.c **** 	else
 555:..\FreeRTOS10/stream_buffer.c **** 	{
 556:..\FreeRTOS10/stream_buffer.c **** 		mtCOVERAGE_TEST_MARKER();
 557:..\FreeRTOS10/stream_buffer.c **** 	}
 558:..\FreeRTOS10/stream_buffer.c **** 
 559:..\FreeRTOS10/stream_buffer.c **** 	xReturn = prvWriteMessageToBuffer( pxStreamBuffer, pvTxData, xDataLengthBytes, xSpace, xRequiredSp
 560:..\FreeRTOS10/stream_buffer.c **** 
 561:..\FreeRTOS10/stream_buffer.c **** 	if( xReturn > ( size_t ) 0 )
 562:..\FreeRTOS10/stream_buffer.c **** 	{
 563:..\FreeRTOS10/stream_buffer.c **** 		traceSTREAM_BUFFER_SEND( xStreamBuffer, xReturn );
 564:..\FreeRTOS10/stream_buffer.c **** 
 565:..\FreeRTOS10/stream_buffer.c **** 		/* Was a task waiting for the data? */
 566:..\FreeRTOS10/stream_buffer.c **** 		if( prvBytesInBuffer( pxStreamBuffer ) >= pxStreamBuffer->xTriggerLevelBytes )
 567:..\FreeRTOS10/stream_buffer.c **** 		{
 568:..\FreeRTOS10/stream_buffer.c **** 			sbSEND_COMPLETED( pxStreamBuffer );
 569:..\FreeRTOS10/stream_buffer.c **** 		}
 570:..\FreeRTOS10/stream_buffer.c **** 		else
 571:..\FreeRTOS10/stream_buffer.c **** 		{
 572:..\FreeRTOS10/stream_buffer.c **** 			mtCOVERAGE_TEST_MARKER();
 573:..\FreeRTOS10/stream_buffer.c **** 		}
 574:..\FreeRTOS10/stream_buffer.c **** 	}
 575:..\FreeRTOS10/stream_buffer.c **** 	else
 576:..\FreeRTOS10/stream_buffer.c **** 	{
 577:..\FreeRTOS10/stream_buffer.c **** 		mtCOVERAGE_TEST_MARKER();
 578:..\FreeRTOS10/stream_buffer.c **** 		traceSTREAM_BUFFER_SEND_FAILED( xStreamBuffer );
 579:..\FreeRTOS10/stream_buffer.c **** 	}
 580:..\FreeRTOS10/stream_buffer.c **** 
 581:..\FreeRTOS10/stream_buffer.c **** 	return xReturn;
 582:..\FreeRTOS10/stream_buffer.c **** }
 583:..\FreeRTOS10/stream_buffer.c **** /*-----------------------------------------------------------*/
 584:..\FreeRTOS10/stream_buffer.c **** 
 585:..\FreeRTOS10/stream_buffer.c **** size_t xStreamBufferSendFromISR( StreamBufferHandle_t xStreamBuffer,
 586:..\FreeRTOS10/stream_buffer.c **** 								 const void *pvTxData,
 587:..\FreeRTOS10/stream_buffer.c **** 								 size_t xDataLengthBytes,
 588:..\FreeRTOS10/stream_buffer.c **** 								 BaseType_t * const pxHigherPriorityTaskWoken )
 589:..\FreeRTOS10/stream_buffer.c **** {
 590:..\FreeRTOS10/stream_buffer.c **** StreamBuffer_t * const pxStreamBuffer = ( StreamBuffer_t * ) xStreamBuffer; /*lint !e9087 !e9079 Sa
 591:..\FreeRTOS10/stream_buffer.c **** size_t xReturn, xSpace;
 592:..\FreeRTOS10/stream_buffer.c **** size_t xRequiredSpace = xDataLengthBytes;
 593:..\FreeRTOS10/stream_buffer.c **** 
 594:..\FreeRTOS10/stream_buffer.c **** 	configASSERT( pvTxData );
 595:..\FreeRTOS10/stream_buffer.c **** 	configASSERT( pxStreamBuffer );
 596:..\FreeRTOS10/stream_buffer.c **** 
 597:..\FreeRTOS10/stream_buffer.c **** 	/* This send function is used to write to both message buffers and stream
 598:..\FreeRTOS10/stream_buffer.c **** 	buffers.  If this is a message buffer then the space needed must be
 599:..\FreeRTOS10/stream_buffer.c **** 	increased by the amount of bytes needed to store the length of the
 600:..\FreeRTOS10/stream_buffer.c **** 	message. */
 601:..\FreeRTOS10/stream_buffer.c **** 	if( ( pxStreamBuffer->ucFlags & sbFLAGS_IS_MESSAGE_BUFFER ) != ( uint8_t ) 0 )
ARM GAS  C:\Users\Xwx47\AppData\Local\Temp\ccZsRkco.s 			page 12


 602:..\FreeRTOS10/stream_buffer.c **** 	{
 603:..\FreeRTOS10/stream_buffer.c **** 		xRequiredSpace += sbBYTES_TO_STORE_MESSAGE_LENGTH;
 604:..\FreeRTOS10/stream_buffer.c **** 	}
 605:..\FreeRTOS10/stream_buffer.c **** 	else
 606:..\FreeRTOS10/stream_buffer.c **** 	{
 607:..\FreeRTOS10/stream_buffer.c **** 		mtCOVERAGE_TEST_MARKER();
 608:..\FreeRTOS10/stream_buffer.c **** 	}
 609:..\FreeRTOS10/stream_buffer.c **** 
 610:..\FreeRTOS10/stream_buffer.c **** 	xSpace = xStreamBufferSpacesAvailable( pxStreamBuffer );
 611:..\FreeRTOS10/stream_buffer.c **** 	xReturn = prvWriteMessageToBuffer( pxStreamBuffer, pvTxData, xDataLengthBytes, xSpace, xRequiredSp
 612:..\FreeRTOS10/stream_buffer.c **** 
 613:..\FreeRTOS10/stream_buffer.c **** 	if( xReturn > ( size_t ) 0 )
 614:..\FreeRTOS10/stream_buffer.c **** 	{
 615:..\FreeRTOS10/stream_buffer.c **** 		/* Was a task waiting for the data? */
 616:..\FreeRTOS10/stream_buffer.c **** 		if( prvBytesInBuffer( pxStreamBuffer ) >= pxStreamBuffer->xTriggerLevelBytes )
 617:..\FreeRTOS10/stream_buffer.c **** 		{
 618:..\FreeRTOS10/stream_buffer.c **** 			sbSEND_COMPLETE_FROM_ISR( pxStreamBuffer, pxHigherPriorityTaskWoken );
 619:..\FreeRTOS10/stream_buffer.c **** 		}
 620:..\FreeRTOS10/stream_buffer.c **** 		else
 621:..\FreeRTOS10/stream_buffer.c **** 		{
 622:..\FreeRTOS10/stream_buffer.c **** 			mtCOVERAGE_TEST_MARKER();
 623:..\FreeRTOS10/stream_buffer.c **** 		}
 624:..\FreeRTOS10/stream_buffer.c **** 	}
 625:..\FreeRTOS10/stream_buffer.c **** 	else
 626:..\FreeRTOS10/stream_buffer.c **** 	{
 627:..\FreeRTOS10/stream_buffer.c **** 		mtCOVERAGE_TEST_MARKER();
 628:..\FreeRTOS10/stream_buffer.c **** 	}
 629:..\FreeRTOS10/stream_buffer.c **** 
 630:..\FreeRTOS10/stream_buffer.c **** 	traceSTREAM_BUFFER_SEND_FROM_ISR( xStreamBuffer, xReturn );
 631:..\FreeRTOS10/stream_buffer.c **** 
 632:..\FreeRTOS10/stream_buffer.c **** 	return xReturn;
 633:..\FreeRTOS10/stream_buffer.c **** }
 634:..\FreeRTOS10/stream_buffer.c **** /*-----------------------------------------------------------*/
 635:..\FreeRTOS10/stream_buffer.c **** 
 636:..\FreeRTOS10/stream_buffer.c **** static size_t prvWriteMessageToBuffer( StreamBuffer_t * const pxStreamBuffer,
 637:..\FreeRTOS10/stream_buffer.c **** 									   const void * pvTxData,
 638:..\FreeRTOS10/stream_buffer.c **** 									   size_t xDataLengthBytes,
 639:..\FreeRTOS10/stream_buffer.c **** 									   size_t xSpace,
 640:..\FreeRTOS10/stream_buffer.c **** 									   size_t xRequiredSpace )
 641:..\FreeRTOS10/stream_buffer.c **** {
 642:..\FreeRTOS10/stream_buffer.c **** 	BaseType_t xShouldWrite;
 643:..\FreeRTOS10/stream_buffer.c **** 	size_t xReturn;
 644:..\FreeRTOS10/stream_buffer.c **** 
 645:..\FreeRTOS10/stream_buffer.c **** 	if( xSpace == ( size_t ) 0 )
 646:..\FreeRTOS10/stream_buffer.c **** 	{
 647:..\FreeRTOS10/stream_buffer.c **** 		/* Doesn't matter if this is a stream buffer or a message buffer, there
 648:..\FreeRTOS10/stream_buffer.c **** 		is no space to write. */
 649:..\FreeRTOS10/stream_buffer.c **** 		xShouldWrite = pdFALSE;
 650:..\FreeRTOS10/stream_buffer.c **** 	}
 651:..\FreeRTOS10/stream_buffer.c **** 	else if( ( pxStreamBuffer->ucFlags & sbFLAGS_IS_MESSAGE_BUFFER ) == ( uint8_t ) 0 )
 652:..\FreeRTOS10/stream_buffer.c **** 	{
 653:..\FreeRTOS10/stream_buffer.c **** 		/* This is a stream buffer, as opposed to a message buffer, so writing a
 654:..\FreeRTOS10/stream_buffer.c **** 		stream of bytes rather than discrete messages.  Write as many bytes as
 655:..\FreeRTOS10/stream_buffer.c **** 		possible. */
 656:..\FreeRTOS10/stream_buffer.c **** 		xShouldWrite = pdTRUE;
 657:..\FreeRTOS10/stream_buffer.c **** 		xDataLengthBytes = configMIN( xDataLengthBytes, xSpace ); /*lint !e9044 Function parameter modifi
 658:..\FreeRTOS10/stream_buffer.c **** 	}
ARM GAS  C:\Users\Xwx47\AppData\Local\Temp\ccZsRkco.s 			page 13


 659:..\FreeRTOS10/stream_buffer.c **** 	else if( xSpace >= xRequiredSpace )
 660:..\FreeRTOS10/stream_buffer.c **** 	{
 661:..\FreeRTOS10/stream_buffer.c **** 		/* This is a message buffer, as opposed to a stream buffer, and there
 662:..\FreeRTOS10/stream_buffer.c **** 		is enough space to write both the message length and the message itself
 663:..\FreeRTOS10/stream_buffer.c **** 		into the buffer.  Start by writing the length of the data, the data
 664:..\FreeRTOS10/stream_buffer.c **** 		itself will be written later in this function. */
 665:..\FreeRTOS10/stream_buffer.c **** 		xShouldWrite = pdTRUE;
 666:..\FreeRTOS10/stream_buffer.c **** 		( void ) prvWriteBytesToBuffer( pxStreamBuffer, ( const uint8_t * ) &( xDataLengthBytes ), sbBYTE
 667:..\FreeRTOS10/stream_buffer.c **** 	}
 668:..\FreeRTOS10/stream_buffer.c **** 	else
 669:..\FreeRTOS10/stream_buffer.c **** 	{
 670:..\FreeRTOS10/stream_buffer.c **** 		/* There is space available, but not enough space. */
 671:..\FreeRTOS10/stream_buffer.c **** 		xShouldWrite = pdFALSE;
 672:..\FreeRTOS10/stream_buffer.c **** 	}
 673:..\FreeRTOS10/stream_buffer.c **** 
 674:..\FreeRTOS10/stream_buffer.c **** 	if( xShouldWrite != pdFALSE )
 675:..\FreeRTOS10/stream_buffer.c **** 	{
 676:..\FreeRTOS10/stream_buffer.c **** 		/* Writes the data itself. */
 677:..\FreeRTOS10/stream_buffer.c **** 		xReturn = prvWriteBytesToBuffer( pxStreamBuffer, ( const uint8_t * ) pvTxData, xDataLengthBytes )
 678:..\FreeRTOS10/stream_buffer.c **** 	}
 679:..\FreeRTOS10/stream_buffer.c **** 	else
 680:..\FreeRTOS10/stream_buffer.c **** 	{
 681:..\FreeRTOS10/stream_buffer.c **** 		xReturn = 0;
 682:..\FreeRTOS10/stream_buffer.c **** 	}
 683:..\FreeRTOS10/stream_buffer.c **** 
 684:..\FreeRTOS10/stream_buffer.c **** 	return xReturn;
 685:..\FreeRTOS10/stream_buffer.c **** }
 686:..\FreeRTOS10/stream_buffer.c **** /*-----------------------------------------------------------*/
 687:..\FreeRTOS10/stream_buffer.c **** 
 688:..\FreeRTOS10/stream_buffer.c **** size_t xStreamBufferReceive( StreamBufferHandle_t xStreamBuffer,
 689:..\FreeRTOS10/stream_buffer.c **** 							 void *pvRxData,
 690:..\FreeRTOS10/stream_buffer.c **** 							 size_t xBufferLengthBytes,
 691:..\FreeRTOS10/stream_buffer.c **** 							 TickType_t xTicksToWait )
 692:..\FreeRTOS10/stream_buffer.c **** {
 693:..\FreeRTOS10/stream_buffer.c **** StreamBuffer_t * const pxStreamBuffer = ( StreamBuffer_t * ) xStreamBuffer; /*lint !e9087 !e9079 Sa
 694:..\FreeRTOS10/stream_buffer.c **** size_t xReceivedLength = 0, xBytesAvailable, xBytesToStoreMessageLength;
 695:..\FreeRTOS10/stream_buffer.c **** 
 696:..\FreeRTOS10/stream_buffer.c **** 	configASSERT( pvRxData );
 697:..\FreeRTOS10/stream_buffer.c **** 	configASSERT( pxStreamBuffer );
 698:..\FreeRTOS10/stream_buffer.c **** 
 699:..\FreeRTOS10/stream_buffer.c **** 	/* This receive function is used by both message buffers, which store
 700:..\FreeRTOS10/stream_buffer.c **** 	discrete messages, and stream buffers, which store a continuous stream of
 701:..\FreeRTOS10/stream_buffer.c **** 	bytes.  Discrete messages include an additional
 702:..\FreeRTOS10/stream_buffer.c **** 	sbBYTES_TO_STORE_MESSAGE_LENGTH bytes that hold the length of the
 703:..\FreeRTOS10/stream_buffer.c **** 	message. */
 704:..\FreeRTOS10/stream_buffer.c **** 	if( ( pxStreamBuffer->ucFlags & sbFLAGS_IS_MESSAGE_BUFFER ) != ( uint8_t ) 0 )
 705:..\FreeRTOS10/stream_buffer.c **** 	{
 706:..\FreeRTOS10/stream_buffer.c **** 		xBytesToStoreMessageLength = sbBYTES_TO_STORE_MESSAGE_LENGTH;
 707:..\FreeRTOS10/stream_buffer.c **** 	}
 708:..\FreeRTOS10/stream_buffer.c **** 	else
 709:..\FreeRTOS10/stream_buffer.c **** 	{
 710:..\FreeRTOS10/stream_buffer.c **** 		xBytesToStoreMessageLength = 0;
 711:..\FreeRTOS10/stream_buffer.c **** 	}
 712:..\FreeRTOS10/stream_buffer.c **** 
 713:..\FreeRTOS10/stream_buffer.c **** 	if( xTicksToWait != ( TickType_t ) 0 )
 714:..\FreeRTOS10/stream_buffer.c **** 	{
 715:..\FreeRTOS10/stream_buffer.c **** 		/* Checking if there is data and clearing the notification state must be
ARM GAS  C:\Users\Xwx47\AppData\Local\Temp\ccZsRkco.s 			page 14


 716:..\FreeRTOS10/stream_buffer.c **** 		performed atomically. */
 717:..\FreeRTOS10/stream_buffer.c **** 		taskENTER_CRITICAL();
 718:..\FreeRTOS10/stream_buffer.c **** 		{
 719:..\FreeRTOS10/stream_buffer.c **** 			xBytesAvailable = prvBytesInBuffer( pxStreamBuffer );
 720:..\FreeRTOS10/stream_buffer.c **** 
 721:..\FreeRTOS10/stream_buffer.c **** 			/* If this function was invoked by a message buffer read then
 722:..\FreeRTOS10/stream_buffer.c **** 			xBytesToStoreMessageLength holds the number of bytes used to hold
 723:..\FreeRTOS10/stream_buffer.c **** 			the length of the next discrete message.  If this function was
 724:..\FreeRTOS10/stream_buffer.c **** 			invoked by a stream buffer read then xBytesToStoreMessageLength will
 725:..\FreeRTOS10/stream_buffer.c **** 			be 0. */
 726:..\FreeRTOS10/stream_buffer.c **** 			if( xBytesAvailable <= xBytesToStoreMessageLength )
 727:..\FreeRTOS10/stream_buffer.c **** 			{
 728:..\FreeRTOS10/stream_buffer.c **** 				/* Clear notification state as going to wait for data. */
 729:..\FreeRTOS10/stream_buffer.c **** 				( void ) xTaskNotifyStateClear( NULL );
 730:..\FreeRTOS10/stream_buffer.c **** 
 731:..\FreeRTOS10/stream_buffer.c **** 				/* Should only be one reader. */
 732:..\FreeRTOS10/stream_buffer.c **** 				configASSERT( pxStreamBuffer->xTaskWaitingToReceive == NULL );
 733:..\FreeRTOS10/stream_buffer.c **** 				pxStreamBuffer->xTaskWaitingToReceive = xTaskGetCurrentTaskHandle();
 734:..\FreeRTOS10/stream_buffer.c **** 			}
 735:..\FreeRTOS10/stream_buffer.c **** 			else
 736:..\FreeRTOS10/stream_buffer.c **** 			{
 737:..\FreeRTOS10/stream_buffer.c **** 				mtCOVERAGE_TEST_MARKER();
 738:..\FreeRTOS10/stream_buffer.c **** 			}
 739:..\FreeRTOS10/stream_buffer.c **** 		}
 740:..\FreeRTOS10/stream_buffer.c **** 		taskEXIT_CRITICAL();
 741:..\FreeRTOS10/stream_buffer.c **** 
 742:..\FreeRTOS10/stream_buffer.c **** 		if( xBytesAvailable <= xBytesToStoreMessageLength )
 743:..\FreeRTOS10/stream_buffer.c **** 		{
 744:..\FreeRTOS10/stream_buffer.c **** 			/* Wait for data to be available. */
 745:..\FreeRTOS10/stream_buffer.c **** 			traceBLOCKING_ON_STREAM_BUFFER_RECEIVE( xStreamBuffer );
 746:..\FreeRTOS10/stream_buffer.c **** 			( void ) xTaskNotifyWait( ( uint32_t ) 0, UINT32_MAX, NULL, xTicksToWait );
 747:..\FreeRTOS10/stream_buffer.c **** 			pxStreamBuffer->xTaskWaitingToReceive = NULL;
 748:..\FreeRTOS10/stream_buffer.c **** 
 749:..\FreeRTOS10/stream_buffer.c **** 			/* Recheck the data available after blocking. */
 750:..\FreeRTOS10/stream_buffer.c **** 			xBytesAvailable = prvBytesInBuffer( pxStreamBuffer );
 751:..\FreeRTOS10/stream_buffer.c **** 		}
 752:..\FreeRTOS10/stream_buffer.c **** 		else
 753:..\FreeRTOS10/stream_buffer.c **** 		{
 754:..\FreeRTOS10/stream_buffer.c **** 			mtCOVERAGE_TEST_MARKER();
 755:..\FreeRTOS10/stream_buffer.c **** 		}
 756:..\FreeRTOS10/stream_buffer.c **** 	}
 757:..\FreeRTOS10/stream_buffer.c **** 	else
 758:..\FreeRTOS10/stream_buffer.c **** 	{
 759:..\FreeRTOS10/stream_buffer.c **** 		xBytesAvailable = prvBytesInBuffer( pxStreamBuffer );
 760:..\FreeRTOS10/stream_buffer.c **** 	}
 761:..\FreeRTOS10/stream_buffer.c **** 
 762:..\FreeRTOS10/stream_buffer.c **** 	/* Whether receiving a discrete message (where xBytesToStoreMessageLength
 763:..\FreeRTOS10/stream_buffer.c **** 	holds the number of bytes used to store the message length) or a stream of
 764:..\FreeRTOS10/stream_buffer.c **** 	bytes (where xBytesToStoreMessageLength is zero), the number of bytes
 765:..\FreeRTOS10/stream_buffer.c **** 	available must be greater than xBytesToStoreMessageLength to be able to
 766:..\FreeRTOS10/stream_buffer.c **** 	read bytes from the buffer. */
 767:..\FreeRTOS10/stream_buffer.c **** 	if( xBytesAvailable > xBytesToStoreMessageLength )
 768:..\FreeRTOS10/stream_buffer.c **** 	{
 769:..\FreeRTOS10/stream_buffer.c **** 		xReceivedLength = prvReadMessageFromBuffer( pxStreamBuffer, pvRxData, xBufferLengthBytes, xBytesA
 770:..\FreeRTOS10/stream_buffer.c **** 
 771:..\FreeRTOS10/stream_buffer.c **** 		/* Was a task waiting for space in the buffer? */
 772:..\FreeRTOS10/stream_buffer.c **** 		if( xReceivedLength != ( size_t ) 0 )
ARM GAS  C:\Users\Xwx47\AppData\Local\Temp\ccZsRkco.s 			page 15


 773:..\FreeRTOS10/stream_buffer.c **** 		{
 774:..\FreeRTOS10/stream_buffer.c **** 			traceSTREAM_BUFFER_RECEIVE( xStreamBuffer, xReceivedLength );
 775:..\FreeRTOS10/stream_buffer.c **** 			sbRECEIVE_COMPLETED( pxStreamBuffer );
 776:..\FreeRTOS10/stream_buffer.c **** 		}
 777:..\FreeRTOS10/stream_buffer.c **** 		else
 778:..\FreeRTOS10/stream_buffer.c **** 		{
 779:..\FreeRTOS10/stream_buffer.c **** 			mtCOVERAGE_TEST_MARKER();
 780:..\FreeRTOS10/stream_buffer.c **** 		}
 781:..\FreeRTOS10/stream_buffer.c **** 	}
 782:..\FreeRTOS10/stream_buffer.c **** 	else
 783:..\FreeRTOS10/stream_buffer.c **** 	{
 784:..\FreeRTOS10/stream_buffer.c **** 		traceSTREAM_BUFFER_RECEIVE_FAILED( xStreamBuffer );
 785:..\FreeRTOS10/stream_buffer.c **** 		mtCOVERAGE_TEST_MARKER();
 786:..\FreeRTOS10/stream_buffer.c **** 	}
 787:..\FreeRTOS10/stream_buffer.c **** 
 788:..\FreeRTOS10/stream_buffer.c **** 	return xReceivedLength;
 789:..\FreeRTOS10/stream_buffer.c **** }
 790:..\FreeRTOS10/stream_buffer.c **** /*-----------------------------------------------------------*/
 791:..\FreeRTOS10/stream_buffer.c **** 
 792:..\FreeRTOS10/stream_buffer.c **** size_t xStreamBufferReceiveFromISR( StreamBufferHandle_t xStreamBuffer,
 793:..\FreeRTOS10/stream_buffer.c **** 									void *pvRxData,
 794:..\FreeRTOS10/stream_buffer.c **** 									size_t xBufferLengthBytes,
 795:..\FreeRTOS10/stream_buffer.c **** 									BaseType_t * const pxHigherPriorityTaskWoken )
 796:..\FreeRTOS10/stream_buffer.c **** {
 797:..\FreeRTOS10/stream_buffer.c **** StreamBuffer_t * const pxStreamBuffer = ( StreamBuffer_t * ) xStreamBuffer; /*lint !e9087 !e9079 Sa
 798:..\FreeRTOS10/stream_buffer.c **** size_t xReceivedLength = 0, xBytesAvailable, xBytesToStoreMessageLength;
 799:..\FreeRTOS10/stream_buffer.c **** 
 800:..\FreeRTOS10/stream_buffer.c **** 	configASSERT( pvRxData );
 801:..\FreeRTOS10/stream_buffer.c **** 	configASSERT( pxStreamBuffer );
 802:..\FreeRTOS10/stream_buffer.c **** 
 803:..\FreeRTOS10/stream_buffer.c **** 	/* This receive function is used by both message buffers, which store
 804:..\FreeRTOS10/stream_buffer.c **** 	discrete messages, and stream buffers, which store a continuous stream of
 805:..\FreeRTOS10/stream_buffer.c **** 	bytes.  Discrete messages include an additional
 806:..\FreeRTOS10/stream_buffer.c **** 	sbBYTES_TO_STORE_MESSAGE_LENGTH bytes that hold the length of the
 807:..\FreeRTOS10/stream_buffer.c **** 	message. */
 808:..\FreeRTOS10/stream_buffer.c **** 	if( ( pxStreamBuffer->ucFlags & sbFLAGS_IS_MESSAGE_BUFFER ) != ( uint8_t ) 0 )
 809:..\FreeRTOS10/stream_buffer.c **** 	{
 810:..\FreeRTOS10/stream_buffer.c **** 		xBytesToStoreMessageLength = sbBYTES_TO_STORE_MESSAGE_LENGTH;
 811:..\FreeRTOS10/stream_buffer.c **** 	}
 812:..\FreeRTOS10/stream_buffer.c **** 	else
 813:..\FreeRTOS10/stream_buffer.c **** 	{
 814:..\FreeRTOS10/stream_buffer.c **** 		xBytesToStoreMessageLength = 0;
 815:..\FreeRTOS10/stream_buffer.c **** 	}
 816:..\FreeRTOS10/stream_buffer.c **** 
 817:..\FreeRTOS10/stream_buffer.c **** 	xBytesAvailable = prvBytesInBuffer( pxStreamBuffer );
 818:..\FreeRTOS10/stream_buffer.c **** 
 819:..\FreeRTOS10/stream_buffer.c **** 	/* Whether receiving a discrete message (where xBytesToStoreMessageLength
 820:..\FreeRTOS10/stream_buffer.c **** 	holds the number of bytes used to store the message length) or a stream of
 821:..\FreeRTOS10/stream_buffer.c **** 	bytes (where xBytesToStoreMessageLength is zero), the number of bytes
 822:..\FreeRTOS10/stream_buffer.c **** 	available must be greater than xBytesToStoreMessageLength to be able to
 823:..\FreeRTOS10/stream_buffer.c **** 	read bytes from the buffer. */
 824:..\FreeRTOS10/stream_buffer.c **** 	if( xBytesAvailable > xBytesToStoreMessageLength )
 825:..\FreeRTOS10/stream_buffer.c **** 	{
 826:..\FreeRTOS10/stream_buffer.c **** 		xReceivedLength = prvReadMessageFromBuffer( pxStreamBuffer, pvRxData, xBufferLengthBytes, xBytesA
 827:..\FreeRTOS10/stream_buffer.c **** 
 828:..\FreeRTOS10/stream_buffer.c **** 		/* Was a task waiting for space in the buffer? */
 829:..\FreeRTOS10/stream_buffer.c **** 		if( xReceivedLength != ( size_t ) 0 )
ARM GAS  C:\Users\Xwx47\AppData\Local\Temp\ccZsRkco.s 			page 16


 830:..\FreeRTOS10/stream_buffer.c **** 		{
 831:..\FreeRTOS10/stream_buffer.c **** 			sbRECEIVE_COMPLETED_FROM_ISR( pxStreamBuffer, pxHigherPriorityTaskWoken );
 832:..\FreeRTOS10/stream_buffer.c **** 		}
 833:..\FreeRTOS10/stream_buffer.c **** 		else
 834:..\FreeRTOS10/stream_buffer.c **** 		{
 835:..\FreeRTOS10/stream_buffer.c **** 			mtCOVERAGE_TEST_MARKER();
 836:..\FreeRTOS10/stream_buffer.c **** 		}
 837:..\FreeRTOS10/stream_buffer.c **** 	}
 838:..\FreeRTOS10/stream_buffer.c **** 	else
 839:..\FreeRTOS10/stream_buffer.c **** 	{
 840:..\FreeRTOS10/stream_buffer.c **** 		mtCOVERAGE_TEST_MARKER();
 841:..\FreeRTOS10/stream_buffer.c **** 	}
 842:..\FreeRTOS10/stream_buffer.c **** 
 843:..\FreeRTOS10/stream_buffer.c **** 	traceSTREAM_BUFFER_RECEIVE_FROM_ISR( xStreamBuffer, xReceivedLength );
 844:..\FreeRTOS10/stream_buffer.c **** 
 845:..\FreeRTOS10/stream_buffer.c **** 	return xReceivedLength;
 846:..\FreeRTOS10/stream_buffer.c **** }
 847:..\FreeRTOS10/stream_buffer.c **** /*-----------------------------------------------------------*/
 848:..\FreeRTOS10/stream_buffer.c **** 
 849:..\FreeRTOS10/stream_buffer.c **** static size_t prvReadMessageFromBuffer( StreamBuffer_t *pxStreamBuffer,
 850:..\FreeRTOS10/stream_buffer.c **** 										void *pvRxData,
 851:..\FreeRTOS10/stream_buffer.c **** 										size_t xBufferLengthBytes,
 852:..\FreeRTOS10/stream_buffer.c **** 										size_t xBytesAvailable,
 853:..\FreeRTOS10/stream_buffer.c **** 										size_t xBytesToStoreMessageLength )
 854:..\FreeRTOS10/stream_buffer.c **** {
 855:..\FreeRTOS10/stream_buffer.c **** size_t xOriginalTail, xReceivedLength, xNextMessageLength;
 856:..\FreeRTOS10/stream_buffer.c **** 
 857:..\FreeRTOS10/stream_buffer.c **** 	if( xBytesToStoreMessageLength != ( size_t ) 0 )
 858:..\FreeRTOS10/stream_buffer.c **** 	{
 859:..\FreeRTOS10/stream_buffer.c **** 		/* A discrete message is being received.  First receive the length
 860:..\FreeRTOS10/stream_buffer.c **** 		of the message.  A copy of the tail is stored so the buffer can be
 861:..\FreeRTOS10/stream_buffer.c **** 		returned to its prior state if the length of the message is too
 862:..\FreeRTOS10/stream_buffer.c **** 		large for the provided buffer. */
 863:..\FreeRTOS10/stream_buffer.c **** 		xOriginalTail = pxStreamBuffer->xTail;
 864:..\FreeRTOS10/stream_buffer.c **** 		( void ) prvReadBytesFromBuffer( pxStreamBuffer, ( uint8_t * ) &xNextMessageLength, xBytesToStore
 865:..\FreeRTOS10/stream_buffer.c **** 
 866:..\FreeRTOS10/stream_buffer.c **** 		/* Reduce the number of bytes available by the number of bytes just
 867:..\FreeRTOS10/stream_buffer.c **** 		read out. */
 868:..\FreeRTOS10/stream_buffer.c **** 		xBytesAvailable -= xBytesToStoreMessageLength;
 869:..\FreeRTOS10/stream_buffer.c **** 
 870:..\FreeRTOS10/stream_buffer.c **** 		/* Check there is enough space in the buffer provided by the
 871:..\FreeRTOS10/stream_buffer.c **** 		user. */
 872:..\FreeRTOS10/stream_buffer.c **** 		if( xNextMessageLength > xBufferLengthBytes )
 873:..\FreeRTOS10/stream_buffer.c **** 		{
 874:..\FreeRTOS10/stream_buffer.c **** 			/* The user has provided insufficient space to read the message
 875:..\FreeRTOS10/stream_buffer.c **** 			so return the buffer to its previous state (so the length of
 876:..\FreeRTOS10/stream_buffer.c **** 			the message is in the buffer again). */
 877:..\FreeRTOS10/stream_buffer.c **** 			pxStreamBuffer->xTail = xOriginalTail;
 878:..\FreeRTOS10/stream_buffer.c **** 			xNextMessageLength = 0;
 879:..\FreeRTOS10/stream_buffer.c **** 		}
 880:..\FreeRTOS10/stream_buffer.c **** 		else
 881:..\FreeRTOS10/stream_buffer.c **** 		{
 882:..\FreeRTOS10/stream_buffer.c **** 			mtCOVERAGE_TEST_MARKER();
 883:..\FreeRTOS10/stream_buffer.c **** 		}
 884:..\FreeRTOS10/stream_buffer.c **** 	}
 885:..\FreeRTOS10/stream_buffer.c **** 	else
 886:..\FreeRTOS10/stream_buffer.c **** 	{
ARM GAS  C:\Users\Xwx47\AppData\Local\Temp\ccZsRkco.s 			page 17


 887:..\FreeRTOS10/stream_buffer.c **** 		/* A stream of bytes is being received (as opposed to a discrete
 888:..\FreeRTOS10/stream_buffer.c **** 		message), so read as many bytes as possible. */
 889:..\FreeRTOS10/stream_buffer.c **** 		xNextMessageLength = xBufferLengthBytes;
 890:..\FreeRTOS10/stream_buffer.c **** 	}
 891:..\FreeRTOS10/stream_buffer.c **** 
 892:..\FreeRTOS10/stream_buffer.c **** 	/* Read the actual data. */
 893:..\FreeRTOS10/stream_buffer.c **** 	xReceivedLength = prvReadBytesFromBuffer( pxStreamBuffer, ( uint8_t * ) pvRxData, xNextMessageLeng
 894:..\FreeRTOS10/stream_buffer.c **** 
 895:..\FreeRTOS10/stream_buffer.c **** 	return xReceivedLength;
 896:..\FreeRTOS10/stream_buffer.c **** }
 897:..\FreeRTOS10/stream_buffer.c **** /*-----------------------------------------------------------*/
 898:..\FreeRTOS10/stream_buffer.c **** 
 899:..\FreeRTOS10/stream_buffer.c **** BaseType_t xStreamBufferIsEmpty( StreamBufferHandle_t xStreamBuffer )
 900:..\FreeRTOS10/stream_buffer.c **** {
 901:..\FreeRTOS10/stream_buffer.c **** const StreamBuffer_t * const pxStreamBuffer = ( StreamBuffer_t * ) xStreamBuffer; /*lint !e9087 !e9
 902:..\FreeRTOS10/stream_buffer.c **** BaseType_t xReturn;
 903:..\FreeRTOS10/stream_buffer.c **** size_t xTail;
 904:..\FreeRTOS10/stream_buffer.c **** 
 905:..\FreeRTOS10/stream_buffer.c **** 	configASSERT( pxStreamBuffer );
 906:..\FreeRTOS10/stream_buffer.c **** 
 907:..\FreeRTOS10/stream_buffer.c **** 	/* True if no bytes are available. */
 908:..\FreeRTOS10/stream_buffer.c **** 	xTail = pxStreamBuffer->xTail;
 909:..\FreeRTOS10/stream_buffer.c **** 	if( pxStreamBuffer->xHead == xTail )
 910:..\FreeRTOS10/stream_buffer.c **** 	{
 911:..\FreeRTOS10/stream_buffer.c **** 		xReturn = pdTRUE;
 912:..\FreeRTOS10/stream_buffer.c **** 	}
 913:..\FreeRTOS10/stream_buffer.c **** 	else
 914:..\FreeRTOS10/stream_buffer.c **** 	{
 915:..\FreeRTOS10/stream_buffer.c **** 		xReturn = pdFALSE;
 916:..\FreeRTOS10/stream_buffer.c **** 	}
 917:..\FreeRTOS10/stream_buffer.c **** 
 918:..\FreeRTOS10/stream_buffer.c **** 	return xReturn;
 919:..\FreeRTOS10/stream_buffer.c **** }
 920:..\FreeRTOS10/stream_buffer.c **** /*-----------------------------------------------------------*/
 921:..\FreeRTOS10/stream_buffer.c **** 
 922:..\FreeRTOS10/stream_buffer.c **** BaseType_t xStreamBufferIsFull( StreamBufferHandle_t xStreamBuffer )
 923:..\FreeRTOS10/stream_buffer.c **** {
 924:..\FreeRTOS10/stream_buffer.c **** BaseType_t xReturn;
 925:..\FreeRTOS10/stream_buffer.c **** size_t xBytesToStoreMessageLength;
 926:..\FreeRTOS10/stream_buffer.c **** const StreamBuffer_t * const pxStreamBuffer = ( StreamBuffer_t * ) xStreamBuffer; /*lint !e9087 !e9
 927:..\FreeRTOS10/stream_buffer.c **** 
 928:..\FreeRTOS10/stream_buffer.c **** 	configASSERT( pxStreamBuffer );
 929:..\FreeRTOS10/stream_buffer.c **** 
 930:..\FreeRTOS10/stream_buffer.c **** 	/* This generic version of the receive function is used by both message
 931:..\FreeRTOS10/stream_buffer.c **** 	buffers, which store discrete messages, and stream buffers, which store a
 932:..\FreeRTOS10/stream_buffer.c **** 	continuous stream of bytes.  Discrete messages include an additional
 933:..\FreeRTOS10/stream_buffer.c **** 	sbBYTES_TO_STORE_MESSAGE_LENGTH bytes that hold the length of the message. */
 934:..\FreeRTOS10/stream_buffer.c **** 	if( ( pxStreamBuffer->ucFlags & sbFLAGS_IS_MESSAGE_BUFFER ) != ( uint8_t ) 0 )
 935:..\FreeRTOS10/stream_buffer.c **** 	{
 936:..\FreeRTOS10/stream_buffer.c **** 		xBytesToStoreMessageLength = sbBYTES_TO_STORE_MESSAGE_LENGTH;
 937:..\FreeRTOS10/stream_buffer.c **** 	}
 938:..\FreeRTOS10/stream_buffer.c **** 	else
 939:..\FreeRTOS10/stream_buffer.c **** 	{
 940:..\FreeRTOS10/stream_buffer.c **** 		xBytesToStoreMessageLength = 0;
 941:..\FreeRTOS10/stream_buffer.c **** 	}
 942:..\FreeRTOS10/stream_buffer.c **** 
 943:..\FreeRTOS10/stream_buffer.c **** 	/* True if the available space equals zero. */
ARM GAS  C:\Users\Xwx47\AppData\Local\Temp\ccZsRkco.s 			page 18


 944:..\FreeRTOS10/stream_buffer.c **** 	if( xStreamBufferSpacesAvailable( xStreamBuffer ) <= xBytesToStoreMessageLength )
 945:..\FreeRTOS10/stream_buffer.c **** 	{
 946:..\FreeRTOS10/stream_buffer.c **** 		xReturn = pdTRUE;
 947:..\FreeRTOS10/stream_buffer.c **** 	}
 948:..\FreeRTOS10/stream_buffer.c **** 	else
 949:..\FreeRTOS10/stream_buffer.c **** 	{
 950:..\FreeRTOS10/stream_buffer.c **** 		xReturn = pdFALSE;
 951:..\FreeRTOS10/stream_buffer.c **** 	}
 952:..\FreeRTOS10/stream_buffer.c **** 
 953:..\FreeRTOS10/stream_buffer.c **** 	return xReturn;
 954:..\FreeRTOS10/stream_buffer.c **** }
 955:..\FreeRTOS10/stream_buffer.c **** /*-----------------------------------------------------------*/
 956:..\FreeRTOS10/stream_buffer.c **** 
 957:..\FreeRTOS10/stream_buffer.c **** BaseType_t xStreamBufferSendCompletedFromISR( StreamBufferHandle_t xStreamBuffer, BaseType_t *pxHig
 958:..\FreeRTOS10/stream_buffer.c **** {
 959:..\FreeRTOS10/stream_buffer.c **** StreamBuffer_t * const pxStreamBuffer = ( StreamBuffer_t * ) xStreamBuffer; /*lint !e9087 !e9079 Sa
 960:..\FreeRTOS10/stream_buffer.c **** BaseType_t xReturn;
 961:..\FreeRTOS10/stream_buffer.c **** UBaseType_t uxSavedInterruptStatus;
 962:..\FreeRTOS10/stream_buffer.c **** 
 963:..\FreeRTOS10/stream_buffer.c **** 	configASSERT( pxStreamBuffer );
 964:..\FreeRTOS10/stream_buffer.c **** 
 965:..\FreeRTOS10/stream_buffer.c **** 	uxSavedInterruptStatus = ( UBaseType_t ) portSET_INTERRUPT_MASK_FROM_ISR();
 966:..\FreeRTOS10/stream_buffer.c **** 	{
 967:..\FreeRTOS10/stream_buffer.c **** 		if( ( pxStreamBuffer )->xTaskWaitingToReceive != NULL )
 968:..\FreeRTOS10/stream_buffer.c **** 		{
 969:..\FreeRTOS10/stream_buffer.c **** 			( void ) xTaskNotifyFromISR( ( pxStreamBuffer )->xTaskWaitingToReceive,
 970:..\FreeRTOS10/stream_buffer.c **** 										 ( uint32_t ) 0,
 971:..\FreeRTOS10/stream_buffer.c **** 										 eNoAction,
 972:..\FreeRTOS10/stream_buffer.c **** 										 pxHigherPriorityTaskWoken );
 973:..\FreeRTOS10/stream_buffer.c **** 			( pxStreamBuffer )->xTaskWaitingToReceive = NULL;
 974:..\FreeRTOS10/stream_buffer.c **** 			xReturn = pdTRUE;
 975:..\FreeRTOS10/stream_buffer.c **** 		}
 976:..\FreeRTOS10/stream_buffer.c **** 		else
 977:..\FreeRTOS10/stream_buffer.c **** 		{
 978:..\FreeRTOS10/stream_buffer.c **** 			xReturn = pdFALSE;
 979:..\FreeRTOS10/stream_buffer.c **** 		}
 980:..\FreeRTOS10/stream_buffer.c **** 	}
 981:..\FreeRTOS10/stream_buffer.c **** 	portCLEAR_INTERRUPT_MASK_FROM_ISR( uxSavedInterruptStatus );
 982:..\FreeRTOS10/stream_buffer.c **** 
 983:..\FreeRTOS10/stream_buffer.c **** 	return xReturn;
 984:..\FreeRTOS10/stream_buffer.c **** }
 985:..\FreeRTOS10/stream_buffer.c **** /*-----------------------------------------------------------*/
 986:..\FreeRTOS10/stream_buffer.c **** 
 987:..\FreeRTOS10/stream_buffer.c **** BaseType_t xStreamBufferReceiveCompletedFromISR( StreamBufferHandle_t xStreamBuffer, BaseType_t *px
 988:..\FreeRTOS10/stream_buffer.c **** {
 989:..\FreeRTOS10/stream_buffer.c **** StreamBuffer_t * const pxStreamBuffer = ( StreamBuffer_t * ) xStreamBuffer; /*lint !e9087 !e9079 Sa
 990:..\FreeRTOS10/stream_buffer.c **** BaseType_t xReturn;
 991:..\FreeRTOS10/stream_buffer.c **** UBaseType_t uxSavedInterruptStatus;
 992:..\FreeRTOS10/stream_buffer.c **** 
 993:..\FreeRTOS10/stream_buffer.c **** 	configASSERT( pxStreamBuffer );
 994:..\FreeRTOS10/stream_buffer.c **** 
 995:..\FreeRTOS10/stream_buffer.c **** 	uxSavedInterruptStatus = ( UBaseType_t ) portSET_INTERRUPT_MASK_FROM_ISR();
 996:..\FreeRTOS10/stream_buffer.c **** 	{
 997:..\FreeRTOS10/stream_buffer.c **** 		if( ( pxStreamBuffer )->xTaskWaitingToSend != NULL )
 998:..\FreeRTOS10/stream_buffer.c **** 		{
 999:..\FreeRTOS10/stream_buffer.c **** 			( void ) xTaskNotifyFromISR( ( pxStreamBuffer )->xTaskWaitingToSend,
1000:..\FreeRTOS10/stream_buffer.c **** 										 ( uint32_t ) 0,
ARM GAS  C:\Users\Xwx47\AppData\Local\Temp\ccZsRkco.s 			page 19


1001:..\FreeRTOS10/stream_buffer.c **** 										 eNoAction,
1002:..\FreeRTOS10/stream_buffer.c **** 										 pxHigherPriorityTaskWoken );
1003:..\FreeRTOS10/stream_buffer.c **** 			( pxStreamBuffer )->xTaskWaitingToSend = NULL;
1004:..\FreeRTOS10/stream_buffer.c **** 			xReturn = pdTRUE;
1005:..\FreeRTOS10/stream_buffer.c **** 		}
1006:..\FreeRTOS10/stream_buffer.c **** 		else
1007:..\FreeRTOS10/stream_buffer.c **** 		{
1008:..\FreeRTOS10/stream_buffer.c **** 			xReturn = pdFALSE;
1009:..\FreeRTOS10/stream_buffer.c **** 		}
1010:..\FreeRTOS10/stream_buffer.c **** 	}
1011:..\FreeRTOS10/stream_buffer.c **** 	portCLEAR_INTERRUPT_MASK_FROM_ISR( uxSavedInterruptStatus );
1012:..\FreeRTOS10/stream_buffer.c **** 
1013:..\FreeRTOS10/stream_buffer.c **** 	return xReturn;
1014:..\FreeRTOS10/stream_buffer.c **** }
1015:..\FreeRTOS10/stream_buffer.c **** /*-----------------------------------------------------------*/
1016:..\FreeRTOS10/stream_buffer.c **** 
1017:..\FreeRTOS10/stream_buffer.c **** static size_t prvWriteBytesToBuffer( StreamBuffer_t * const pxStreamBuffer, const uint8_t *pucData,
1018:..\FreeRTOS10/stream_buffer.c **** {
1019:..\FreeRTOS10/stream_buffer.c **** size_t xNextHead, xFirstLength;
1020:..\FreeRTOS10/stream_buffer.c **** 
1021:..\FreeRTOS10/stream_buffer.c **** 	configASSERT( xCount > ( size_t ) 0 );
1022:..\FreeRTOS10/stream_buffer.c **** 
1023:..\FreeRTOS10/stream_buffer.c **** 	xNextHead = pxStreamBuffer->xHead;
1024:..\FreeRTOS10/stream_buffer.c **** 
1025:..\FreeRTOS10/stream_buffer.c **** 	/* Calculate the number of bytes that can be added in the first write -
1026:..\FreeRTOS10/stream_buffer.c **** 	which may be less than the total number of bytes that need to be added if
1027:..\FreeRTOS10/stream_buffer.c **** 	the buffer will wrap back to the beginning. */
1028:..\FreeRTOS10/stream_buffer.c **** 	xFirstLength = configMIN( pxStreamBuffer->xLength - xNextHead, xCount );
1029:..\FreeRTOS10/stream_buffer.c **** 
1030:..\FreeRTOS10/stream_buffer.c **** 	/* Write as many bytes as can be written in the first write. */
1031:..\FreeRTOS10/stream_buffer.c **** 	configASSERT( ( xNextHead + xFirstLength ) <= pxStreamBuffer->xLength );
1032:..\FreeRTOS10/stream_buffer.c **** 	memcpy( ( void* ) ( &( pxStreamBuffer->pucBuffer[ xNextHead ] ) ), ( const void * ) pucData, xFirs
1033:..\FreeRTOS10/stream_buffer.c **** 
1034:..\FreeRTOS10/stream_buffer.c **** 	/* If the number of bytes written was less than the number that could be
1035:..\FreeRTOS10/stream_buffer.c **** 	written in the first write... */
1036:..\FreeRTOS10/stream_buffer.c **** 	if( xCount > xFirstLength )
1037:..\FreeRTOS10/stream_buffer.c **** 	{
1038:..\FreeRTOS10/stream_buffer.c **** 		/* ...then write the remaining bytes to the start of the buffer. */
1039:..\FreeRTOS10/stream_buffer.c **** 		configASSERT( ( xCount - xFirstLength ) <= pxStreamBuffer->xLength );
1040:..\FreeRTOS10/stream_buffer.c **** 		memcpy( ( void * ) pxStreamBuffer->pucBuffer, ( const void * ) &( pucData[ xFirstLength ] ), xCou
1041:..\FreeRTOS10/stream_buffer.c **** 	}
1042:..\FreeRTOS10/stream_buffer.c **** 	else
1043:..\FreeRTOS10/stream_buffer.c **** 	{
1044:..\FreeRTOS10/stream_buffer.c **** 		mtCOVERAGE_TEST_MARKER();
1045:..\FreeRTOS10/stream_buffer.c **** 	}
1046:..\FreeRTOS10/stream_buffer.c **** 
1047:..\FreeRTOS10/stream_buffer.c **** 	xNextHead += xCount;
1048:..\FreeRTOS10/stream_buffer.c **** 	if( xNextHead >= pxStreamBuffer->xLength )
1049:..\FreeRTOS10/stream_buffer.c **** 	{
1050:..\FreeRTOS10/stream_buffer.c **** 		xNextHead -= pxStreamBuffer->xLength;
1051:..\FreeRTOS10/stream_buffer.c **** 	}
1052:..\FreeRTOS10/stream_buffer.c **** 	else
1053:..\FreeRTOS10/stream_buffer.c **** 	{
1054:..\FreeRTOS10/stream_buffer.c **** 		mtCOVERAGE_TEST_MARKER();
1055:..\FreeRTOS10/stream_buffer.c **** 	}
1056:..\FreeRTOS10/stream_buffer.c **** 
1057:..\FreeRTOS10/stream_buffer.c **** 	pxStreamBuffer->xHead = xNextHead;
ARM GAS  C:\Users\Xwx47\AppData\Local\Temp\ccZsRkco.s 			page 20


1058:..\FreeRTOS10/stream_buffer.c **** 
1059:..\FreeRTOS10/stream_buffer.c **** 	return xCount;
1060:..\FreeRTOS10/stream_buffer.c **** }
1061:..\FreeRTOS10/stream_buffer.c **** /*-----------------------------------------------------------*/
1062:..\FreeRTOS10/stream_buffer.c **** 
1063:..\FreeRTOS10/stream_buffer.c **** static size_t prvReadBytesFromBuffer( StreamBuffer_t *pxStreamBuffer, uint8_t *pucData, size_t xMax
1064:..\FreeRTOS10/stream_buffer.c **** {
1065:..\FreeRTOS10/stream_buffer.c **** size_t xCount, xFirstLength, xNextTail;
1066:..\FreeRTOS10/stream_buffer.c **** 
1067:..\FreeRTOS10/stream_buffer.c **** 	/* Use the minimum of the wanted bytes and the available bytes. */
1068:..\FreeRTOS10/stream_buffer.c **** 	xCount = configMIN( xBytesAvailable, xMaxCount );
1069:..\FreeRTOS10/stream_buffer.c **** 
1070:..\FreeRTOS10/stream_buffer.c **** 	if( xCount > ( size_t ) 0 )
1071:..\FreeRTOS10/stream_buffer.c **** 	{
1072:..\FreeRTOS10/stream_buffer.c **** 		xNextTail = pxStreamBuffer->xTail;
1073:..\FreeRTOS10/stream_buffer.c **** 
1074:..\FreeRTOS10/stream_buffer.c **** 		/* Calculate the number of bytes that can be read - which may be
1075:..\FreeRTOS10/stream_buffer.c **** 		less than the number wanted if the data wraps around to the start of
1076:..\FreeRTOS10/stream_buffer.c **** 		the buffer. */
1077:..\FreeRTOS10/stream_buffer.c **** 		xFirstLength = configMIN( pxStreamBuffer->xLength - xNextTail, xCount );
1078:..\FreeRTOS10/stream_buffer.c **** 
1079:..\FreeRTOS10/stream_buffer.c **** 		/* Obtain the number of bytes it is possible to obtain in the first
1080:..\FreeRTOS10/stream_buffer.c **** 		read.  Asserts check bounds of read and write. */
1081:..\FreeRTOS10/stream_buffer.c **** 		configASSERT( xFirstLength <= xMaxCount );
1082:..\FreeRTOS10/stream_buffer.c **** 		configASSERT( ( xNextTail + xFirstLength ) <= pxStreamBuffer->xLength );
1083:..\FreeRTOS10/stream_buffer.c **** 		memcpy( ( void * ) pucData, ( const void * ) &( pxStreamBuffer->pucBuffer[ xNextTail ] ), xFirstL
1084:..\FreeRTOS10/stream_buffer.c **** 
1085:..\FreeRTOS10/stream_buffer.c **** 		/* If the total number of wanted bytes is greater than the number
1086:..\FreeRTOS10/stream_buffer.c **** 		that could be read in the first read... */
1087:..\FreeRTOS10/stream_buffer.c **** 		if( xCount > xFirstLength )
1088:..\FreeRTOS10/stream_buffer.c **** 		{
1089:..\FreeRTOS10/stream_buffer.c **** 			/*...then read the remaining bytes from the start of the buffer. */
1090:..\FreeRTOS10/stream_buffer.c **** 			configASSERT( xCount <= xMaxCount );
1091:..\FreeRTOS10/stream_buffer.c **** 			memcpy( ( void * ) &( pucData[ xFirstLength ] ), ( void * ) ( pxStreamBuffer->pucBuffer ), xCoun
1092:..\FreeRTOS10/stream_buffer.c **** 		}
1093:..\FreeRTOS10/stream_buffer.c **** 		else
1094:..\FreeRTOS10/stream_buffer.c **** 		{
1095:..\FreeRTOS10/stream_buffer.c **** 			mtCOVERAGE_TEST_MARKER();
1096:..\FreeRTOS10/stream_buffer.c **** 		}
1097:..\FreeRTOS10/stream_buffer.c **** 
1098:..\FreeRTOS10/stream_buffer.c **** 		/* Move the tail pointer to effectively remove the data read from
1099:..\FreeRTOS10/stream_buffer.c **** 		the buffer. */
1100:..\FreeRTOS10/stream_buffer.c **** 		xNextTail += xCount;
1101:..\FreeRTOS10/stream_buffer.c **** 
1102:..\FreeRTOS10/stream_buffer.c **** 		if( xNextTail >= pxStreamBuffer->xLength )
1103:..\FreeRTOS10/stream_buffer.c **** 		{
1104:..\FreeRTOS10/stream_buffer.c **** 			xNextTail -= pxStreamBuffer->xLength;
1105:..\FreeRTOS10/stream_buffer.c **** 		}
1106:..\FreeRTOS10/stream_buffer.c **** 
1107:..\FreeRTOS10/stream_buffer.c **** 		pxStreamBuffer->xTail = xNextTail;
1108:..\FreeRTOS10/stream_buffer.c **** 	}
1109:..\FreeRTOS10/stream_buffer.c **** 	else
1110:..\FreeRTOS10/stream_buffer.c **** 	{
1111:..\FreeRTOS10/stream_buffer.c **** 		mtCOVERAGE_TEST_MARKER();
1112:..\FreeRTOS10/stream_buffer.c **** 	}
1113:..\FreeRTOS10/stream_buffer.c **** 
1114:..\FreeRTOS10/stream_buffer.c **** 	return xCount;
ARM GAS  C:\Users\Xwx47\AppData\Local\Temp\ccZsRkco.s 			page 21


1115:..\FreeRTOS10/stream_buffer.c **** }
1116:..\FreeRTOS10/stream_buffer.c **** /*-----------------------------------------------------------*/
1117:..\FreeRTOS10/stream_buffer.c **** 
1118:..\FreeRTOS10/stream_buffer.c **** static size_t prvBytesInBuffer( const StreamBuffer_t * const pxStreamBuffer )
1119:..\FreeRTOS10/stream_buffer.c **** {
  27              		.loc 1 1119 0
  28              		.cfi_startproc
  29              		@ args = 0, pretend = 0, frame = 0
  30              		@ frame_needed = 0, uses_anonymous_args = 0
  31              		@ link register save eliminated.
  32              	.LVL0:
1120:..\FreeRTOS10/stream_buffer.c **** /* Returns the distance between xTail and xHead. */
1121:..\FreeRTOS10/stream_buffer.c **** size_t xCount;
1122:..\FreeRTOS10/stream_buffer.c **** 
1123:..\FreeRTOS10/stream_buffer.c **** 	xCount = pxStreamBuffer->xLength + pxStreamBuffer->xHead;
  33              		.loc 1 1123 0
  34 0000 8268     		ldr	r2, [r0, #8]
  35 0002 4368     		ldr	r3, [r0, #4]
  36 0004 D318     		adds	r3, r2, r3
  37              	.LVL1:
1124:..\FreeRTOS10/stream_buffer.c **** 	xCount -= pxStreamBuffer->xTail;
  38              		.loc 1 1124 0
  39 0006 0068     		ldr	r0, [r0]
  40              	.LVL2:
  41 0008 181A     		subs	r0, r3, r0
  42              	.LVL3:
1125:..\FreeRTOS10/stream_buffer.c **** 	if ( xCount >= pxStreamBuffer->xLength )
  43              		.loc 1 1125 0
  44 000a 8242     		cmp	r2, r0
  45 000c 00D8     		bhi	.L2
1126:..\FreeRTOS10/stream_buffer.c **** 	{
1127:..\FreeRTOS10/stream_buffer.c **** 		xCount -= pxStreamBuffer->xLength;
  46              		.loc 1 1127 0
  47 000e 801A     		subs	r0, r0, r2
  48              	.LVL4:
  49              	.L2:
1128:..\FreeRTOS10/stream_buffer.c **** 	}
1129:..\FreeRTOS10/stream_buffer.c **** 	else
1130:..\FreeRTOS10/stream_buffer.c **** 	{
1131:..\FreeRTOS10/stream_buffer.c **** 		mtCOVERAGE_TEST_MARKER();
1132:..\FreeRTOS10/stream_buffer.c **** 	}
1133:..\FreeRTOS10/stream_buffer.c **** 
1134:..\FreeRTOS10/stream_buffer.c **** 	return xCount;
1135:..\FreeRTOS10/stream_buffer.c **** }
  50              		.loc 1 1135 0
  51              		@ sp needed
  52 0010 7047     		bx	lr
  53              		.cfi_endproc
  54              	.LFE50:
  55              		.size	prvBytesInBuffer, .-prvBytesInBuffer
  56 0012 C046     		.section	.text.prvInitialiseNewStreamBuffer,"ax",%progbits
  57              		.align	2
  58              		.code	16
  59              		.thumb_func
  60              		.type	prvInitialiseNewStreamBuffer, %function
  61              	prvInitialiseNewStreamBuffer:
  62              	.LFB51:
ARM GAS  C:\Users\Xwx47\AppData\Local\Temp\ccZsRkco.s 			page 22


1136:..\FreeRTOS10/stream_buffer.c **** /*-----------------------------------------------------------*/
1137:..\FreeRTOS10/stream_buffer.c **** 
1138:..\FreeRTOS10/stream_buffer.c **** static void prvInitialiseNewStreamBuffer( StreamBuffer_t * const pxStreamBuffer,
1139:..\FreeRTOS10/stream_buffer.c **** 										  uint8_t * const pucBuffer,
1140:..\FreeRTOS10/stream_buffer.c **** 										  size_t xBufferSizeBytes,
1141:..\FreeRTOS10/stream_buffer.c **** 										  size_t xTriggerLevelBytes,
1142:..\FreeRTOS10/stream_buffer.c **** 										  BaseType_t xIsMessageBuffer )
1143:..\FreeRTOS10/stream_buffer.c **** {
  63              		.loc 1 1143 0
  64              		.cfi_startproc
  65              		@ args = 4, pretend = 0, frame = 0
  66              		@ frame_needed = 0, uses_anonymous_args = 0
  67              	.LVL5:
  68 0000 F8B5     		push	{r3, r4, r5, r6, r7, lr}
  69              		.cfi_def_cfa_offset 24
  70              		.cfi_offset 3, -24
  71              		.cfi_offset 4, -20
  72              		.cfi_offset 5, -16
  73              		.cfi_offset 6, -12
  74              		.cfi_offset 7, -8
  75              		.cfi_offset 14, -4
  76 0002 0400     		movs	r4, r0
  77 0004 0F00     		movs	r7, r1
  78 0006 1600     		movs	r6, r2
  79 0008 1D00     		movs	r5, r3
1144:..\FreeRTOS10/stream_buffer.c **** 	/* Assert here is deliberately writing to the entire buffer to ensure it can
1145:..\FreeRTOS10/stream_buffer.c **** 	be written to without generating exceptions, and is setting the buffer to a
1146:..\FreeRTOS10/stream_buffer.c **** 	known value to assist in development/debugging. */
1147:..\FreeRTOS10/stream_buffer.c **** 	#if( configASSERT_DEFINED == 1 )
1148:..\FreeRTOS10/stream_buffer.c **** 	{
1149:..\FreeRTOS10/stream_buffer.c **** 		/* The value written just has to be identifiable when looking at the
1150:..\FreeRTOS10/stream_buffer.c **** 		memory.  Don't use 0xA5 as that is the stack fill value and could
1151:..\FreeRTOS10/stream_buffer.c **** 		result in confusion as to what is actually being observed. */
1152:..\FreeRTOS10/stream_buffer.c **** 		const BaseType_t xWriteValue = 0x55;
1153:..\FreeRTOS10/stream_buffer.c **** 		configASSERT( memset( pucBuffer, ( int ) xWriteValue, xBufferSizeBytes ) == pucBuffer );
1154:..\FreeRTOS10/stream_buffer.c **** 	}
1155:..\FreeRTOS10/stream_buffer.c **** 	#endif
1156:..\FreeRTOS10/stream_buffer.c **** 
1157:..\FreeRTOS10/stream_buffer.c **** 	memset( ( void * ) pxStreamBuffer, 0x00, sizeof( StreamBuffer_t ) ); /*lint !e9087 memset() requir
  80              		.loc 1 1157 0
  81 000a 2022     		movs	r2, #32
  82              	.LVL6:
  83 000c 0021     		movs	r1, #0
  84              	.LVL7:
  85 000e FFF7FEFF 		bl	memset
  86              	.LVL8:
1158:..\FreeRTOS10/stream_buffer.c **** 	pxStreamBuffer->pucBuffer = pucBuffer;
  87              		.loc 1 1158 0
  88 0012 A761     		str	r7, [r4, #24]
1159:..\FreeRTOS10/stream_buffer.c **** 	pxStreamBuffer->xLength = xBufferSizeBytes;
  89              		.loc 1 1159 0
  90 0014 A660     		str	r6, [r4, #8]
1160:..\FreeRTOS10/stream_buffer.c **** 	pxStreamBuffer->xTriggerLevelBytes = xTriggerLevelBytes;
  91              		.loc 1 1160 0
  92 0016 E560     		str	r5, [r4, #12]
1161:..\FreeRTOS10/stream_buffer.c **** 
1162:..\FreeRTOS10/stream_buffer.c **** 	if( xIsMessageBuffer != pdFALSE )
ARM GAS  C:\Users\Xwx47\AppData\Local\Temp\ccZsRkco.s 			page 23


  93              		.loc 1 1162 0
  94 0018 069B     		ldr	r3, [sp, #24]
  95 001a 002B     		cmp	r3, #0
  96 001c 03D0     		beq	.L3
1163:..\FreeRTOS10/stream_buffer.c **** 	{
1164:..\FreeRTOS10/stream_buffer.c **** 		pxStreamBuffer->ucFlags |= sbFLAGS_IS_MESSAGE_BUFFER;
  97              		.loc 1 1164 0
  98 001e 227F     		ldrb	r2, [r4, #28]
  99 0020 0123     		movs	r3, #1
 100 0022 1343     		orrs	r3, r2
 101 0024 2377     		strb	r3, [r4, #28]
 102              	.L3:
1165:..\FreeRTOS10/stream_buffer.c **** 	}
1166:..\FreeRTOS10/stream_buffer.c **** }
 103              		.loc 1 1166 0
 104              		@ sp needed
 105              	.LVL9:
 106              	.LVL10:
 107              	.LVL11:
 108              	.LVL12:
 109 0026 F8BD     		pop	{r3, r4, r5, r6, r7, pc}
 110              		.cfi_endproc
 111              	.LFE51:
 112              		.size	prvInitialiseNewStreamBuffer, .-prvInitialiseNewStreamBuffer
 113              		.section	.text.prvWriteBytesToBuffer,"ax",%progbits
 114              		.align	2
 115              		.code	16
 116              		.thumb_func
 117              		.type	prvWriteBytesToBuffer, %function
 118              	prvWriteBytesToBuffer:
 119              	.LFB48:
1018:..\FreeRTOS10/stream_buffer.c **** size_t xNextHead, xFirstLength;
 120              		.loc 1 1018 0
 121              		.cfi_startproc
 122              		@ args = 0, pretend = 0, frame = 8
 123              		@ frame_needed = 0, uses_anonymous_args = 0
 124              	.LVL13:
 125 0000 F0B5     		push	{r4, r5, r6, r7, lr}
 126              		.cfi_def_cfa_offset 20
 127              		.cfi_offset 4, -20
 128              		.cfi_offset 5, -16
 129              		.cfi_offset 6, -12
 130              		.cfi_offset 7, -8
 131              		.cfi_offset 14, -4
 132 0002 83B0     		sub	sp, sp, #12
 133              		.cfi_def_cfa_offset 32
 134 0004 0600     		movs	r6, r0
 135 0006 0191     		str	r1, [sp, #4]
 136 0008 1700     		movs	r7, r2
1023:..\FreeRTOS10/stream_buffer.c **** 
 137              		.loc 1 1023 0
 138 000a 4468     		ldr	r4, [r0, #4]
 139              	.LVL14:
1028:..\FreeRTOS10/stream_buffer.c **** 
 140              		.loc 1 1028 0
 141 000c 8368     		ldr	r3, [r0, #8]
 142 000e 1D1B     		subs	r5, r3, r4
ARM GAS  C:\Users\Xwx47\AppData\Local\Temp\ccZsRkco.s 			page 24


 143 0010 9542     		cmp	r5, r2
 144 0012 00D9     		bls	.L6
 145 0014 1500     		movs	r5, r2
 146              	.L6:
 147              	.LVL15:
1032:..\FreeRTOS10/stream_buffer.c **** 
 148              		.loc 1 1032 0
 149 0016 B369     		ldr	r3, [r6, #24]
 150 0018 1819     		adds	r0, r3, r4
 151              	.LVL16:
 152 001a 2A00     		movs	r2, r5
 153              	.LVL17:
 154 001c 0199     		ldr	r1, [sp, #4]
 155              	.LVL18:
 156 001e FFF7FEFF 		bl	memcpy
 157              	.LVL19:
1036:..\FreeRTOS10/stream_buffer.c **** 	{
 158              		.loc 1 1036 0
 159 0022 AF42     		cmp	r7, r5
 160 0024 05D9     		bls	.L7
1040:..\FreeRTOS10/stream_buffer.c **** 	}
 161              		.loc 1 1040 0
 162 0026 7A1B     		subs	r2, r7, r5
 163 0028 019B     		ldr	r3, [sp, #4]
 164 002a 5919     		adds	r1, r3, r5
 165 002c B069     		ldr	r0, [r6, #24]
 166 002e FFF7FEFF 		bl	memcpy
 167              	.LVL20:
 168              	.L7:
1047:..\FreeRTOS10/stream_buffer.c **** 	if( xNextHead >= pxStreamBuffer->xLength )
 169              		.loc 1 1047 0
 170 0032 E319     		adds	r3, r4, r7
 171              	.LVL21:
1048:..\FreeRTOS10/stream_buffer.c **** 	{
 172              		.loc 1 1048 0
 173 0034 B268     		ldr	r2, [r6, #8]
 174 0036 9342     		cmp	r3, r2
 175 0038 00D3     		bcc	.L8
1050:..\FreeRTOS10/stream_buffer.c **** 	}
 176              		.loc 1 1050 0
 177 003a 9B1A     		subs	r3, r3, r2
 178              	.LVL22:
 179              	.L8:
1057:..\FreeRTOS10/stream_buffer.c **** 
 180              		.loc 1 1057 0
 181 003c 7360     		str	r3, [r6, #4]
1060:..\FreeRTOS10/stream_buffer.c **** /*-----------------------------------------------------------*/
 182              		.loc 1 1060 0
 183 003e 3800     		movs	r0, r7
 184 0040 03B0     		add	sp, sp, #12
 185              		@ sp needed
 186              	.LVL23:
 187              	.LVL24:
 188              	.LVL25:
 189 0042 F0BD     		pop	{r4, r5, r6, r7, pc}
 190              		.cfi_endproc
 191              	.LFE48:
ARM GAS  C:\Users\Xwx47\AppData\Local\Temp\ccZsRkco.s 			page 25


 192              		.size	prvWriteBytesToBuffer, .-prvWriteBytesToBuffer
 193              		.section	.text.prvWriteMessageToBuffer,"ax",%progbits
 194              		.align	2
 195              		.code	16
 196              		.thumb_func
 197              		.type	prvWriteMessageToBuffer, %function
 198              	prvWriteMessageToBuffer:
 199              	.LFB40:
 641:..\FreeRTOS10/stream_buffer.c **** 	BaseType_t xShouldWrite;
 200              		.loc 1 641 0
 201              		.cfi_startproc
 202              		@ args = 4, pretend = 0, frame = 8
 203              		@ frame_needed = 0, uses_anonymous_args = 0
 204              	.LVL26:
 205 0000 30B5     		push	{r4, r5, lr}
 206              		.cfi_def_cfa_offset 12
 207              		.cfi_offset 4, -12
 208              		.cfi_offset 5, -8
 209              		.cfi_offset 14, -4
 210 0002 83B0     		sub	sp, sp, #12
 211              		.cfi_def_cfa_offset 24
 212 0004 0400     		movs	r4, r0
 213 0006 0D00     		movs	r5, r1
 214 0008 0192     		str	r2, [sp, #4]
 645:..\FreeRTOS10/stream_buffer.c **** 	{
 215              		.loc 1 645 0
 216 000a 002B     		cmp	r3, #0
 217 000c 12D0     		beq	.L14
 651:..\FreeRTOS10/stream_buffer.c **** 	{
 218              		.loc 1 651 0
 219 000e 027F     		ldrb	r2, [r0, #28]
 220              	.LVL27:
 221 0010 D207     		lsls	r2, r2, #31
 222 0012 06D4     		bmi	.L11
 223              	.LVL28:
 657:..\FreeRTOS10/stream_buffer.c **** 	}
 224              		.loc 1 657 0
 225 0014 019A     		ldr	r2, [sp, #4]
 226 0016 9A42     		cmp	r2, r3
 227 0018 00D9     		bls	.L12
 228 001a 1A00     		movs	r2, r3
 229              	.L12:
 230 001c 0192     		str	r2, [sp, #4]
 231              	.LVL29:
 656:..\FreeRTOS10/stream_buffer.c **** 		xDataLengthBytes = configMIN( xDataLengthBytes, xSpace ); /*lint !e9044 Function parameter modifi
 232              		.loc 1 656 0
 233 001e 0123     		movs	r3, #1
 234              	.LVL30:
 235 0020 0BE0     		b	.L10
 236              	.LVL31:
 237              	.L11:
 659:..\FreeRTOS10/stream_buffer.c **** 	{
 238              		.loc 1 659 0
 239 0022 069A     		ldr	r2, [sp, #24]
 240 0024 9342     		cmp	r3, r2
 241 0026 07D3     		bcc	.L15
 242              	.LVL32:
ARM GAS  C:\Users\Xwx47\AppData\Local\Temp\ccZsRkco.s 			page 26


 666:..\FreeRTOS10/stream_buffer.c **** 	}
 243              		.loc 1 666 0
 244 0028 0422     		movs	r2, #4
 245 002a 01A9     		add	r1, sp, #4
 246              	.LVL33:
 247 002c FFF7FEFF 		bl	prvWriteBytesToBuffer
 248              	.LVL34:
 665:..\FreeRTOS10/stream_buffer.c **** 		( void ) prvWriteBytesToBuffer( pxStreamBuffer, ( const uint8_t * ) &( xDataLengthBytes ), sbBYTE
 249              		.loc 1 665 0
 250 0030 0123     		movs	r3, #1
 251 0032 02E0     		b	.L10
 252              	.LVL35:
 253              	.L14:
 649:..\FreeRTOS10/stream_buffer.c **** 	}
 254              		.loc 1 649 0
 255 0034 0023     		movs	r3, #0
 256              	.LVL36:
 257 0036 00E0     		b	.L10
 258              	.LVL37:
 259              	.L15:
 671:..\FreeRTOS10/stream_buffer.c **** 	}
 260              		.loc 1 671 0
 261 0038 0023     		movs	r3, #0
 262              	.LVL38:
 263              	.L10:
 674:..\FreeRTOS10/stream_buffer.c **** 	{
 264              		.loc 1 674 0
 265 003a 002B     		cmp	r3, #0
 266 003c 05D0     		beq	.L16
 677:..\FreeRTOS10/stream_buffer.c **** 	}
 267              		.loc 1 677 0
 268 003e 019A     		ldr	r2, [sp, #4]
 269 0040 2900     		movs	r1, r5
 270 0042 2000     		movs	r0, r4
 271 0044 FFF7FEFF 		bl	prvWriteBytesToBuffer
 272              	.LVL39:
 273 0048 00E0     		b	.L13
 274              	.LVL40:
 275              	.L16:
 681:..\FreeRTOS10/stream_buffer.c **** 	}
 276              		.loc 1 681 0
 277 004a 0020     		movs	r0, #0
 278              	.LVL41:
 279              	.L13:
 685:..\FreeRTOS10/stream_buffer.c **** /*-----------------------------------------------------------*/
 280              		.loc 1 685 0
 281 004c 03B0     		add	sp, sp, #12
 282              		@ sp needed
 283              	.LVL42:
 284              	.LVL43:
 285 004e 30BD     		pop	{r4, r5, pc}
 286              		.cfi_endproc
 287              	.LFE40:
 288              		.size	prvWriteMessageToBuffer, .-prvWriteMessageToBuffer
 289              		.section	.text.prvReadBytesFromBuffer,"ax",%progbits
 290              		.align	2
 291              		.code	16
ARM GAS  C:\Users\Xwx47\AppData\Local\Temp\ccZsRkco.s 			page 27


 292              		.thumb_func
 293              		.type	prvReadBytesFromBuffer, %function
 294              	prvReadBytesFromBuffer:
 295              	.LFB49:
1064:..\FreeRTOS10/stream_buffer.c **** size_t xCount, xFirstLength, xNextTail;
 296              		.loc 1 1064 0
 297              		.cfi_startproc
 298              		@ args = 0, pretend = 0, frame = 8
 299              		@ frame_needed = 0, uses_anonymous_args = 0
 300              	.LVL44:
 301 0000 F0B5     		push	{r4, r5, r6, r7, lr}
 302              		.cfi_def_cfa_offset 20
 303              		.cfi_offset 4, -20
 304              		.cfi_offset 5, -16
 305              		.cfi_offset 6, -12
 306              		.cfi_offset 7, -8
 307              		.cfi_offset 14, -4
 308 0002 83B0     		sub	sp, sp, #12
 309              		.cfi_def_cfa_offset 32
 310 0004 0600     		movs	r6, r0
 311 0006 0191     		str	r1, [sp, #4]
1068:..\FreeRTOS10/stream_buffer.c **** 
 312              		.loc 1 1068 0
 313 0008 1400     		movs	r4, r2
 314 000a 9A42     		cmp	r2, r3
 315 000c 00D9     		bls	.L18
 316 000e 1C00     		movs	r4, r3
 317              	.L18:
 318              	.LVL45:
1070:..\FreeRTOS10/stream_buffer.c **** 	{
 319              		.loc 1 1070 0
 320 0010 002C     		cmp	r4, #0
 321 0012 1AD0     		beq	.L19
1072:..\FreeRTOS10/stream_buffer.c **** 
 322              		.loc 1 1072 0
 323 0014 3568     		ldr	r5, [r6]
 324              	.LVL46:
1077:..\FreeRTOS10/stream_buffer.c **** 
 325              		.loc 1 1077 0
 326 0016 B368     		ldr	r3, [r6, #8]
 327              	.LVL47:
 328 0018 5B1B     		subs	r3, r3, r5
 329 001a 2700     		movs	r7, r4
 330 001c 9C42     		cmp	r4, r3
 331 001e 00D9     		bls	.L20
 332 0020 1F00     		movs	r7, r3
 333              	.L20:
 334              	.LVL48:
1083:..\FreeRTOS10/stream_buffer.c **** 
 335              		.loc 1 1083 0
 336 0022 B369     		ldr	r3, [r6, #24]
 337 0024 5919     		adds	r1, r3, r5
 338              	.LVL49:
 339 0026 3A00     		movs	r2, r7
 340              	.LVL50:
 341 0028 0198     		ldr	r0, [sp, #4]
 342              	.LVL51:
ARM GAS  C:\Users\Xwx47\AppData\Local\Temp\ccZsRkco.s 			page 28


 343 002a FFF7FEFF 		bl	memcpy
 344              	.LVL52:
1087:..\FreeRTOS10/stream_buffer.c **** 		{
 345              		.loc 1 1087 0
 346 002e BC42     		cmp	r4, r7
 347 0030 05D9     		bls	.L21
1091:..\FreeRTOS10/stream_buffer.c **** 		}
 348              		.loc 1 1091 0
 349 0032 019B     		ldr	r3, [sp, #4]
 350 0034 D819     		adds	r0, r3, r7
 351 0036 E21B     		subs	r2, r4, r7
 352 0038 B169     		ldr	r1, [r6, #24]
 353 003a FFF7FEFF 		bl	memcpy
 354              	.LVL53:
 355              	.L21:
1100:..\FreeRTOS10/stream_buffer.c **** 
 356              		.loc 1 1100 0
 357 003e 6519     		adds	r5, r4, r5
 358              	.LVL54:
1102:..\FreeRTOS10/stream_buffer.c **** 		{
 359              		.loc 1 1102 0
 360 0040 B368     		ldr	r3, [r6, #8]
 361 0042 9D42     		cmp	r5, r3
 362 0044 00D3     		bcc	.L22
1104:..\FreeRTOS10/stream_buffer.c **** 		}
 363              		.loc 1 1104 0
 364 0046 ED1A     		subs	r5, r5, r3
 365              	.LVL55:
 366              	.L22:
1107:..\FreeRTOS10/stream_buffer.c **** 	}
 367              		.loc 1 1107 0
 368 0048 3560     		str	r5, [r6]
 369              	.LVL56:
 370              	.L19:
1115:..\FreeRTOS10/stream_buffer.c **** /*-----------------------------------------------------------*/
 371              		.loc 1 1115 0
 372 004a 2000     		movs	r0, r4
 373 004c 03B0     		add	sp, sp, #12
 374              		@ sp needed
 375              	.LVL57:
 376              	.LVL58:
 377 004e F0BD     		pop	{r4, r5, r6, r7, pc}
 378              		.cfi_endproc
 379              	.LFE49:
 380              		.size	prvReadBytesFromBuffer, .-prvReadBytesFromBuffer
 381              		.section	.text.prvReadMessageFromBuffer,"ax",%progbits
 382              		.align	2
 383              		.code	16
 384              		.thumb_func
 385              		.type	prvReadMessageFromBuffer, %function
 386              	prvReadMessageFromBuffer:
 387              	.LFB43:
 854:..\FreeRTOS10/stream_buffer.c **** size_t xOriginalTail, xReceivedLength, xNextMessageLength;
 388              		.loc 1 854 0
 389              		.cfi_startproc
 390              		@ args = 4, pretend = 0, frame = 8
 391              		@ frame_needed = 0, uses_anonymous_args = 0
ARM GAS  C:\Users\Xwx47\AppData\Local\Temp\ccZsRkco.s 			page 29


 392              	.LVL59:
 393 0000 F0B5     		push	{r4, r5, r6, r7, lr}
 394              		.cfi_def_cfa_offset 20
 395              		.cfi_offset 4, -20
 396              		.cfi_offset 5, -16
 397              		.cfi_offset 6, -12
 398              		.cfi_offset 7, -8
 399              		.cfi_offset 14, -4
 400 0002 4746     		mov	r7, r8
 401 0004 80B4     		push	{r7}
 402              		.cfi_def_cfa_offset 24
 403              		.cfi_offset 8, -24
 404 0006 82B0     		sub	sp, sp, #8
 405              		.cfi_def_cfa_offset 32
 406 0008 0500     		movs	r5, r0
 407 000a 0E00     		movs	r6, r1
 408 000c 1700     		movs	r7, r2
 409 000e 1C00     		movs	r4, r3
 857:..\FreeRTOS10/stream_buffer.c **** 	{
 410              		.loc 1 857 0
 411 0010 089B     		ldr	r3, [sp, #32]
 412              	.LVL60:
 413 0012 002B     		cmp	r3, #0
 414 0014 10D0     		beq	.L24
 863:..\FreeRTOS10/stream_buffer.c **** 		( void ) prvReadBytesFromBuffer( pxStreamBuffer, ( uint8_t * ) &xNextMessageLength, xBytesToStore
 415              		.loc 1 863 0
 416 0016 0368     		ldr	r3, [r0]
 417 0018 9846     		mov	r8, r3
 418              	.LVL61:
 864:..\FreeRTOS10/stream_buffer.c **** 
 419              		.loc 1 864 0
 420 001a 2300     		movs	r3, r4
 421              	.LVL62:
 422 001c 089A     		ldr	r2, [sp, #32]
 423              	.LVL63:
 424 001e 01A9     		add	r1, sp, #4
 425              	.LVL64:
 426 0020 FFF7FEFF 		bl	prvReadBytesFromBuffer
 427              	.LVL65:
 868:..\FreeRTOS10/stream_buffer.c **** 
 428              		.loc 1 868 0
 429 0024 089B     		ldr	r3, [sp, #32]
 430 0026 E41A     		subs	r4, r4, r3
 431              	.LVL66:
 872:..\FreeRTOS10/stream_buffer.c **** 		{
 432              		.loc 1 872 0
 433 0028 019B     		ldr	r3, [sp, #4]
 434 002a BB42     		cmp	r3, r7
 435 002c 05D9     		bls	.L25
 877:..\FreeRTOS10/stream_buffer.c **** 			xNextMessageLength = 0;
 436              		.loc 1 877 0
 437 002e 4346     		mov	r3, r8
 438 0030 2B60     		str	r3, [r5]
 878:..\FreeRTOS10/stream_buffer.c **** 		}
 439              		.loc 1 878 0
 440 0032 0023     		movs	r3, #0
 441 0034 0193     		str	r3, [sp, #4]
ARM GAS  C:\Users\Xwx47\AppData\Local\Temp\ccZsRkco.s 			page 30


 442 0036 00E0     		b	.L25
 443              	.LVL67:
 444              	.L24:
 889:..\FreeRTOS10/stream_buffer.c **** 	}
 445              		.loc 1 889 0
 446 0038 0192     		str	r2, [sp, #4]
 447              	.LVL68:
 448              	.L25:
 893:..\FreeRTOS10/stream_buffer.c **** 
 449              		.loc 1 893 0
 450 003a 2300     		movs	r3, r4
 451 003c 019A     		ldr	r2, [sp, #4]
 452 003e 3100     		movs	r1, r6
 453 0040 2800     		movs	r0, r5
 454 0042 FFF7FEFF 		bl	prvReadBytesFromBuffer
 455              	.LVL69:
 896:..\FreeRTOS10/stream_buffer.c **** /*-----------------------------------------------------------*/
 456              		.loc 1 896 0
 457 0046 02B0     		add	sp, sp, #8
 458              		@ sp needed
 459              	.LVL70:
 460              	.LVL71:
 461              	.LVL72:
 462              	.LVL73:
 463 0048 04BC     		pop	{r2}
 464 004a 9046     		mov	r8, r2
 465 004c F0BD     		pop	{r4, r5, r6, r7, pc}
 466              		.cfi_endproc
 467              	.LFE43:
 468              		.size	prvReadMessageFromBuffer, .-prvReadMessageFromBuffer
 469 004e C046     		.section	.text.xStreamBufferGenericCreate,"ax",%progbits
 470              		.align	2
 471              		.global	xStreamBufferGenericCreate
 472              		.code	16
 473              		.thumb_func
 474              		.type	xStreamBufferGenericCreate, %function
 475              	xStreamBufferGenericCreate:
 476              	.LFB32:
 217:..\FreeRTOS10/stream_buffer.c **** 	uint8_t *pucAllocatedMemory;
 477              		.loc 1 217 0
 478              		.cfi_startproc
 479              		@ args = 0, pretend = 0, frame = 0
 480              		@ frame_needed = 0, uses_anonymous_args = 0
 481              	.LVL74:
 482 0000 F0B5     		push	{r4, r5, r6, r7, lr}
 483              		.cfi_def_cfa_offset 20
 484              		.cfi_offset 4, -20
 485              		.cfi_offset 5, -16
 486              		.cfi_offset 6, -12
 487              		.cfi_offset 7, -8
 488              		.cfi_offset 14, -4
 489 0002 83B0     		sub	sp, sp, #12
 490              		.cfi_def_cfa_offset 32
 491 0004 0D00     		movs	r5, r1
 492 0006 1700     		movs	r7, r2
 229:..\FreeRTOS10/stream_buffer.c **** 		{
 493              		.loc 1 229 0
ARM GAS  C:\Users\Xwx47\AppData\Local\Temp\ccZsRkco.s 			page 31


 494 0008 0029     		cmp	r1, #0
 495 000a 00D1     		bne	.L27
 231:..\FreeRTOS10/stream_buffer.c **** 		}
 496              		.loc 1 231 0
 497 000c 0135     		adds	r5, r5, #1
 498              	.L27:
 499              	.LVL75:
 242:..\FreeRTOS10/stream_buffer.c **** 		pucAllocatedMemory = ( uint8_t * ) pvPortMalloc( xBufferSizeBytes + sizeof( StreamBuffer_t ) ); /
 500              		.loc 1 242 0
 501 000e 461C     		adds	r6, r0, #1
 502              	.LVL76:
 243:..\FreeRTOS10/stream_buffer.c **** 
 503              		.loc 1 243 0
 504 0010 2130     		adds	r0, r0, #33
 505 0012 FFF7FEFF 		bl	pvPortMalloc
 506              	.LVL77:
 507 0016 041E     		subs	r4, r0, #0
 508              	.LVL78:
 245:..\FreeRTOS10/stream_buffer.c **** 		{
 509              		.loc 1 245 0
 510 0018 06D0     		beq	.L28
 247:..\FreeRTOS10/stream_buffer.c **** 										   pucAllocatedMemory + sizeof( StreamBuffer_t ),  /* Storage area follows. */ /*lint !e9
 511              		.loc 1 247 0
 512 001a 0100     		movs	r1, r0
 513 001c 2031     		adds	r1, r1, #32
 514 001e 0097     		str	r7, [sp]
 515 0020 2B00     		movs	r3, r5
 516 0022 3200     		movs	r2, r6
 517 0024 FFF7FEFF 		bl	prvInitialiseNewStreamBuffer
 518              	.LVL79:
 519              	.L28:
 261:..\FreeRTOS10/stream_buffer.c **** 
 520              		.loc 1 261 0
 521 0028 2000     		movs	r0, r4
 522 002a 03B0     		add	sp, sp, #12
 523              		@ sp needed
 524              	.LVL80:
 525              	.LVL81:
 526              	.LVL82:
 527              	.LVL83:
 528 002c F0BD     		pop	{r4, r5, r6, r7, pc}
 529              		.cfi_endproc
 530              	.LFE32:
 531              		.size	xStreamBufferGenericCreate, .-xStreamBufferGenericCreate
 532 002e C046     		.section	.text.vStreamBufferDelete,"ax",%progbits
 533              		.align	2
 534              		.global	vStreamBufferDelete
 535              		.code	16
 536              		.thumb_func
 537              		.type	vStreamBufferDelete, %function
 538              	vStreamBufferDelete:
 539              	.LFB33:
 333:..\FreeRTOS10/stream_buffer.c **** StreamBuffer_t * pxStreamBuffer = ( StreamBuffer_t * ) xStreamBuffer; /*lint !e9087 !e9079 Safe cas
 540              		.loc 1 333 0
 541              		.cfi_startproc
 542              		@ args = 0, pretend = 0, frame = 0
 543              		@ frame_needed = 0, uses_anonymous_args = 0
ARM GAS  C:\Users\Xwx47\AppData\Local\Temp\ccZsRkco.s 			page 32


 544              	.LVL84:
 545 0000 10B5     		push	{r4, lr}
 546              		.cfi_def_cfa_offset 8
 547              		.cfi_offset 4, -8
 548              		.cfi_offset 14, -4
 549              	.LVL85:
 340:..\FreeRTOS10/stream_buffer.c **** 	{
 550              		.loc 1 340 0
 551 0002 037F     		ldrb	r3, [r0, #28]
 552 0004 9B07     		lsls	r3, r3, #30
 553 0006 02D4     		bmi	.L31
 346:..\FreeRTOS10/stream_buffer.c **** 		}
 554              		.loc 1 346 0
 555 0008 FFF7FEFF 		bl	vPortFree
 556              	.LVL86:
 557 000c 03E0     		b	.L30
 558              	.LVL87:
 559              	.L31:
 360:..\FreeRTOS10/stream_buffer.c **** 	}
 560              		.loc 1 360 0
 561 000e 2022     		movs	r2, #32
 562 0010 0021     		movs	r1, #0
 563 0012 FFF7FEFF 		bl	memset
 564              	.LVL88:
 565              	.L30:
 362:..\FreeRTOS10/stream_buffer.c **** /*-----------------------------------------------------------*/
 566              		.loc 1 362 0
 567              		@ sp needed
 568 0016 10BD     		pop	{r4, pc}
 569              		.cfi_endproc
 570              	.LFE33:
 571              		.size	vStreamBufferDelete, .-vStreamBufferDelete
 572              		.section	.text.xStreamBufferReset,"ax",%progbits
 573              		.align	2
 574              		.global	xStreamBufferReset
 575              		.code	16
 576              		.thumb_func
 577              		.type	xStreamBufferReset, %function
 578              	xStreamBufferReset:
 579              	.LFB34:
 366:..\FreeRTOS10/stream_buffer.c **** StreamBuffer_t * const pxStreamBuffer = ( StreamBuffer_t * ) xStreamBuffer; /*lint !e9087 !e9079 Sa
 580              		.loc 1 366 0
 581              		.cfi_startproc
 582              		@ args = 0, pretend = 0, frame = 0
 583              		@ frame_needed = 0, uses_anonymous_args = 0
 584              	.LVL89:
 585 0000 00B5     		push	{lr}
 586              		.cfi_def_cfa_offset 4
 587              		.cfi_offset 14, -4
 588 0002 83B0     		sub	sp, sp, #12
 589              		.cfi_def_cfa_offset 16
 590              	.LVL90:
 385:..\FreeRTOS10/stream_buffer.c **** 	{
 591              		.loc 1 385 0
 592 0004 0369     		ldr	r3, [r0, #16]
 593 0006 002B     		cmp	r3, #0
 594 0008 10D1     		bne	.L36
ARM GAS  C:\Users\Xwx47\AppData\Local\Temp\ccZsRkco.s 			page 33


 387:..\FreeRTOS10/stream_buffer.c **** 		{
 595              		.loc 1 387 0
 596 000a 4369     		ldr	r3, [r0, #20]
 597 000c 002B     		cmp	r3, #0
 598 000e 0FD1     		bne	.L37
 389:..\FreeRTOS10/stream_buffer.c **** 			{
 599              		.loc 1 389 0
 600 0010 037F     		ldrb	r3, [r0, #28]
 601 0012 DB07     		lsls	r3, r3, #31
 602 0014 01D5     		bpl	.L38
 391:..\FreeRTOS10/stream_buffer.c **** 			}
 603              		.loc 1 391 0
 604 0016 0123     		movs	r3, #1
 605 0018 00E0     		b	.L35
 606              	.L38:
 395:..\FreeRTOS10/stream_buffer.c **** 			}
 607              		.loc 1 395 0
 608 001a 0023     		movs	r3, #0
 609              	.L35:
 610              	.LVL91:
 398:..\FreeRTOS10/stream_buffer.c **** 										  pxStreamBuffer->pucBuffer,
 611              		.loc 1 398 0
 612 001c 0093     		str	r3, [sp]
 613 001e C368     		ldr	r3, [r0, #12]
 614              	.LVL92:
 615 0020 8268     		ldr	r2, [r0, #8]
 616 0022 8169     		ldr	r1, [r0, #24]
 617 0024 FFF7FEFF 		bl	prvInitialiseNewStreamBuffer
 618              	.LVL93:
 403:..\FreeRTOS10/stream_buffer.c **** 
 619              		.loc 1 403 0
 620 0028 0120     		movs	r0, #1
 621 002a 02E0     		b	.L34
 622              	.LVL94:
 623              	.L36:
 368:..\FreeRTOS10/stream_buffer.c **** 
 624              		.loc 1 368 0
 625 002c 0020     		movs	r0, #0
 626              	.LVL95:
 627 002e 00E0     		b	.L34
 628              	.LVL96:
 629              	.L37:
 630 0030 0020     		movs	r0, #0
 631              	.LVL97:
 632              	.L34:
 416:..\FreeRTOS10/stream_buffer.c **** /*-----------------------------------------------------------*/
 633              		.loc 1 416 0
 634 0032 03B0     		add	sp, sp, #12
 635              		@ sp needed
 636 0034 00BD     		pop	{pc}
 637              		.cfi_endproc
 638              	.LFE34:
 639              		.size	xStreamBufferReset, .-xStreamBufferReset
 640 0036 C046     		.section	.text.xStreamBufferSetTriggerLevel,"ax",%progbits
 641              		.align	2
 642              		.global	xStreamBufferSetTriggerLevel
 643              		.code	16
ARM GAS  C:\Users\Xwx47\AppData\Local\Temp\ccZsRkco.s 			page 34


 644              		.thumb_func
 645              		.type	xStreamBufferSetTriggerLevel, %function
 646              	xStreamBufferSetTriggerLevel:
 647              	.LFB35:
 420:..\FreeRTOS10/stream_buffer.c **** StreamBuffer_t * const pxStreamBuffer = ( StreamBuffer_t * ) xStreamBuffer; /*lint !e9087 !e9079 Sa
 648              		.loc 1 420 0
 649              		.cfi_startproc
 650              		@ args = 0, pretend = 0, frame = 0
 651              		@ frame_needed = 0, uses_anonymous_args = 0
 652              		@ link register save eliminated.
 653              	.LVL98:
 427:..\FreeRTOS10/stream_buffer.c **** 	{
 654              		.loc 1 427 0
 655 0000 0029     		cmp	r1, #0
 656 0002 00D1     		bne	.L40
 429:..\FreeRTOS10/stream_buffer.c **** 	}
 657              		.loc 1 429 0
 658 0004 0131     		adds	r1, r1, #1
 659              	.LVL99:
 660              	.L40:
 434:..\FreeRTOS10/stream_buffer.c **** 	{
 661              		.loc 1 434 0
 662 0006 8368     		ldr	r3, [r0, #8]
 663 0008 9942     		cmp	r1, r3
 664 000a 02D8     		bhi	.L43
 436:..\FreeRTOS10/stream_buffer.c **** 		xReturn = pdPASS;
 665              		.loc 1 436 0
 666 000c C160     		str	r1, [r0, #12]
 667              	.LVL100:
 437:..\FreeRTOS10/stream_buffer.c **** 	}
 668              		.loc 1 437 0
 669 000e 0120     		movs	r0, #1
 670              	.LVL101:
 671 0010 00E0     		b	.L41
 672              	.LVL102:
 673              	.L43:
 441:..\FreeRTOS10/stream_buffer.c **** 	}
 674              		.loc 1 441 0
 675 0012 0020     		movs	r0, #0
 676              	.LVL103:
 677              	.L41:
 445:..\FreeRTOS10/stream_buffer.c **** /*-----------------------------------------------------------*/
 678              		.loc 1 445 0
 679              		@ sp needed
 680 0014 7047     		bx	lr
 681              		.cfi_endproc
 682              	.LFE35:
 683              		.size	xStreamBufferSetTriggerLevel, .-xStreamBufferSetTriggerLevel
 684 0016 C046     		.section	.text.xStreamBufferSpacesAvailable,"ax",%progbits
 685              		.align	2
 686              		.global	xStreamBufferSpacesAvailable
 687              		.code	16
 688              		.thumb_func
 689              		.type	xStreamBufferSpacesAvailable, %function
 690              	xStreamBufferSpacesAvailable:
 691              	.LFB36:
 449:..\FreeRTOS10/stream_buffer.c **** const StreamBuffer_t * const pxStreamBuffer = ( StreamBuffer_t * ) xStreamBuffer; /*lint !e9087 !e9
ARM GAS  C:\Users\Xwx47\AppData\Local\Temp\ccZsRkco.s 			page 35


 692              		.loc 1 449 0
 693              		.cfi_startproc
 694              		@ args = 0, pretend = 0, frame = 0
 695              		@ frame_needed = 0, uses_anonymous_args = 0
 696              		@ link register save eliminated.
 697              	.LVL104:
 455:..\FreeRTOS10/stream_buffer.c **** 	xSpace -= pxStreamBuffer->xHead;
 698              		.loc 1 455 0
 699 0000 8268     		ldr	r2, [r0, #8]
 700 0002 0368     		ldr	r3, [r0]
 701 0004 D318     		adds	r3, r2, r3
 702              	.LVL105:
 456:..\FreeRTOS10/stream_buffer.c **** 	xSpace -= ( size_t ) 1;
 703              		.loc 1 456 0
 704 0006 4068     		ldr	r0, [r0, #4]
 705              	.LVL106:
 706 0008 181A     		subs	r0, r3, r0
 707              	.LVL107:
 457:..\FreeRTOS10/stream_buffer.c **** 
 708              		.loc 1 457 0
 709 000a 0138     		subs	r0, r0, #1
 710              	.LVL108:
 459:..\FreeRTOS10/stream_buffer.c **** 	{
 711              		.loc 1 459 0
 712 000c 8242     		cmp	r2, r0
 713 000e 00D8     		bhi	.L45
 461:..\FreeRTOS10/stream_buffer.c **** 	}
 714              		.loc 1 461 0
 715 0010 801A     		subs	r0, r0, r2
 716              	.LVL109:
 717              	.L45:
 469:..\FreeRTOS10/stream_buffer.c **** /*-----------------------------------------------------------*/
 718              		.loc 1 469 0
 719              		@ sp needed
 720 0012 7047     		bx	lr
 721              		.cfi_endproc
 722              	.LFE36:
 723              		.size	xStreamBufferSpacesAvailable, .-xStreamBufferSpacesAvailable
 724              		.section	.text.xStreamBufferBytesAvailable,"ax",%progbits
 725              		.align	2
 726              		.global	xStreamBufferBytesAvailable
 727              		.code	16
 728              		.thumb_func
 729              		.type	xStreamBufferBytesAvailable, %function
 730              	xStreamBufferBytesAvailable:
 731              	.LFB37:
 473:..\FreeRTOS10/stream_buffer.c **** const StreamBuffer_t * const pxStreamBuffer = ( StreamBuffer_t * ) xStreamBuffer; /*lint !e9087 !e9
 732              		.loc 1 473 0
 733              		.cfi_startproc
 734              		@ args = 0, pretend = 0, frame = 0
 735              		@ frame_needed = 0, uses_anonymous_args = 0
 736              	.LVL110:
 737 0000 10B5     		push	{r4, lr}
 738              		.cfi_def_cfa_offset 8
 739              		.cfi_offset 4, -8
 740              		.cfi_offset 14, -4
 741              	.LVL111:
ARM GAS  C:\Users\Xwx47\AppData\Local\Temp\ccZsRkco.s 			page 36


 479:..\FreeRTOS10/stream_buffer.c **** 	return xReturn;
 742              		.loc 1 479 0
 743 0002 FFF7FEFF 		bl	prvBytesInBuffer
 744              	.LVL112:
 481:..\FreeRTOS10/stream_buffer.c **** /*-----------------------------------------------------------*/
 745              		.loc 1 481 0
 746              		@ sp needed
 747 0006 10BD     		pop	{r4, pc}
 748              		.cfi_endproc
 749              	.LFE37:
 750              		.size	xStreamBufferBytesAvailable, .-xStreamBufferBytesAvailable
 751              		.section	.text.xStreamBufferSend,"ax",%progbits
 752              		.align	2
 753              		.global	xStreamBufferSend
 754              		.code	16
 755              		.thumb_func
 756              		.type	xStreamBufferSend, %function
 757              	xStreamBufferSend:
 758              	.LFB38:
 488:..\FreeRTOS10/stream_buffer.c **** StreamBuffer_t * const pxStreamBuffer = ( StreamBuffer_t * ) xStreamBuffer; /*lint !e9087 !e9079 Sa
 759              		.loc 1 488 0
 760              		.cfi_startproc
 761              		@ args = 0, pretend = 0, frame = 16
 762              		@ frame_needed = 0, uses_anonymous_args = 0
 763              	.LVL113:
 764 0000 F0B5     		push	{r4, r5, r6, r7, lr}
 765              		.cfi_def_cfa_offset 20
 766              		.cfi_offset 4, -20
 767              		.cfi_offset 5, -16
 768              		.cfi_offset 6, -12
 769              		.cfi_offset 7, -8
 770              		.cfi_offset 14, -4
 771 0002 87B0     		sub	sp, sp, #28
 772              		.cfi_def_cfa_offset 48
 773 0004 0400     		movs	r4, r0
 774 0006 0291     		str	r1, [sp, #8]
 775 0008 1600     		movs	r6, r2
 776 000a 0393     		str	r3, [sp, #12]
 777              	.LVL114:
 501:..\FreeRTOS10/stream_buffer.c **** 	{
 778              		.loc 1 501 0
 779 000c 037F     		ldrb	r3, [r0, #28]
 780              	.LVL115:
 781 000e DB07     		lsls	r3, r3, #31
 782 0010 01D5     		bpl	.L55
 503:..\FreeRTOS10/stream_buffer.c **** 	}
 783              		.loc 1 503 0
 784 0012 171D     		adds	r7, r2, #4
 785              	.LVL116:
 786 0014 00E0     		b	.L48
 787              	.LVL117:
 788              	.L55:
 491:..\FreeRTOS10/stream_buffer.c **** TimeOut_t xTimeOut;
 789              		.loc 1 491 0
 790 0016 1700     		movs	r7, r2
 791              	.LVL118:
 792              	.L48:
ARM GAS  C:\Users\Xwx47\AppData\Local\Temp\ccZsRkco.s 			page 37


 510:..\FreeRTOS10/stream_buffer.c **** 	{
 793              		.loc 1 510 0
 794 0018 039B     		ldr	r3, [sp, #12]
 795 001a 002B     		cmp	r3, #0
 796 001c 25D0     		beq	.L56
 512:..\FreeRTOS10/stream_buffer.c **** 
 797              		.loc 1 512 0
 798 001e 04A8     		add	r0, sp, #16
 799              	.LVL119:
 800 0020 FFF7FEFF 		bl	vTaskSetTimeOutState
 801              	.LVL120:
 802              	.L51:
 518:..\FreeRTOS10/stream_buffer.c **** 			{
 803              		.loc 1 518 0
 804 0024 FFF7FEFF 		bl	vPortEnterCritical
 805              	.LVL121:
 520:..\FreeRTOS10/stream_buffer.c **** 
 806              		.loc 1 520 0
 807 0028 2000     		movs	r0, r4
 808 002a FFF7FEFF 		bl	xStreamBufferSpacesAvailable
 809              	.LVL122:
 810 002e 0500     		movs	r5, r0
 811              	.LVL123:
 522:..\FreeRTOS10/stream_buffer.c **** 				{
 812              		.loc 1 522 0
 813 0030 8742     		cmp	r7, r0
 814 0032 17D9     		bls	.L50
 525:..\FreeRTOS10/stream_buffer.c **** 
 815              		.loc 1 525 0
 816 0034 0020     		movs	r0, #0
 817              	.LVL124:
 818 0036 FFF7FEFF 		bl	xTaskNotifyStateClear
 819              	.LVL125:
 529:..\FreeRTOS10/stream_buffer.c **** 				}
 820              		.loc 1 529 0
 821 003a FFF7FEFF 		bl	xTaskGetCurrentTaskHandle
 822              	.LVL126:
 823 003e 6061     		str	r0, [r4, #20]
 537:..\FreeRTOS10/stream_buffer.c **** 
 824              		.loc 1 537 0
 825 0040 FFF7FEFF 		bl	vPortExitCritical
 826              	.LVL127:
 540:..\FreeRTOS10/stream_buffer.c **** 			pxStreamBuffer->xTaskWaitingToSend = NULL;
 827              		.loc 1 540 0
 828 0044 039B     		ldr	r3, [sp, #12]
 829 0046 0022     		movs	r2, #0
 830 0048 0121     		movs	r1, #1
 831 004a 4942     		rsbs	r1, r1, #0
 832 004c 0020     		movs	r0, #0
 833 004e FFF7FEFF 		bl	xTaskNotifyWait
 834              	.LVL128:
 541:..\FreeRTOS10/stream_buffer.c **** 
 835              		.loc 1 541 0
 836 0052 0023     		movs	r3, #0
 837 0054 6361     		str	r3, [r4, #20]
 543:..\FreeRTOS10/stream_buffer.c **** 	}
 838              		.loc 1 543 0
ARM GAS  C:\Users\Xwx47\AppData\Local\Temp\ccZsRkco.s 			page 38


 839 0056 03A9     		add	r1, sp, #12
 840              	.LVL129:
 841 0058 04A8     		add	r0, sp, #16
 842 005a FFF7FEFF 		bl	xTaskCheckForTimeOut
 843              	.LVL130:
 844 005e 0028     		cmp	r0, #0
 845 0060 E0D0     		beq	.L51
 846 0062 03E0     		b	.L49
 847              	.LVL131:
 848              	.L50:
 533:..\FreeRTOS10/stream_buffer.c **** 					break;
 849              		.loc 1 533 0
 850 0064 FFF7FEFF 		bl	vPortExitCritical
 851              	.LVL132:
 534:..\FreeRTOS10/stream_buffer.c **** 				}
 852              		.loc 1 534 0
 853 0068 00E0     		b	.L49
 854              	.LVL133:
 855              	.L56:
 490:..\FreeRTOS10/stream_buffer.c **** size_t xRequiredSpace = xDataLengthBytes;
 856              		.loc 1 490 0
 857 006a 0025     		movs	r5, #0
 858              	.LVL134:
 859              	.L49:
 550:..\FreeRTOS10/stream_buffer.c **** 	{
 860              		.loc 1 550 0
 861 006c 002D     		cmp	r5, #0
 862 006e 03D1     		bne	.L52
 552:..\FreeRTOS10/stream_buffer.c **** 	}
 863              		.loc 1 552 0
 864 0070 2000     		movs	r0, r4
 865 0072 FFF7FEFF 		bl	xStreamBufferSpacesAvailable
 866              	.LVL135:
 867 0076 0500     		movs	r5, r0
 868              	.LVL136:
 869              	.L52:
 559:..\FreeRTOS10/stream_buffer.c **** 
 870              		.loc 1 559 0
 871 0078 0097     		str	r7, [sp]
 872 007a 2B00     		movs	r3, r5
 873 007c 3200     		movs	r2, r6
 874 007e 0299     		ldr	r1, [sp, #8]
 875 0080 2000     		movs	r0, r4
 876 0082 FFF7FEFF 		bl	prvWriteMessageToBuffer
 877              	.LVL137:
 878 0086 051E     		subs	r5, r0, #0
 879              	.LVL138:
 561:..\FreeRTOS10/stream_buffer.c **** 	{
 880              		.loc 1 561 0
 881 0088 14D0     		beq	.L53
 566:..\FreeRTOS10/stream_buffer.c **** 		{
 882              		.loc 1 566 0
 883 008a 2000     		movs	r0, r4
 884              	.LVL139:
 885 008c FFF7FEFF 		bl	prvBytesInBuffer
 886              	.LVL140:
 887 0090 E368     		ldr	r3, [r4, #12]
ARM GAS  C:\Users\Xwx47\AppData\Local\Temp\ccZsRkco.s 			page 39


 888 0092 9842     		cmp	r0, r3
 889 0094 0ED3     		bcc	.L53
 568:..\FreeRTOS10/stream_buffer.c **** 		}
 890              		.loc 1 568 0
 891 0096 FFF7FEFF 		bl	vTaskSuspendAll
 892              	.LVL141:
 893 009a 2369     		ldr	r3, [r4, #16]
 894 009c 002B     		cmp	r3, #0
 895 009e 07D0     		beq	.L54
 568:..\FreeRTOS10/stream_buffer.c **** 		}
 896              		.loc 1 568 0 is_stmt 0 discriminator 1
 897 00a0 2069     		ldr	r0, [r4, #16]
 898 00a2 0023     		movs	r3, #0
 899 00a4 0022     		movs	r2, #0
 900 00a6 0021     		movs	r1, #0
 901 00a8 FFF7FEFF 		bl	xTaskGenericNotify
 902              	.LVL142:
 903 00ac 0023     		movs	r3, #0
 904 00ae 2361     		str	r3, [r4, #16]
 905              	.L54:
 568:..\FreeRTOS10/stream_buffer.c **** 		}
 906              		.loc 1 568 0 discriminator 3
 907 00b0 FFF7FEFF 		bl	xTaskResumeAll
 908              	.LVL143:
 909              	.L53:
 582:..\FreeRTOS10/stream_buffer.c **** /*-----------------------------------------------------------*/
 910              		.loc 1 582 0 is_stmt 1
 911 00b4 2800     		movs	r0, r5
 912 00b6 07B0     		add	sp, sp, #28
 913              		@ sp needed
 914              	.LVL144:
 915              	.LVL145:
 916              	.LVL146:
 917              	.LVL147:
 918 00b8 F0BD     		pop	{r4, r5, r6, r7, pc}
 919              		.cfi_endproc
 920              	.LFE38:
 921              		.size	xStreamBufferSend, .-xStreamBufferSend
 922 00ba C046     		.section	.text.xStreamBufferSendFromISR,"ax",%progbits
 923              		.align	2
 924              		.global	xStreamBufferSendFromISR
 925              		.code	16
 926              		.thumb_func
 927              		.type	xStreamBufferSendFromISR, %function
 928              	xStreamBufferSendFromISR:
 929              	.LFB39:
 589:..\FreeRTOS10/stream_buffer.c **** StreamBuffer_t * const pxStreamBuffer = ( StreamBuffer_t * ) xStreamBuffer; /*lint !e9087 !e9079 Sa
 930              		.loc 1 589 0
 931              		.cfi_startproc
 932              		@ args = 0, pretend = 0, frame = 8
 933              		@ frame_needed = 0, uses_anonymous_args = 0
 934              	.LVL148:
 935 0000 F0B5     		push	{r4, r5, r6, r7, lr}
 936              		.cfi_def_cfa_offset 20
 937              		.cfi_offset 4, -20
 938              		.cfi_offset 5, -16
 939              		.cfi_offset 6, -12
ARM GAS  C:\Users\Xwx47\AppData\Local\Temp\ccZsRkco.s 			page 40


 940              		.cfi_offset 7, -8
 941              		.cfi_offset 14, -4
 942 0002 85B0     		sub	sp, sp, #20
 943              		.cfi_def_cfa_offset 40
 944 0004 0400     		movs	r4, r0
 945 0006 0F00     		movs	r7, r1
 946 0008 1500     		movs	r5, r2
 947 000a 0393     		str	r3, [sp, #12]
 948              	.LVL149:
 601:..\FreeRTOS10/stream_buffer.c **** 	{
 949              		.loc 1 601 0
 950 000c 037F     		ldrb	r3, [r0, #28]
 951              	.LVL150:
 952 000e DB07     		lsls	r3, r3, #31
 953 0010 01D5     		bpl	.L61
 603:..\FreeRTOS10/stream_buffer.c **** 	}
 954              		.loc 1 603 0
 955 0012 161D     		adds	r6, r2, #4
 956              	.LVL151:
 957 0014 00E0     		b	.L58
 958              	.LVL152:
 959              	.L61:
 592:..\FreeRTOS10/stream_buffer.c **** 
 960              		.loc 1 592 0
 961 0016 1600     		movs	r6, r2
 962              	.LVL153:
 963              	.L58:
 610:..\FreeRTOS10/stream_buffer.c **** 	xReturn = prvWriteMessageToBuffer( pxStreamBuffer, pvTxData, xDataLengthBytes, xSpace, xRequiredSp
 964              		.loc 1 610 0
 965 0018 2000     		movs	r0, r4
 966              	.LVL154:
 967 001a FFF7FEFF 		bl	xStreamBufferSpacesAvailable
 968              	.LVL155:
 969 001e 0300     		movs	r3, r0
 970              	.LVL156:
 611:..\FreeRTOS10/stream_buffer.c **** 
 971              		.loc 1 611 0
 972 0020 0096     		str	r6, [sp]
 973 0022 2A00     		movs	r2, r5
 974 0024 3900     		movs	r1, r7
 975 0026 2000     		movs	r0, r4
 976              	.LVL157:
 977 0028 FFF7FEFF 		bl	prvWriteMessageToBuffer
 978              	.LVL158:
 979 002c 051E     		subs	r5, r0, #0
 980              	.LVL159:
 613:..\FreeRTOS10/stream_buffer.c **** 	{
 981              		.loc 1 613 0
 982 002e 18D0     		beq	.L59
 616:..\FreeRTOS10/stream_buffer.c **** 		{
 983              		.loc 1 616 0
 984 0030 2000     		movs	r0, r4
 985              	.LVL160:
 986 0032 FFF7FEFF 		bl	prvBytesInBuffer
 987              	.LVL161:
 988 0036 E368     		ldr	r3, [r4, #12]
 989 0038 9842     		cmp	r0, r3
ARM GAS  C:\Users\Xwx47\AppData\Local\Temp\ccZsRkco.s 			page 41


 990 003a 12D3     		bcc	.L59
 991              	.LBB2:
 618:..\FreeRTOS10/stream_buffer.c **** 		}
 992              		.loc 1 618 0
 993 003c FFF7FEFF 		bl	ulSetInterruptMaskFromISR
 994              	.LVL162:
 995 0040 0700     		movs	r7, r0
 996              	.LVL163:
 997 0042 2369     		ldr	r3, [r4, #16]
 998 0044 002B     		cmp	r3, #0
 999 0046 09D0     		beq	.L60
 618:..\FreeRTOS10/stream_buffer.c **** 		}
 1000              		.loc 1 618 0 is_stmt 0 discriminator 1
 1001 0048 2069     		ldr	r0, [r4, #16]
 1002              	.LVL164:
 1003 004a 039B     		ldr	r3, [sp, #12]
 1004 004c 0093     		str	r3, [sp]
 1005 004e 0023     		movs	r3, #0
 1006 0050 0022     		movs	r2, #0
 1007 0052 0021     		movs	r1, #0
 1008 0054 FFF7FEFF 		bl	xTaskGenericNotifyFromISR
 1009              	.LVL165:
 1010 0058 0023     		movs	r3, #0
 1011 005a 2361     		str	r3, [r4, #16]
 1012              	.L60:
 618:..\FreeRTOS10/stream_buffer.c **** 		}
 1013              		.loc 1 618 0 discriminator 3
 1014 005c 3800     		movs	r0, r7
 1015 005e FFF7FEFF 		bl	vClearInterruptMaskFromISR
 1016              	.LVL166:
 1017              	.L59:
 1018              	.LBE2:
 633:..\FreeRTOS10/stream_buffer.c **** /*-----------------------------------------------------------*/
 1019              		.loc 1 633 0 is_stmt 1
 1020 0062 2800     		movs	r0, r5
 1021 0064 05B0     		add	sp, sp, #20
 1022              		@ sp needed
 1023              	.LVL167:
 1024              	.LVL168:
 1025              	.LVL169:
 1026 0066 F0BD     		pop	{r4, r5, r6, r7, pc}
 1027              		.cfi_endproc
 1028              	.LFE39:
 1029              		.size	xStreamBufferSendFromISR, .-xStreamBufferSendFromISR
 1030              		.section	.text.xStreamBufferReceive,"ax",%progbits
 1031              		.align	2
 1032              		.global	xStreamBufferReceive
 1033              		.code	16
 1034              		.thumb_func
 1035              		.type	xStreamBufferReceive, %function
 1036              	xStreamBufferReceive:
 1037              	.LFB41:
 692:..\FreeRTOS10/stream_buffer.c **** StreamBuffer_t * const pxStreamBuffer = ( StreamBuffer_t * ) xStreamBuffer; /*lint !e9087 !e9079 Sa
 1038              		.loc 1 692 0
 1039              		.cfi_startproc
 1040              		@ args = 0, pretend = 0, frame = 8
 1041              		@ frame_needed = 0, uses_anonymous_args = 0
ARM GAS  C:\Users\Xwx47\AppData\Local\Temp\ccZsRkco.s 			page 42


 1042              	.LVL170:
 1043 0000 F0B5     		push	{r4, r5, r6, r7, lr}
 1044              		.cfi_def_cfa_offset 20
 1045              		.cfi_offset 4, -20
 1046              		.cfi_offset 5, -16
 1047              		.cfi_offset 6, -12
 1048              		.cfi_offset 7, -8
 1049              		.cfi_offset 14, -4
 1050 0002 85B0     		sub	sp, sp, #20
 1051              		.cfi_def_cfa_offset 40
 1052 0004 0400     		movs	r4, r0
 1053 0006 0291     		str	r1, [sp, #8]
 1054 0008 0392     		str	r2, [sp, #12]
 1055 000a 1F00     		movs	r7, r3
 1056              	.LVL171:
 704:..\FreeRTOS10/stream_buffer.c **** 	{
 1057              		.loc 1 704 0
 1058 000c 037F     		ldrb	r3, [r0, #28]
 1059              	.LVL172:
 1060 000e DB07     		lsls	r3, r3, #31
 1061 0010 01D5     		bpl	.L69
 706:..\FreeRTOS10/stream_buffer.c **** 	}
 1062              		.loc 1 706 0
 1063 0012 0426     		movs	r6, #4
 1064 0014 00E0     		b	.L63
 1065              	.L69:
 710:..\FreeRTOS10/stream_buffer.c **** 	}
 1066              		.loc 1 710 0
 1067 0016 0026     		movs	r6, #0
 1068              	.L63:
 1069              	.LVL173:
 713:..\FreeRTOS10/stream_buffer.c **** 	{
 1070              		.loc 1 713 0
 1071 0018 002F     		cmp	r7, #0
 1072 001a 1FD0     		beq	.L64
 717:..\FreeRTOS10/stream_buffer.c **** 		{
 1073              		.loc 1 717 0
 1074 001c FFF7FEFF 		bl	vPortEnterCritical
 1075              	.LVL174:
 719:..\FreeRTOS10/stream_buffer.c **** 
 1076              		.loc 1 719 0
 1077 0020 2000     		movs	r0, r4
 1078 0022 FFF7FEFF 		bl	prvBytesInBuffer
 1079              	.LVL175:
 1080 0026 0500     		movs	r5, r0
 1081              	.LVL176:
 726:..\FreeRTOS10/stream_buffer.c **** 			{
 1082              		.loc 1 726 0
 1083 0028 8642     		cmp	r6, r0
 1084 002a 05D3     		bcc	.L65
 729:..\FreeRTOS10/stream_buffer.c **** 
 1085              		.loc 1 729 0
 1086 002c 0020     		movs	r0, #0
 1087              	.LVL177:
 1088 002e FFF7FEFF 		bl	xTaskNotifyStateClear
 1089              	.LVL178:
 733:..\FreeRTOS10/stream_buffer.c **** 			}
ARM GAS  C:\Users\Xwx47\AppData\Local\Temp\ccZsRkco.s 			page 43


 1090              		.loc 1 733 0
 1091 0032 FFF7FEFF 		bl	xTaskGetCurrentTaskHandle
 1092              	.LVL179:
 1093 0036 2061     		str	r0, [r4, #16]
 1094              	.L65:
 740:..\FreeRTOS10/stream_buffer.c **** 
 1095              		.loc 1 740 0
 1096 0038 FFF7FEFF 		bl	vPortExitCritical
 1097              	.LVL180:
 742:..\FreeRTOS10/stream_buffer.c **** 		{
 1098              		.loc 1 742 0
 1099 003c AE42     		cmp	r6, r5
 1100 003e 11D3     		bcc	.L66
 746:..\FreeRTOS10/stream_buffer.c **** 			pxStreamBuffer->xTaskWaitingToReceive = NULL;
 1101              		.loc 1 746 0
 1102 0040 3B00     		movs	r3, r7
 1103 0042 0022     		movs	r2, #0
 1104 0044 0121     		movs	r1, #1
 1105 0046 4942     		rsbs	r1, r1, #0
 1106 0048 0020     		movs	r0, #0
 1107 004a FFF7FEFF 		bl	xTaskNotifyWait
 1108              	.LVL181:
 747:..\FreeRTOS10/stream_buffer.c **** 
 1109              		.loc 1 747 0
 1110 004e 0023     		movs	r3, #0
 1111 0050 2361     		str	r3, [r4, #16]
 750:..\FreeRTOS10/stream_buffer.c **** 		}
 1112              		.loc 1 750 0
 1113 0052 2000     		movs	r0, r4
 1114 0054 FFF7FEFF 		bl	prvBytesInBuffer
 1115              	.LVL182:
 1116 0058 0500     		movs	r5, r0
 1117              	.LVL183:
 1118 005a 03E0     		b	.L66
 1119              	.LVL184:
 1120              	.L64:
 759:..\FreeRTOS10/stream_buffer.c **** 	}
 1121              		.loc 1 759 0
 1122 005c 2000     		movs	r0, r4
 1123              	.LVL185:
 1124 005e FFF7FEFF 		bl	prvBytesInBuffer
 1125              	.LVL186:
 1126 0062 0500     		movs	r5, r0
 1127              	.LVL187:
 1128              	.L66:
 767:..\FreeRTOS10/stream_buffer.c **** 	{
 1129              		.loc 1 767 0
 1130 0064 B542     		cmp	r5, r6
 1131 0066 18D9     		bls	.L70
 769:..\FreeRTOS10/stream_buffer.c **** 
 1132              		.loc 1 769 0
 1133 0068 0096     		str	r6, [sp]
 1134 006a 2B00     		movs	r3, r5
 1135 006c 039A     		ldr	r2, [sp, #12]
 1136 006e 0299     		ldr	r1, [sp, #8]
 1137 0070 2000     		movs	r0, r4
 1138 0072 FFF7FEFF 		bl	prvReadMessageFromBuffer
ARM GAS  C:\Users\Xwx47\AppData\Local\Temp\ccZsRkco.s 			page 44


 1139              	.LVL188:
 1140 0076 051E     		subs	r5, r0, #0
 1141              	.LVL189:
 772:..\FreeRTOS10/stream_buffer.c **** 		{
 1142              		.loc 1 772 0
 1143 0078 10D0     		beq	.L67
 775:..\FreeRTOS10/stream_buffer.c **** 		}
 1144              		.loc 1 775 0
 1145 007a FFF7FEFF 		bl	vTaskSuspendAll
 1146              	.LVL190:
 1147 007e 6369     		ldr	r3, [r4, #20]
 1148 0080 002B     		cmp	r3, #0
 1149 0082 07D0     		beq	.L68
 775:..\FreeRTOS10/stream_buffer.c **** 		}
 1150              		.loc 1 775 0 is_stmt 0 discriminator 1
 1151 0084 6069     		ldr	r0, [r4, #20]
 1152 0086 0023     		movs	r3, #0
 1153 0088 0022     		movs	r2, #0
 1154 008a 0021     		movs	r1, #0
 1155 008c FFF7FEFF 		bl	xTaskGenericNotify
 1156              	.LVL191:
 1157 0090 0023     		movs	r3, #0
 1158 0092 6361     		str	r3, [r4, #20]
 1159              	.L68:
 775:..\FreeRTOS10/stream_buffer.c **** 		}
 1160              		.loc 1 775 0 discriminator 3
 1161 0094 FFF7FEFF 		bl	xTaskResumeAll
 1162              	.LVL192:
 1163 0098 00E0     		b	.L67
 1164              	.LVL193:
 1165              	.L70:
 694:..\FreeRTOS10/stream_buffer.c **** 
 1166              		.loc 1 694 0 is_stmt 1
 1167 009a 0025     		movs	r5, #0
 1168              	.LVL194:
 1169              	.L67:
 789:..\FreeRTOS10/stream_buffer.c **** /*-----------------------------------------------------------*/
 1170              		.loc 1 789 0
 1171 009c 2800     		movs	r0, r5
 1172 009e 05B0     		add	sp, sp, #20
 1173              		@ sp needed
 1174              	.LVL195:
 1175              	.LVL196:
 1176              	.LVL197:
 1177              	.LVL198:
 1178 00a0 F0BD     		pop	{r4, r5, r6, r7, pc}
 1179              		.cfi_endproc
 1180              	.LFE41:
 1181              		.size	xStreamBufferReceive, .-xStreamBufferReceive
 1182 00a2 C046     		.section	.text.xStreamBufferReceiveFromISR,"ax",%progbits
 1183              		.align	2
 1184              		.global	xStreamBufferReceiveFromISR
 1185              		.code	16
 1186              		.thumb_func
 1187              		.type	xStreamBufferReceiveFromISR, %function
 1188              	xStreamBufferReceiveFromISR:
 1189              	.LFB42:
ARM GAS  C:\Users\Xwx47\AppData\Local\Temp\ccZsRkco.s 			page 45


 796:..\FreeRTOS10/stream_buffer.c **** StreamBuffer_t * const pxStreamBuffer = ( StreamBuffer_t * ) xStreamBuffer; /*lint !e9087 !e9079 Sa
 1190              		.loc 1 796 0
 1191              		.cfi_startproc
 1192              		@ args = 0, pretend = 0, frame = 8
 1193              		@ frame_needed = 0, uses_anonymous_args = 0
 1194              	.LVL199:
 1195 0000 F0B5     		push	{r4, r5, r6, r7, lr}
 1196              		.cfi_def_cfa_offset 20
 1197              		.cfi_offset 4, -20
 1198              		.cfi_offset 5, -16
 1199              		.cfi_offset 6, -12
 1200              		.cfi_offset 7, -8
 1201              		.cfi_offset 14, -4
 1202 0002 85B0     		sub	sp, sp, #20
 1203              		.cfi_def_cfa_offset 40
 1204 0004 0400     		movs	r4, r0
 1205 0006 0391     		str	r1, [sp, #12]
 1206 0008 1600     		movs	r6, r2
 1207 000a 1F00     		movs	r7, r3
 1208              	.LVL200:
 808:..\FreeRTOS10/stream_buffer.c **** 	{
 1209              		.loc 1 808 0
 1210 000c 037F     		ldrb	r3, [r0, #28]
 1211              	.LVL201:
 1212 000e DB07     		lsls	r3, r3, #31
 1213 0010 01D5     		bpl	.L75
 810:..\FreeRTOS10/stream_buffer.c **** 	}
 1214              		.loc 1 810 0
 1215 0012 0425     		movs	r5, #4
 1216 0014 00E0     		b	.L72
 1217              	.L75:
 814:..\FreeRTOS10/stream_buffer.c **** 	}
 1218              		.loc 1 814 0
 1219 0016 0025     		movs	r5, #0
 1220              	.L72:
 1221              	.LVL202:
 817:..\FreeRTOS10/stream_buffer.c **** 
 1222              		.loc 1 817 0
 1223 0018 2000     		movs	r0, r4
 1224              	.LVL203:
 1225 001a FFF7FEFF 		bl	prvBytesInBuffer
 1226              	.LVL204:
 824:..\FreeRTOS10/stream_buffer.c **** 	{
 1227              		.loc 1 824 0
 1228 001e 8542     		cmp	r5, r0
 1229 0020 1BD2     		bcs	.L76
 826:..\FreeRTOS10/stream_buffer.c **** 
 1230              		.loc 1 826 0
 1231 0022 0095     		str	r5, [sp]
 1232 0024 0300     		movs	r3, r0
 1233 0026 3200     		movs	r2, r6
 1234 0028 0399     		ldr	r1, [sp, #12]
 1235 002a 2000     		movs	r0, r4
 1236              	.LVL205:
 1237 002c FFF7FEFF 		bl	prvReadMessageFromBuffer
 1238              	.LVL206:
 1239 0030 051E     		subs	r5, r0, #0
ARM GAS  C:\Users\Xwx47\AppData\Local\Temp\ccZsRkco.s 			page 46


 1240              	.LVL207:
 829:..\FreeRTOS10/stream_buffer.c **** 		{
 1241              		.loc 1 829 0
 1242 0032 13D0     		beq	.L73
 1243              	.LBB3:
 831:..\FreeRTOS10/stream_buffer.c **** 		}
 1244              		.loc 1 831 0
 1245 0034 FFF7FEFF 		bl	ulSetInterruptMaskFromISR
 1246              	.LVL208:
 1247 0038 0600     		movs	r6, r0
 1248              	.LVL209:
 1249 003a 6369     		ldr	r3, [r4, #20]
 1250 003c 002B     		cmp	r3, #0
 1251 003e 08D0     		beq	.L74
 831:..\FreeRTOS10/stream_buffer.c **** 		}
 1252              		.loc 1 831 0 is_stmt 0 discriminator 1
 1253 0040 6069     		ldr	r0, [r4, #20]
 1254              	.LVL210:
 1255 0042 0097     		str	r7, [sp]
 1256 0044 0023     		movs	r3, #0
 1257 0046 0022     		movs	r2, #0
 1258 0048 0021     		movs	r1, #0
 1259 004a FFF7FEFF 		bl	xTaskGenericNotifyFromISR
 1260              	.LVL211:
 1261 004e 0023     		movs	r3, #0
 1262 0050 6361     		str	r3, [r4, #20]
 1263              	.L74:
 831:..\FreeRTOS10/stream_buffer.c **** 		}
 1264              		.loc 1 831 0 discriminator 3
 1265 0052 3000     		movs	r0, r6
 1266 0054 FFF7FEFF 		bl	vClearInterruptMaskFromISR
 1267              	.LVL212:
 1268              	.LBE3:
 1269 0058 00E0     		b	.L73
 1270              	.LVL213:
 1271              	.L76:
 798:..\FreeRTOS10/stream_buffer.c **** 
 1272              		.loc 1 798 0 is_stmt 1
 1273 005a 0025     		movs	r5, #0
 1274              	.LVL214:
 1275              	.L73:
 846:..\FreeRTOS10/stream_buffer.c **** /*-----------------------------------------------------------*/
 1276              		.loc 1 846 0
 1277 005c 2800     		movs	r0, r5
 1278 005e 05B0     		add	sp, sp, #20
 1279              		@ sp needed
 1280              	.LVL215:
 1281              	.LVL216:
 1282              	.LVL217:
 1283 0060 F0BD     		pop	{r4, r5, r6, r7, pc}
 1284              		.cfi_endproc
 1285              	.LFE42:
 1286              		.size	xStreamBufferReceiveFromISR, .-xStreamBufferReceiveFromISR
 1287 0062 C046     		.section	.text.xStreamBufferIsEmpty,"ax",%progbits
 1288              		.align	2
 1289              		.global	xStreamBufferIsEmpty
 1290              		.code	16
ARM GAS  C:\Users\Xwx47\AppData\Local\Temp\ccZsRkco.s 			page 47


 1291              		.thumb_func
 1292              		.type	xStreamBufferIsEmpty, %function
 1293              	xStreamBufferIsEmpty:
 1294              	.LFB44:
 900:..\FreeRTOS10/stream_buffer.c **** const StreamBuffer_t * const pxStreamBuffer = ( StreamBuffer_t * ) xStreamBuffer; /*lint !e9087 !e9
 1295              		.loc 1 900 0
 1296              		.cfi_startproc
 1297              		@ args = 0, pretend = 0, frame = 0
 1298              		@ frame_needed = 0, uses_anonymous_args = 0
 1299              		@ link register save eliminated.
 1300              	.LVL218:
 908:..\FreeRTOS10/stream_buffer.c **** 	if( pxStreamBuffer->xHead == xTail )
 1301              		.loc 1 908 0
 1302 0000 0268     		ldr	r2, [r0]
 1303              	.LVL219:
 909:..\FreeRTOS10/stream_buffer.c **** 	{
 1304              		.loc 1 909 0
 1305 0002 4368     		ldr	r3, [r0, #4]
 1306 0004 9A42     		cmp	r2, r3
 1307 0006 01D1     		bne	.L79
 911:..\FreeRTOS10/stream_buffer.c **** 	}
 1308              		.loc 1 911 0
 1309 0008 0120     		movs	r0, #1
 1310              	.LVL220:
 1311 000a 00E0     		b	.L78
 1312              	.LVL221:
 1313              	.L79:
 915:..\FreeRTOS10/stream_buffer.c **** 	}
 1314              		.loc 1 915 0
 1315 000c 0020     		movs	r0, #0
 1316              	.LVL222:
 1317              	.L78:
 919:..\FreeRTOS10/stream_buffer.c **** /*-----------------------------------------------------------*/
 1318              		.loc 1 919 0
 1319              		@ sp needed
 1320 000e 7047     		bx	lr
 1321              		.cfi_endproc
 1322              	.LFE44:
 1323              		.size	xStreamBufferIsEmpty, .-xStreamBufferIsEmpty
 1324              		.section	.text.xStreamBufferIsFull,"ax",%progbits
 1325              		.align	2
 1326              		.global	xStreamBufferIsFull
 1327              		.code	16
 1328              		.thumb_func
 1329              		.type	xStreamBufferIsFull, %function
 1330              	xStreamBufferIsFull:
 1331              	.LFB45:
 923:..\FreeRTOS10/stream_buffer.c **** BaseType_t xReturn;
 1332              		.loc 1 923 0
 1333              		.cfi_startproc
 1334              		@ args = 0, pretend = 0, frame = 0
 1335              		@ frame_needed = 0, uses_anonymous_args = 0
 1336              	.LVL223:
 1337 0000 10B5     		push	{r4, lr}
 1338              		.cfi_def_cfa_offset 8
 1339              		.cfi_offset 4, -8
 1340              		.cfi_offset 14, -4
ARM GAS  C:\Users\Xwx47\AppData\Local\Temp\ccZsRkco.s 			page 48


 1341              	.LVL224:
 934:..\FreeRTOS10/stream_buffer.c **** 	{
 1342              		.loc 1 934 0
 1343 0002 037F     		ldrb	r3, [r0, #28]
 1344 0004 DB07     		lsls	r3, r3, #31
 1345 0006 01D5     		bpl	.L83
 936:..\FreeRTOS10/stream_buffer.c **** 	}
 1346              		.loc 1 936 0
 1347 0008 0424     		movs	r4, #4
 1348 000a 00E0     		b	.L81
 1349              	.L83:
 940:..\FreeRTOS10/stream_buffer.c **** 	}
 1350              		.loc 1 940 0
 1351 000c 0024     		movs	r4, #0
 1352              	.L81:
 1353              	.LVL225:
 944:..\FreeRTOS10/stream_buffer.c **** 	{
 1354              		.loc 1 944 0
 1355 000e FFF7FEFF 		bl	xStreamBufferSpacesAvailable
 1356              	.LVL226:
 1357 0012 8442     		cmp	r4, r0
 1358 0014 01D3     		bcc	.L84
 946:..\FreeRTOS10/stream_buffer.c **** 	}
 1359              		.loc 1 946 0
 1360 0016 0120     		movs	r0, #1
 1361 0018 00E0     		b	.L82
 1362              	.L84:
 950:..\FreeRTOS10/stream_buffer.c **** 	}
 1363              		.loc 1 950 0
 1364 001a 0020     		movs	r0, #0
 1365              	.L82:
 1366              	.LVL227:
 954:..\FreeRTOS10/stream_buffer.c **** /*-----------------------------------------------------------*/
 1367              		.loc 1 954 0
 1368              		@ sp needed
 1369              	.LVL228:
 1370 001c 10BD     		pop	{r4, pc}
 1371              		.cfi_endproc
 1372              	.LFE45:
 1373              		.size	xStreamBufferIsFull, .-xStreamBufferIsFull
 1374 001e C046     		.section	.text.xStreamBufferSendCompletedFromISR,"ax",%progbits
 1375              		.align	2
 1376              		.global	xStreamBufferSendCompletedFromISR
 1377              		.code	16
 1378              		.thumb_func
 1379              		.type	xStreamBufferSendCompletedFromISR, %function
 1380              	xStreamBufferSendCompletedFromISR:
 1381              	.LFB46:
 958:..\FreeRTOS10/stream_buffer.c **** StreamBuffer_t * const pxStreamBuffer = ( StreamBuffer_t * ) xStreamBuffer; /*lint !e9087 !e9079 Sa
 1382              		.loc 1 958 0
 1383              		.cfi_startproc
 1384              		@ args = 0, pretend = 0, frame = 0
 1385              		@ frame_needed = 0, uses_anonymous_args = 0
 1386              	.LVL229:
 1387 0000 70B5     		push	{r4, r5, r6, lr}
 1388              		.cfi_def_cfa_offset 16
 1389              		.cfi_offset 4, -16
ARM GAS  C:\Users\Xwx47\AppData\Local\Temp\ccZsRkco.s 			page 49


 1390              		.cfi_offset 5, -12
 1391              		.cfi_offset 6, -8
 1392              		.cfi_offset 14, -4
 1393 0002 82B0     		sub	sp, sp, #8
 1394              		.cfi_def_cfa_offset 24
 1395 0004 0400     		movs	r4, r0
 1396 0006 0E00     		movs	r6, r1
 1397              	.LVL230:
 965:..\FreeRTOS10/stream_buffer.c **** 	{
 1398              		.loc 1 965 0
 1399 0008 FFF7FEFF 		bl	ulSetInterruptMaskFromISR
 1400              	.LVL231:
 1401 000c 0500     		movs	r5, r0
 1402              	.LVL232:
 967:..\FreeRTOS10/stream_buffer.c **** 		{
 1403              		.loc 1 967 0
 1404 000e 2369     		ldr	r3, [r4, #16]
 1405 0010 002B     		cmp	r3, #0
 1406 0012 0AD0     		beq	.L87
 969:..\FreeRTOS10/stream_buffer.c **** 										 ( uint32_t ) 0,
 1407              		.loc 1 969 0
 1408 0014 2069     		ldr	r0, [r4, #16]
 1409              	.LVL233:
 1410 0016 0096     		str	r6, [sp]
 1411 0018 0023     		movs	r3, #0
 1412 001a 0022     		movs	r2, #0
 1413 001c 0021     		movs	r1, #0
 1414 001e FFF7FEFF 		bl	xTaskGenericNotifyFromISR
 1415              	.LVL234:
 973:..\FreeRTOS10/stream_buffer.c **** 			xReturn = pdTRUE;
 1416              		.loc 1 973 0
 1417 0022 0023     		movs	r3, #0
 1418 0024 2361     		str	r3, [r4, #16]
 1419              	.LVL235:
 974:..\FreeRTOS10/stream_buffer.c **** 		}
 1420              		.loc 1 974 0
 1421 0026 0124     		movs	r4, #1
 1422              	.LVL236:
 1423 0028 00E0     		b	.L86
 1424              	.LVL237:
 1425              	.L87:
 978:..\FreeRTOS10/stream_buffer.c **** 		}
 1426              		.loc 1 978 0
 1427 002a 0024     		movs	r4, #0
 1428              	.LVL238:
 1429              	.L86:
 981:..\FreeRTOS10/stream_buffer.c **** 
 1430              		.loc 1 981 0
 1431 002c 2800     		movs	r0, r5
 1432 002e FFF7FEFF 		bl	vClearInterruptMaskFromISR
 1433              	.LVL239:
 984:..\FreeRTOS10/stream_buffer.c **** /*-----------------------------------------------------------*/
 1434              		.loc 1 984 0
 1435 0032 2000     		movs	r0, r4
 1436 0034 02B0     		add	sp, sp, #8
 1437              		@ sp needed
 1438              	.LVL240:
ARM GAS  C:\Users\Xwx47\AppData\Local\Temp\ccZsRkco.s 			page 50


 1439              	.LVL241:
 1440              	.LVL242:
 1441 0036 70BD     		pop	{r4, r5, r6, pc}
 1442              		.cfi_endproc
 1443              	.LFE46:
 1444              		.size	xStreamBufferSendCompletedFromISR, .-xStreamBufferSendCompletedFromISR
 1445              		.section	.text.xStreamBufferReceiveCompletedFromISR,"ax",%progbits
 1446              		.align	2
 1447              		.global	xStreamBufferReceiveCompletedFromISR
 1448              		.code	16
 1449              		.thumb_func
 1450              		.type	xStreamBufferReceiveCompletedFromISR, %function
 1451              	xStreamBufferReceiveCompletedFromISR:
 1452              	.LFB47:
 988:..\FreeRTOS10/stream_buffer.c **** StreamBuffer_t * const pxStreamBuffer = ( StreamBuffer_t * ) xStreamBuffer; /*lint !e9087 !e9079 Sa
 1453              		.loc 1 988 0
 1454              		.cfi_startproc
 1455              		@ args = 0, pretend = 0, frame = 0
 1456              		@ frame_needed = 0, uses_anonymous_args = 0
 1457              	.LVL243:
 1458 0000 70B5     		push	{r4, r5, r6, lr}
 1459              		.cfi_def_cfa_offset 16
 1460              		.cfi_offset 4, -16
 1461              		.cfi_offset 5, -12
 1462              		.cfi_offset 6, -8
 1463              		.cfi_offset 14, -4
 1464 0002 82B0     		sub	sp, sp, #8
 1465              		.cfi_def_cfa_offset 24
 1466 0004 0400     		movs	r4, r0
 1467 0006 0E00     		movs	r6, r1
 1468              	.LVL244:
 995:..\FreeRTOS10/stream_buffer.c **** 	{
 1469              		.loc 1 995 0
 1470 0008 FFF7FEFF 		bl	ulSetInterruptMaskFromISR
 1471              	.LVL245:
 1472 000c 0500     		movs	r5, r0
 1473              	.LVL246:
 997:..\FreeRTOS10/stream_buffer.c **** 		{
 1474              		.loc 1 997 0
 1475 000e 6369     		ldr	r3, [r4, #20]
 1476 0010 002B     		cmp	r3, #0
 1477 0012 0AD0     		beq	.L90
 999:..\FreeRTOS10/stream_buffer.c **** 										 ( uint32_t ) 0,
 1478              		.loc 1 999 0
 1479 0014 6069     		ldr	r0, [r4, #20]
 1480              	.LVL247:
 1481 0016 0096     		str	r6, [sp]
 1482 0018 0023     		movs	r3, #0
 1483 001a 0022     		movs	r2, #0
 1484 001c 0021     		movs	r1, #0
 1485 001e FFF7FEFF 		bl	xTaskGenericNotifyFromISR
 1486              	.LVL248:
1003:..\FreeRTOS10/stream_buffer.c **** 			xReturn = pdTRUE;
 1487              		.loc 1 1003 0
 1488 0022 0023     		movs	r3, #0
 1489 0024 6361     		str	r3, [r4, #20]
 1490              	.LVL249:
ARM GAS  C:\Users\Xwx47\AppData\Local\Temp\ccZsRkco.s 			page 51


1004:..\FreeRTOS10/stream_buffer.c **** 		}
 1491              		.loc 1 1004 0
 1492 0026 0124     		movs	r4, #1
 1493              	.LVL250:
 1494 0028 00E0     		b	.L89
 1495              	.LVL251:
 1496              	.L90:
1008:..\FreeRTOS10/stream_buffer.c **** 		}
 1497              		.loc 1 1008 0
 1498 002a 0024     		movs	r4, #0
 1499              	.LVL252:
 1500              	.L89:
1011:..\FreeRTOS10/stream_buffer.c **** 
 1501              		.loc 1 1011 0
 1502 002c 2800     		movs	r0, r5
 1503 002e FFF7FEFF 		bl	vClearInterruptMaskFromISR
 1504              	.LVL253:
1014:..\FreeRTOS10/stream_buffer.c **** /*-----------------------------------------------------------*/
 1505              		.loc 1 1014 0
 1506 0032 2000     		movs	r0, r4
 1507 0034 02B0     		add	sp, sp, #8
 1508              		@ sp needed
 1509              	.LVL254:
 1510              	.LVL255:
 1511              	.LVL256:
 1512 0036 70BD     		pop	{r4, r5, r6, pc}
 1513              		.cfi_endproc
 1514              	.LFE47:
 1515              		.size	xStreamBufferReceiveCompletedFromISR, .-xStreamBufferReceiveCompletedFromISR
 1516              		.text
 1517              	.Letext0:
 1518              		.file 2 "c:\\program files (x86)\\cypress\\psoc creator\\4.1\\psoc creator\\import\\gnu\\arm\\5.4.
 1519              		.file 3 "c:\\program files (x86)\\cypress\\psoc creator\\4.1\\psoc creator\\import\\gnu\\arm\\5.4.
 1520              		.file 4 "c:\\program files (x86)\\cypress\\psoc creator\\4.1\\psoc creator\\import\\gnu\\arm\\5.4.
 1521              		.file 5 "..\\FreeRTOS10\\portable\\GCC\\ARM_CM0/portmacro.h"
 1522              		.file 6 "..\\FreeRTOS10\\include/task.h"
 1523              		.file 7 "..\\FreeRTOS10\\include/stream_buffer.h"
 1524              		.file 8 "..\\FreeRTOS10\\include/portable.h"
 1525              		.section	.debug_info,"",%progbits
 1526              	.Ldebug_info0:
 1527 0000 B6100000 		.4byte	0x10b6
 1528 0004 0400     		.2byte	0x4
 1529 0006 00000000 		.4byte	.Ldebug_abbrev0
 1530 000a 04       		.byte	0x4
 1531 000b 01       		.uleb128 0x1
 1532 000c 7C010000 		.4byte	.LASF107
 1533 0010 0C       		.byte	0xc
 1534 0011 57050000 		.4byte	.LASF108
 1535 0015 85020000 		.4byte	.LASF109
 1536 0019 00000000 		.4byte	.Ldebug_ranges0+0
 1537 001d 00000000 		.4byte	0
 1538 0021 00000000 		.4byte	.Ldebug_line0
 1539 0025 02       		.uleb128 0x2
 1540 0026 01       		.byte	0x1
 1541 0027 06       		.byte	0x6
 1542 0028 65040000 		.4byte	.LASF0
 1543 002c 03       		.uleb128 0x3
ARM GAS  C:\Users\Xwx47\AppData\Local\Temp\ccZsRkco.s 			page 52


 1544 002d 7E030000 		.4byte	.LASF5
 1545 0031 02       		.byte	0x2
 1546 0032 1D       		.byte	0x1d
 1547 0033 37000000 		.4byte	0x37
 1548 0037 02       		.uleb128 0x2
 1549 0038 01       		.byte	0x1
 1550 0039 08       		.byte	0x8
 1551 003a F4030000 		.4byte	.LASF1
 1552 003e 02       		.uleb128 0x2
 1553 003f 02       		.byte	0x2
 1554 0040 05       		.byte	0x5
 1555 0041 89000000 		.4byte	.LASF2
 1556 0045 02       		.uleb128 0x2
 1557 0046 02       		.byte	0x2
 1558 0047 07       		.byte	0x7
 1559 0048 2C050000 		.4byte	.LASF3
 1560 004c 02       		.uleb128 0x2
 1561 004d 04       		.byte	0x4
 1562 004e 05       		.byte	0x5
 1563 004f 52030000 		.4byte	.LASF4
 1564 0053 03       		.uleb128 0x3
 1565 0054 19010000 		.4byte	.LASF6
 1566 0058 02       		.byte	0x2
 1567 0059 41       		.byte	0x41
 1568 005a 5E000000 		.4byte	0x5e
 1569 005e 02       		.uleb128 0x2
 1570 005f 04       		.byte	0x4
 1571 0060 07       		.byte	0x7
 1572 0061 ED050000 		.4byte	.LASF7
 1573 0065 02       		.uleb128 0x2
 1574 0066 08       		.byte	0x8
 1575 0067 05       		.byte	0x5
 1576 0068 FE020000 		.4byte	.LASF8
 1577 006c 02       		.uleb128 0x2
 1578 006d 08       		.byte	0x8
 1579 006e 07       		.byte	0x7
 1580 006f 8E040000 		.4byte	.LASF9
 1581 0073 04       		.uleb128 0x4
 1582 0074 04       		.byte	0x4
 1583 0075 05       		.byte	0x5
 1584 0076 696E7400 		.ascii	"int\000"
 1585 007a 02       		.uleb128 0x2
 1586 007b 04       		.byte	0x4
 1587 007c 07       		.byte	0x7
 1588 007d E0040000 		.4byte	.LASF10
 1589 0081 03       		.uleb128 0x3
 1590 0082 D3060000 		.4byte	.LASF11
 1591 0086 03       		.byte	0x3
 1592 0087 18       		.byte	0x18
 1593 0088 2C000000 		.4byte	0x2c
 1594 008c 03       		.uleb128 0x3
 1595 008d BE040000 		.4byte	.LASF12
 1596 0091 03       		.byte	0x3
 1597 0092 30       		.byte	0x30
 1598 0093 53000000 		.4byte	0x53
 1599 0097 03       		.uleb128 0x3
 1600 0098 93000000 		.4byte	.LASF13
ARM GAS  C:\Users\Xwx47\AppData\Local\Temp\ccZsRkco.s 			page 53


 1601 009c 04       		.byte	0x4
 1602 009d D8       		.byte	0xd8
 1603 009e 7A000000 		.4byte	0x7a
 1604 00a2 02       		.uleb128 0x2
 1605 00a3 08       		.byte	0x8
 1606 00a4 04       		.byte	0x4
 1607 00a5 E0030000 		.4byte	.LASF14
 1608 00a9 02       		.uleb128 0x2
 1609 00aa 04       		.byte	0x4
 1610 00ab 07       		.byte	0x7
 1611 00ac 9A000000 		.4byte	.LASF15
 1612 00b0 05       		.uleb128 0x5
 1613 00b1 04       		.byte	0x4
 1614 00b2 02       		.uleb128 0x2
 1615 00b3 01       		.byte	0x1
 1616 00b4 08       		.byte	0x8
 1617 00b5 52050000 		.4byte	.LASF16
 1618 00b9 02       		.uleb128 0x2
 1619 00ba 04       		.byte	0x4
 1620 00bb 04       		.byte	0x4
 1621 00bc DB020000 		.4byte	.LASF17
 1622 00c0 02       		.uleb128 0x2
 1623 00c1 08       		.byte	0x8
 1624 00c2 04       		.byte	0x4
 1625 00c3 24070000 		.4byte	.LASF18
 1626 00c7 03       		.uleb128 0x3
 1627 00c8 ED040000 		.4byte	.LASF19
 1628 00cc 05       		.byte	0x5
 1629 00cd 39       		.byte	0x39
 1630 00ce 4C000000 		.4byte	0x4c
 1631 00d2 03       		.uleb128 0x3
 1632 00d3 1A060000 		.4byte	.LASF20
 1633 00d7 05       		.byte	0x5
 1634 00d8 3A       		.byte	0x3a
 1635 00d9 5E000000 		.4byte	0x5e
 1636 00dd 03       		.uleb128 0x3
 1637 00de 12050000 		.4byte	.LASF21
 1638 00e2 05       		.byte	0x5
 1639 00e3 40       		.byte	0x40
 1640 00e4 8C000000 		.4byte	0x8c
 1641 00e8 06       		.uleb128 0x6
 1642 00e9 04       		.byte	0x4
 1643 00ea 81000000 		.4byte	0x81
 1644 00ee 03       		.uleb128 0x3
 1645 00ef BA000000 		.4byte	.LASF22
 1646 00f3 06       		.byte	0x6
 1647 00f4 3E       		.byte	0x3e
 1648 00f5 B0000000 		.4byte	0xb0
 1649 00f9 07       		.uleb128 0x7
 1650 00fa 01       		.byte	0x1
 1651 00fb 37000000 		.4byte	0x37
 1652 00ff 06       		.byte	0x6
 1653 0100 53       		.byte	0x53
 1654 0101 24010000 		.4byte	0x124
 1655 0105 08       		.uleb128 0x8
 1656 0106 20000000 		.4byte	.LASF23
 1657 010a 00       		.byte	0
ARM GAS  C:\Users\Xwx47\AppData\Local\Temp\ccZsRkco.s 			page 54


 1658 010b 08       		.uleb128 0x8
 1659 010c 6E020000 		.4byte	.LASF24
 1660 0110 01       		.byte	0x1
 1661 0111 08       		.uleb128 0x8
 1662 0112 C9070000 		.4byte	.LASF25
 1663 0116 02       		.byte	0x2
 1664 0117 08       		.uleb128 0x8
 1665 0118 75050000 		.4byte	.LASF26
 1666 011c 03       		.byte	0x3
 1667 011d 08       		.uleb128 0x8
 1668 011e 6E060000 		.4byte	.LASF27
 1669 0122 04       		.byte	0x4
 1670 0123 00       		.byte	0
 1671 0124 09       		.uleb128 0x9
 1672 0125 60000000 		.4byte	.LASF32
 1673 0129 08       		.byte	0x8
 1674 012a 06       		.byte	0x6
 1675 012b 5E       		.byte	0x5e
 1676 012c 49010000 		.4byte	0x149
 1677 0130 0A       		.uleb128 0xa
 1678 0131 23040000 		.4byte	.LASF28
 1679 0135 06       		.byte	0x6
 1680 0136 60       		.byte	0x60
 1681 0137 C7000000 		.4byte	0xc7
 1682 013b 00       		.byte	0
 1683 013c 0A       		.uleb128 0xa
 1684 013d 02040000 		.4byte	.LASF29
 1685 0141 06       		.byte	0x6
 1686 0142 61       		.byte	0x61
 1687 0143 DD000000 		.4byte	0xdd
 1688 0147 04       		.byte	0x4
 1689 0148 00       		.byte	0
 1690 0149 03       		.uleb128 0x3
 1691 014a 7F000000 		.4byte	.LASF30
 1692 014e 06       		.byte	0x6
 1693 014f 62       		.byte	0x62
 1694 0150 24010000 		.4byte	0x124
 1695 0154 03       		.uleb128 0x3
 1696 0155 BE060000 		.4byte	.LASF31
 1697 0159 07       		.byte	0x7
 1698 015a 3D       		.byte	0x3d
 1699 015b B0000000 		.4byte	0xb0
 1700 015f 09       		.uleb128 0x9
 1701 0160 39070000 		.4byte	.LASF33
 1702 0164 20       		.byte	0x20
 1703 0165 01       		.byte	0x1
 1704 0166 8A       		.byte	0x8a
 1705 0167 CC010000 		.4byte	0x1cc
 1706 016b 0A       		.uleb128 0xa
 1707 016c 3C060000 		.4byte	.LASF34
 1708 0170 01       		.byte	0x1
 1709 0171 8C       		.byte	0x8c
 1710 0172 CC010000 		.4byte	0x1cc
 1711 0176 00       		.byte	0
 1712 0177 0A       		.uleb128 0xa
 1713 0178 1E070000 		.4byte	.LASF35
 1714 017c 01       		.byte	0x1
ARM GAS  C:\Users\Xwx47\AppData\Local\Temp\ccZsRkco.s 			page 55


 1715 017d 8D       		.byte	0x8d
 1716 017e CC010000 		.4byte	0x1cc
 1717 0182 04       		.byte	0x4
 1718 0183 0A       		.uleb128 0xa
 1719 0184 EC030000 		.4byte	.LASF36
 1720 0188 01       		.byte	0x1
 1721 0189 8E       		.byte	0x8e
 1722 018a 97000000 		.4byte	0x97
 1723 018e 08       		.byte	0x8
 1724 018f 0A       		.uleb128 0xa
 1725 0190 C0050000 		.4byte	.LASF37
 1726 0194 01       		.byte	0x1
 1727 0195 8F       		.byte	0x8f
 1728 0196 97000000 		.4byte	0x97
 1729 019a 0C       		.byte	0xc
 1730 019b 0A       		.uleb128 0xa
 1731 019c 4F040000 		.4byte	.LASF38
 1732 01a0 01       		.byte	0x1
 1733 01a1 90       		.byte	0x90
 1734 01a2 D1010000 		.4byte	0x1d1
 1735 01a6 10       		.byte	0x10
 1736 01a7 0A       		.uleb128 0xa
 1737 01a8 AB060000 		.4byte	.LASF39
 1738 01ac 01       		.byte	0x1
 1739 01ad 91       		.byte	0x91
 1740 01ae D1010000 		.4byte	0x1d1
 1741 01b2 14       		.byte	0x14
 1742 01b3 0A       		.uleb128 0xa
 1743 01b4 35010000 		.4byte	.LASF40
 1744 01b8 01       		.byte	0x1
 1745 01b9 92       		.byte	0x92
 1746 01ba E8000000 		.4byte	0xe8
 1747 01be 18       		.byte	0x18
 1748 01bf 0A       		.uleb128 0xa
 1749 01c0 F8040000 		.4byte	.LASF41
 1750 01c4 01       		.byte	0x1
 1751 01c5 93       		.byte	0x93
 1752 01c6 81000000 		.4byte	0x81
 1753 01ca 1C       		.byte	0x1c
 1754 01cb 00       		.byte	0
 1755 01cc 0B       		.uleb128 0xb
 1756 01cd 97000000 		.4byte	0x97
 1757 01d1 0B       		.uleb128 0xb
 1758 01d2 EE000000 		.4byte	0xee
 1759 01d6 03       		.uleb128 0x3
 1760 01d7 D4070000 		.4byte	.LASF42
 1761 01db 01       		.byte	0x1
 1762 01dc 98       		.byte	0x98
 1763 01dd 5F010000 		.4byte	0x15f
 1764 01e1 0C       		.uleb128 0xc
 1765 01e2 AF050000 		.4byte	.LASF46
 1766 01e6 01       		.byte	0x1
 1767 01e7 5E04     		.2byte	0x45e
 1768 01e9 97000000 		.4byte	0x97
 1769 01ed 00000000 		.4byte	.LFB50
 1770 01f1 12000000 		.4byte	.LFE50-.LFB50
 1771 01f5 01       		.uleb128 0x1
ARM GAS  C:\Users\Xwx47\AppData\Local\Temp\ccZsRkco.s 			page 56


 1772 01f6 9C       		.byte	0x9c
 1773 01f7 1C020000 		.4byte	0x21c
 1774 01fb 0D       		.uleb128 0xd
 1775 01fc B0030000 		.4byte	.LASF43
 1776 0200 01       		.byte	0x1
 1777 0201 5E04     		.2byte	0x45e
 1778 0203 27020000 		.4byte	0x227
 1779 0207 00000000 		.4byte	.LLST0
 1780 020b 0E       		.uleb128 0xe
 1781 020c 45000000 		.4byte	.LASF49
 1782 0210 01       		.byte	0x1
 1783 0211 6104     		.2byte	0x461
 1784 0213 97000000 		.4byte	0x97
 1785 0217 21000000 		.4byte	.LLST1
 1786 021b 00       		.byte	0
 1787 021c 06       		.uleb128 0x6
 1788 021d 04       		.byte	0x4
 1789 021e 22020000 		.4byte	0x222
 1790 0222 0F       		.uleb128 0xf
 1791 0223 D6010000 		.4byte	0x1d6
 1792 0227 0F       		.uleb128 0xf
 1793 0228 1C020000 		.4byte	0x21c
 1794 022c 10       		.uleb128 0x10
 1795 022d 48070000 		.4byte	.LASF110
 1796 0231 01       		.byte	0x1
 1797 0232 7204     		.2byte	0x472
 1798 0234 00000000 		.4byte	.LFB51
 1799 0238 28000000 		.4byte	.LFE51-.LFB51
 1800 023c 01       		.uleb128 0x1
 1801 023d 9C       		.byte	0x9c
 1802 023e AD020000 		.4byte	0x2ad
 1803 0242 0D       		.uleb128 0xd
 1804 0243 B0030000 		.4byte	.LASF43
 1805 0247 01       		.byte	0x1
 1806 0248 7204     		.2byte	0x472
 1807 024a B3020000 		.4byte	0x2b3
 1808 024e 3F000000 		.4byte	.LLST2
 1809 0252 0D       		.uleb128 0xd
 1810 0253 35010000 		.4byte	.LASF40
 1811 0257 01       		.byte	0x1
 1812 0258 7304     		.2byte	0x473
 1813 025a B8020000 		.4byte	0x2b8
 1814 025e 6B000000 		.4byte	.LLST3
 1815 0262 0D       		.uleb128 0xd
 1816 0263 12040000 		.4byte	.LASF44
 1817 0267 01       		.byte	0x1
 1818 0268 7404     		.2byte	0x474
 1819 026a 97000000 		.4byte	0x97
 1820 026e 98000000 		.4byte	.LLST4
 1821 0272 0D       		.uleb128 0xd
 1822 0273 C0050000 		.4byte	.LASF37
 1823 0277 01       		.byte	0x1
 1824 0278 7504     		.2byte	0x475
 1825 027a 97000000 		.4byte	0x97
 1826 027e C5000000 		.4byte	.LLST5
 1827 0282 11       		.uleb128 0x11
 1828 0283 8C050000 		.4byte	.LASF45
ARM GAS  C:\Users\Xwx47\AppData\Local\Temp\ccZsRkco.s 			page 57


 1829 0287 01       		.byte	0x1
 1830 0288 7604     		.2byte	0x476
 1831 028a C7000000 		.4byte	0xc7
 1832 028e 02       		.uleb128 0x2
 1833 028f 91       		.byte	0x91
 1834 0290 00       		.sleb128 0
 1835 0291 12       		.uleb128 0x12
 1836 0292 12000000 		.4byte	.LVL8
 1837 0296 F90F0000 		.4byte	0xff9
 1838 029a 13       		.uleb128 0x13
 1839 029b 01       		.uleb128 0x1
 1840 029c 50       		.byte	0x50
 1841 029d 02       		.uleb128 0x2
 1842 029e 74       		.byte	0x74
 1843 029f 00       		.sleb128 0
 1844 02a0 13       		.uleb128 0x13
 1845 02a1 01       		.uleb128 0x1
 1846 02a2 51       		.byte	0x51
 1847 02a3 01       		.uleb128 0x1
 1848 02a4 30       		.byte	0x30
 1849 02a5 13       		.uleb128 0x13
 1850 02a6 01       		.uleb128 0x1
 1851 02a7 52       		.byte	0x52
 1852 02a8 02       		.uleb128 0x2
 1853 02a9 08       		.byte	0x8
 1854 02aa 20       		.byte	0x20
 1855 02ab 00       		.byte	0
 1856 02ac 00       		.byte	0
 1857 02ad 06       		.uleb128 0x6
 1858 02ae 04       		.byte	0x4
 1859 02af D6010000 		.4byte	0x1d6
 1860 02b3 0F       		.uleb128 0xf
 1861 02b4 AD020000 		.4byte	0x2ad
 1862 02b8 0F       		.uleb128 0xf
 1863 02b9 E8000000 		.4byte	0xe8
 1864 02bd 0C       		.uleb128 0xc
 1865 02be 26060000 		.4byte	.LASF47
 1866 02c2 01       		.byte	0x1
 1867 02c3 F903     		.2byte	0x3f9
 1868 02c5 97000000 		.4byte	0x97
 1869 02c9 00000000 		.4byte	.LFB48
 1870 02cd 44000000 		.4byte	.LFE48-.LFB48
 1871 02d1 01       		.uleb128 0x1
 1872 02d2 9C       		.byte	0x9c
 1873 02d3 60030000 		.4byte	0x360
 1874 02d7 0D       		.uleb128 0xd
 1875 02d8 B0030000 		.4byte	.LASF43
 1876 02dc 01       		.byte	0x1
 1877 02dd F903     		.2byte	0x3f9
 1878 02df B3020000 		.4byte	0x2b3
 1879 02e3 F2000000 		.4byte	.LLST6
 1880 02e7 0D       		.uleb128 0xd
 1881 02e8 7F070000 		.4byte	.LASF48
 1882 02ec 01       		.byte	0x1
 1883 02ed F903     		.2byte	0x3f9
 1884 02ef 60030000 		.4byte	0x360
 1885 02f3 1E010000 		.4byte	.LLST7
ARM GAS  C:\Users\Xwx47\AppData\Local\Temp\ccZsRkco.s 			page 58


 1886 02f7 0D       		.uleb128 0xd
 1887 02f8 45000000 		.4byte	.LASF49
 1888 02fc 01       		.byte	0x1
 1889 02fd F903     		.2byte	0x3f9
 1890 02ff 97000000 		.4byte	0x97
 1891 0303 3D010000 		.4byte	.LLST8
 1892 0307 0E       		.uleb128 0xe
 1893 0308 0F010000 		.4byte	.LASF50
 1894 030c 01       		.byte	0x1
 1895 030d FB03     		.2byte	0x3fb
 1896 030f 97000000 		.4byte	0x97
 1897 0313 66010000 		.4byte	.LLST9
 1898 0317 0E       		.uleb128 0xe
 1899 0318 6F010000 		.4byte	.LASF51
 1900 031c 01       		.byte	0x1
 1901 031d FB03     		.2byte	0x3fb
 1902 031f 97000000 		.4byte	0x97
 1903 0323 84010000 		.4byte	.LLST10
 1904 0327 14       		.uleb128 0x14
 1905 0328 22000000 		.4byte	.LVL19
 1906 032c 02100000 		.4byte	0x1002
 1907 0330 42030000 		.4byte	0x342
 1908 0334 13       		.uleb128 0x13
 1909 0335 01       		.uleb128 0x1
 1910 0336 51       		.byte	0x51
 1911 0337 03       		.uleb128 0x3
 1912 0338 91       		.byte	0x91
 1913 0339 64       		.sleb128 -28
 1914 033a 06       		.byte	0x6
 1915 033b 13       		.uleb128 0x13
 1916 033c 01       		.uleb128 0x1
 1917 033d 52       		.byte	0x52
 1918 033e 02       		.uleb128 0x2
 1919 033f 75       		.byte	0x75
 1920 0340 00       		.sleb128 0
 1921 0341 00       		.byte	0
 1922 0342 12       		.uleb128 0x12
 1923 0343 32000000 		.4byte	.LVL20
 1924 0347 02100000 		.4byte	0x1002
 1925 034b 13       		.uleb128 0x13
 1926 034c 01       		.uleb128 0x1
 1927 034d 51       		.byte	0x51
 1928 034e 06       		.uleb128 0x6
 1929 034f 91       		.byte	0x91
 1930 0350 64       		.sleb128 -28
 1931 0351 06       		.byte	0x6
 1932 0352 75       		.byte	0x75
 1933 0353 00       		.sleb128 0
 1934 0354 22       		.byte	0x22
 1935 0355 13       		.uleb128 0x13
 1936 0356 01       		.uleb128 0x1
 1937 0357 52       		.byte	0x52
 1938 0358 05       		.uleb128 0x5
 1939 0359 77       		.byte	0x77
 1940 035a 00       		.sleb128 0
 1941 035b 75       		.byte	0x75
 1942 035c 00       		.sleb128 0
ARM GAS  C:\Users\Xwx47\AppData\Local\Temp\ccZsRkco.s 			page 59


 1943 035d 1C       		.byte	0x1c
 1944 035e 00       		.byte	0
 1945 035f 00       		.byte	0
 1946 0360 06       		.uleb128 0x6
 1947 0361 04       		.byte	0x4
 1948 0362 66030000 		.4byte	0x366
 1949 0366 0F       		.uleb128 0xf
 1950 0367 81000000 		.4byte	0x81
 1951 036b 0C       		.uleb128 0xc
 1952 036c BF030000 		.4byte	.LASF52
 1953 0370 01       		.byte	0x1
 1954 0371 7C02     		.2byte	0x27c
 1955 0373 97000000 		.4byte	0x97
 1956 0377 00000000 		.4byte	.LFB40
 1957 037b 50000000 		.4byte	.LFE40-.LFB40
 1958 037f 01       		.uleb128 0x1
 1959 0380 9C       		.byte	0x9c
 1960 0381 24040000 		.4byte	0x424
 1961 0385 0D       		.uleb128 0xd
 1962 0386 B0030000 		.4byte	.LASF43
 1963 038a 01       		.byte	0x1
 1964 038b 7C02     		.2byte	0x27c
 1965 038d B3020000 		.4byte	0x2b3
 1966 0391 97010000 		.4byte	.LLST11
 1967 0395 0D       		.uleb128 0xd
 1968 0396 A3070000 		.4byte	.LASF53
 1969 039a 01       		.byte	0x1
 1970 039b 7D02     		.2byte	0x27d
 1971 039d 24040000 		.4byte	0x424
 1972 03a1 D9010000 		.4byte	.LLST12
 1973 03a5 0D       		.uleb128 0xd
 1974 03a6 24010000 		.4byte	.LASF54
 1975 03aa 01       		.byte	0x1
 1976 03ab 7E02     		.2byte	0x27e
 1977 03ad 97000000 		.4byte	0x97
 1978 03b1 1B020000 		.4byte	.LLST13
 1979 03b5 0D       		.uleb128 0xd
 1980 03b6 D3050000 		.4byte	.LASF55
 1981 03ba 01       		.byte	0x1
 1982 03bb 7F02     		.2byte	0x27f
 1983 03bd 97000000 		.4byte	0x97
 1984 03c1 83020000 		.4byte	.LLST14
 1985 03c5 11       		.uleb128 0x11
 1986 03c6 0C030000 		.4byte	.LASF56
 1987 03ca 01       		.byte	0x1
 1988 03cb 8002     		.2byte	0x280
 1989 03cd 97000000 		.4byte	0x97
 1990 03d1 02       		.uleb128 0x2
 1991 03d2 91       		.byte	0x91
 1992 03d3 00       		.sleb128 0
 1993 03d4 0E       		.uleb128 0xe
 1994 03d5 00000000 		.4byte	.LASF57
 1995 03d9 01       		.byte	0x1
 1996 03da 8202     		.2byte	0x282
 1997 03dc C7000000 		.4byte	0xc7
 1998 03e0 EF020000 		.4byte	.LLST15
 1999 03e4 0E       		.uleb128 0xe
ARM GAS  C:\Users\Xwx47\AppData\Local\Temp\ccZsRkco.s 			page 60


 2000 03e5 F2060000 		.4byte	.LASF58
 2001 03e9 01       		.byte	0x1
 2002 03ea 8302     		.2byte	0x283
 2003 03ec 97000000 		.4byte	0x97
 2004 03f0 25030000 		.4byte	.LLST16
 2005 03f4 14       		.uleb128 0x14
 2006 03f5 30000000 		.4byte	.LVL34
 2007 03f9 BD020000 		.4byte	0x2bd
 2008 03fd 0D040000 		.4byte	0x40d
 2009 0401 13       		.uleb128 0x13
 2010 0402 01       		.uleb128 0x1
 2011 0403 51       		.byte	0x51
 2012 0404 02       		.uleb128 0x2
 2013 0405 91       		.byte	0x91
 2014 0406 6C       		.sleb128 -20
 2015 0407 13       		.uleb128 0x13
 2016 0408 01       		.uleb128 0x1
 2017 0409 52       		.byte	0x52
 2018 040a 01       		.uleb128 0x1
 2019 040b 34       		.byte	0x34
 2020 040c 00       		.byte	0
 2021 040d 12       		.uleb128 0x12
 2022 040e 48000000 		.4byte	.LVL39
 2023 0412 BD020000 		.4byte	0x2bd
 2024 0416 13       		.uleb128 0x13
 2025 0417 01       		.uleb128 0x1
 2026 0418 50       		.byte	0x50
 2027 0419 02       		.uleb128 0x2
 2028 041a 74       		.byte	0x74
 2029 041b 00       		.sleb128 0
 2030 041c 13       		.uleb128 0x13
 2031 041d 01       		.uleb128 0x1
 2032 041e 51       		.byte	0x51
 2033 041f 02       		.uleb128 0x2
 2034 0420 75       		.byte	0x75
 2035 0421 00       		.sleb128 0
 2036 0422 00       		.byte	0
 2037 0423 00       		.byte	0
 2038 0424 06       		.uleb128 0x6
 2039 0425 04       		.byte	0x4
 2040 0426 2A040000 		.4byte	0x42a
 2041 042a 15       		.uleb128 0x15
 2042 042b 0C       		.uleb128 0xc
 2043 042c A3000000 		.4byte	.LASF59
 2044 0430 01       		.byte	0x1
 2045 0431 2704     		.2byte	0x427
 2046 0433 97000000 		.4byte	0x97
 2047 0437 00000000 		.4byte	.LFB49
 2048 043b 50000000 		.4byte	.LFE49-.LFB49
 2049 043f 01       		.uleb128 0x1
 2050 0440 9C       		.byte	0x9c
 2051 0441 EE040000 		.4byte	0x4ee
 2052 0445 0D       		.uleb128 0xd
 2053 0446 B0030000 		.4byte	.LASF43
 2054 044a 01       		.byte	0x1
 2055 044b 2704     		.2byte	0x427
 2056 044d AD020000 		.4byte	0x2ad
ARM GAS  C:\Users\Xwx47\AppData\Local\Temp\ccZsRkco.s 			page 61


 2057 0451 43030000 		.4byte	.LLST17
 2058 0455 0D       		.uleb128 0xd
 2059 0456 7F070000 		.4byte	.LASF48
 2060 045a 01       		.byte	0x1
 2061 045b 2704     		.2byte	0x427
 2062 045d E8000000 		.4byte	0xe8
 2063 0461 6F030000 		.4byte	.LLST18
 2064 0465 0D       		.uleb128 0xd
 2065 0466 64020000 		.4byte	.LASF60
 2066 046a 01       		.byte	0x1
 2067 046b 2704     		.2byte	0x427
 2068 046d 97000000 		.4byte	0x97
 2069 0471 8E030000 		.4byte	.LLST19
 2070 0475 0D       		.uleb128 0xd
 2071 0476 EC000000 		.4byte	.LASF61
 2072 047a 01       		.byte	0x1
 2073 047b 2704     		.2byte	0x427
 2074 047d 97000000 		.4byte	0x97
 2075 0481 AF030000 		.4byte	.LLST20
 2076 0485 0E       		.uleb128 0xe
 2077 0486 45000000 		.4byte	.LASF49
 2078 048a 01       		.byte	0x1
 2079 048b 2904     		.2byte	0x429
 2080 048d 97000000 		.4byte	0x97
 2081 0491 D0030000 		.4byte	.LLST21
 2082 0495 0E       		.uleb128 0xe
 2083 0496 6F010000 		.4byte	.LASF51
 2084 049a 01       		.byte	0x1
 2085 049b 2904     		.2byte	0x429
 2086 049d 97000000 		.4byte	0x97
 2087 04a1 EE030000 		.4byte	.LLST22
 2088 04a5 0E       		.uleb128 0xe
 2089 04a6 14070000 		.4byte	.LASF62
 2090 04aa 01       		.byte	0x1
 2091 04ab 2904     		.2byte	0x429
 2092 04ad 97000000 		.4byte	0x97
 2093 04b1 01040000 		.4byte	.LLST23
 2094 04b5 14       		.uleb128 0x14
 2095 04b6 2E000000 		.4byte	.LVL52
 2096 04ba 02100000 		.4byte	0x1002
 2097 04be D0040000 		.4byte	0x4d0
 2098 04c2 13       		.uleb128 0x13
 2099 04c3 01       		.uleb128 0x1
 2100 04c4 50       		.byte	0x50
 2101 04c5 03       		.uleb128 0x3
 2102 04c6 91       		.byte	0x91
 2103 04c7 64       		.sleb128 -28
 2104 04c8 06       		.byte	0x6
 2105 04c9 13       		.uleb128 0x13
 2106 04ca 01       		.uleb128 0x1
 2107 04cb 52       		.byte	0x52
 2108 04cc 02       		.uleb128 0x2
 2109 04cd 77       		.byte	0x77
 2110 04ce 00       		.sleb128 0
 2111 04cf 00       		.byte	0
 2112 04d0 12       		.uleb128 0x12
 2113 04d1 3E000000 		.4byte	.LVL53
ARM GAS  C:\Users\Xwx47\AppData\Local\Temp\ccZsRkco.s 			page 62


 2114 04d5 02100000 		.4byte	0x1002
 2115 04d9 13       		.uleb128 0x13
 2116 04da 01       		.uleb128 0x1
 2117 04db 50       		.byte	0x50
 2118 04dc 06       		.uleb128 0x6
 2119 04dd 91       		.byte	0x91
 2120 04de 64       		.sleb128 -28
 2121 04df 06       		.byte	0x6
 2122 04e0 77       		.byte	0x77
 2123 04e1 00       		.sleb128 0
 2124 04e2 22       		.byte	0x22
 2125 04e3 13       		.uleb128 0x13
 2126 04e4 01       		.uleb128 0x1
 2127 04e5 52       		.byte	0x52
 2128 04e6 05       		.uleb128 0x5
 2129 04e7 74       		.byte	0x74
 2130 04e8 00       		.sleb128 0
 2131 04e9 77       		.byte	0x77
 2132 04ea 00       		.sleb128 0
 2133 04eb 1C       		.byte	0x1c
 2134 04ec 00       		.byte	0
 2135 04ed 00       		.byte	0
 2136 04ee 0C       		.uleb128 0xc
 2137 04ef A5040000 		.4byte	.LASF63
 2138 04f3 01       		.byte	0x1
 2139 04f4 5103     		.2byte	0x351
 2140 04f6 97000000 		.4byte	0x97
 2141 04fa 00000000 		.4byte	.LFB43
 2142 04fe 4E000000 		.4byte	.LFE43-.LFB43
 2143 0502 01       		.uleb128 0x1
 2144 0503 9C       		.byte	0x9c
 2145 0504 C8050000 		.4byte	0x5c8
 2146 0508 0D       		.uleb128 0xd
 2147 0509 B0030000 		.4byte	.LASF43
 2148 050d 01       		.byte	0x1
 2149 050e 5103     		.2byte	0x351
 2150 0510 AD020000 		.4byte	0x2ad
 2151 0514 14040000 		.4byte	.LLST24
 2152 0518 0D       		.uleb128 0xd
 2153 0519 D7030000 		.4byte	.LASF64
 2154 051d 01       		.byte	0x1
 2155 051e 5203     		.2byte	0x352
 2156 0520 B0000000 		.4byte	0xb0
 2157 0524 56040000 		.4byte	.LLST25
 2158 0528 0D       		.uleb128 0xd
 2159 0529 0D000000 		.4byte	.LASF65
 2160 052d 01       		.byte	0x1
 2161 052e 5303     		.2byte	0x353
 2162 0530 97000000 		.4byte	0x97
 2163 0534 98040000 		.4byte	.LLST26
 2164 0538 0D       		.uleb128 0xd
 2165 0539 EC000000 		.4byte	.LASF61
 2166 053d 01       		.byte	0x1
 2167 053e 5403     		.2byte	0x354
 2168 0540 97000000 		.4byte	0x97
 2169 0544 DA040000 		.4byte	.LLST27
 2170 0548 11       		.uleb128 0x11
ARM GAS  C:\Users\Xwx47\AppData\Local\Temp\ccZsRkco.s 			page 63


 2171 0549 FF050000 		.4byte	.LASF66
 2172 054d 01       		.byte	0x1
 2173 054e 5503     		.2byte	0x355
 2174 0550 97000000 		.4byte	0x97
 2175 0554 02       		.uleb128 0x2
 2176 0555 91       		.byte	0x91
 2177 0556 00       		.sleb128 0
 2178 0557 0E       		.uleb128 0xe
 2179 0558 2B070000 		.4byte	.LASF67
 2180 055c 01       		.byte	0x1
 2181 055d 5703     		.2byte	0x357
 2182 055f 97000000 		.4byte	0x97
 2183 0563 F8040000 		.4byte	.LLST28
 2184 0567 16       		.uleb128 0x16
 2185 0568 54020000 		.4byte	.LASF68
 2186 056c 01       		.byte	0x1
 2187 056d 5703     		.2byte	0x357
 2188 056f 97000000 		.4byte	0x97
 2189 0573 01       		.uleb128 0x1
 2190 0574 50       		.byte	0x50
 2191 0575 16       		.uleb128 0x16
 2192 0576 FC000000 		.4byte	.LASF69
 2193 057a 01       		.byte	0x1
 2194 057b 5703     		.2byte	0x357
 2195 057d 97000000 		.4byte	0x97
 2196 0581 02       		.uleb128 0x2
 2197 0582 91       		.byte	0x91
 2198 0583 64       		.sleb128 -28
 2199 0584 14       		.uleb128 0x14
 2200 0585 24000000 		.4byte	.LVL65
 2201 0589 2B040000 		.4byte	0x42b
 2202 058d AB050000 		.4byte	0x5ab
 2203 0591 13       		.uleb128 0x13
 2204 0592 01       		.uleb128 0x1
 2205 0593 50       		.byte	0x50
 2206 0594 02       		.uleb128 0x2
 2207 0595 75       		.byte	0x75
 2208 0596 00       		.sleb128 0
 2209 0597 13       		.uleb128 0x13
 2210 0598 01       		.uleb128 0x1
 2211 0599 51       		.byte	0x51
 2212 059a 02       		.uleb128 0x2
 2213 059b 91       		.byte	0x91
 2214 059c 64       		.sleb128 -28
 2215 059d 13       		.uleb128 0x13
 2216 059e 01       		.uleb128 0x1
 2217 059f 52       		.byte	0x52
 2218 05a0 03       		.uleb128 0x3
 2219 05a1 91       		.byte	0x91
 2220 05a2 00       		.sleb128 0
 2221 05a3 06       		.byte	0x6
 2222 05a4 13       		.uleb128 0x13
 2223 05a5 01       		.uleb128 0x1
 2224 05a6 53       		.byte	0x53
 2225 05a7 02       		.uleb128 0x2
 2226 05a8 74       		.byte	0x74
 2227 05a9 00       		.sleb128 0
ARM GAS  C:\Users\Xwx47\AppData\Local\Temp\ccZsRkco.s 			page 64


 2228 05aa 00       		.byte	0
 2229 05ab 12       		.uleb128 0x12
 2230 05ac 46000000 		.4byte	.LVL69
 2231 05b0 2B040000 		.4byte	0x42b
 2232 05b4 13       		.uleb128 0x13
 2233 05b5 01       		.uleb128 0x1
 2234 05b6 50       		.byte	0x50
 2235 05b7 02       		.uleb128 0x2
 2236 05b8 75       		.byte	0x75
 2237 05b9 00       		.sleb128 0
 2238 05ba 13       		.uleb128 0x13
 2239 05bb 01       		.uleb128 0x1
 2240 05bc 51       		.byte	0x51
 2241 05bd 02       		.uleb128 0x2
 2242 05be 76       		.byte	0x76
 2243 05bf 00       		.sleb128 0
 2244 05c0 13       		.uleb128 0x13
 2245 05c1 01       		.uleb128 0x1
 2246 05c2 53       		.byte	0x53
 2247 05c3 02       		.uleb128 0x2
 2248 05c4 74       		.byte	0x74
 2249 05c5 00       		.sleb128 0
 2250 05c6 00       		.byte	0
 2251 05c7 00       		.byte	0
 2252 05c8 17       		.uleb128 0x17
 2253 05c9 2A000000 		.4byte	.LASF72
 2254 05cd 01       		.byte	0x1
 2255 05ce D8       		.byte	0xd8
 2256 05cf 54010000 		.4byte	0x154
 2257 05d3 00000000 		.4byte	.LFB32
 2258 05d7 2E000000 		.4byte	.LFE32-.LFB32
 2259 05db 01       		.uleb128 0x1
 2260 05dc 9C       		.byte	0x9c
 2261 05dd 5B060000 		.4byte	0x65b
 2262 05e1 18       		.uleb128 0x18
 2263 05e2 12040000 		.4byte	.LASF44
 2264 05e6 01       		.byte	0x1
 2265 05e7 D8       		.byte	0xd8
 2266 05e8 97000000 		.4byte	0x97
 2267 05ec 16050000 		.4byte	.LLST29
 2268 05f0 18       		.uleb128 0x18
 2269 05f1 C0050000 		.4byte	.LASF37
 2270 05f5 01       		.byte	0x1
 2271 05f6 D8       		.byte	0xd8
 2272 05f7 97000000 		.4byte	0x97
 2273 05fb 44050000 		.4byte	.LLST30
 2274 05ff 18       		.uleb128 0x18
 2275 0600 8C050000 		.4byte	.LASF45
 2276 0604 01       		.byte	0x1
 2277 0605 D8       		.byte	0xd8
 2278 0606 C7000000 		.4byte	0xc7
 2279 060a 62050000 		.4byte	.LLST31
 2280 060e 19       		.uleb128 0x19
 2281 060f 9D030000 		.4byte	.LASF70
 2282 0613 01       		.byte	0x1
 2283 0614 DA       		.byte	0xda
 2284 0615 E8000000 		.4byte	0xe8
ARM GAS  C:\Users\Xwx47\AppData\Local\Temp\ccZsRkco.s 			page 65


 2285 0619 8E050000 		.4byte	.LLST32
 2286 061d 14       		.uleb128 0x14
 2287 061e 16000000 		.4byte	.LVL77
 2288 0622 0B100000 		.4byte	0x100b
 2289 0626 31060000 		.4byte	0x631
 2290 062a 13       		.uleb128 0x13
 2291 062b 01       		.uleb128 0x1
 2292 062c 50       		.byte	0x50
 2293 062d 02       		.uleb128 0x2
 2294 062e 76       		.byte	0x76
 2295 062f 20       		.sleb128 32
 2296 0630 00       		.byte	0
 2297 0631 12       		.uleb128 0x12
 2298 0632 28000000 		.4byte	.LVL79
 2299 0636 2C020000 		.4byte	0x22c
 2300 063a 13       		.uleb128 0x13
 2301 063b 01       		.uleb128 0x1
 2302 063c 50       		.byte	0x50
 2303 063d 02       		.uleb128 0x2
 2304 063e 74       		.byte	0x74
 2305 063f 00       		.sleb128 0
 2306 0640 13       		.uleb128 0x13
 2307 0641 01       		.uleb128 0x1
 2308 0642 51       		.byte	0x51
 2309 0643 02       		.uleb128 0x2
 2310 0644 74       		.byte	0x74
 2311 0645 20       		.sleb128 32
 2312 0646 13       		.uleb128 0x13
 2313 0647 01       		.uleb128 0x1
 2314 0648 52       		.byte	0x52
 2315 0649 02       		.uleb128 0x2
 2316 064a 76       		.byte	0x76
 2317 064b 00       		.sleb128 0
 2318 064c 13       		.uleb128 0x13
 2319 064d 01       		.uleb128 0x1
 2320 064e 53       		.byte	0x53
 2321 064f 02       		.uleb128 0x2
 2322 0650 75       		.byte	0x75
 2323 0651 00       		.sleb128 0
 2324 0652 13       		.uleb128 0x13
 2325 0653 02       		.uleb128 0x2
 2326 0654 7D       		.byte	0x7d
 2327 0655 00       		.sleb128 0
 2328 0656 02       		.uleb128 0x2
 2329 0657 77       		.byte	0x77
 2330 0658 00       		.sleb128 0
 2331 0659 00       		.byte	0
 2332 065a 00       		.byte	0
 2333 065b 1A       		.uleb128 0x1a
 2334 065c 4C000000 		.4byte	.LASF111
 2335 0660 01       		.byte	0x1
 2336 0661 4C01     		.2byte	0x14c
 2337 0663 00000000 		.4byte	.LFB33
 2338 0667 18000000 		.4byte	.LFE33-.LFB33
 2339 066b 01       		.uleb128 0x1
 2340 066c 9C       		.byte	0x9c
 2341 066d BC060000 		.4byte	0x6bc
ARM GAS  C:\Users\Xwx47\AppData\Local\Temp\ccZsRkco.s 			page 66


 2342 0671 0D       		.uleb128 0xd
 2343 0672 77020000 		.4byte	.LASF71
 2344 0676 01       		.byte	0x1
 2345 0677 4C01     		.2byte	0x14c
 2346 0679 54010000 		.4byte	0x154
 2347 067d B7050000 		.4byte	.LLST33
 2348 0681 0E       		.uleb128 0xe
 2349 0682 B0030000 		.4byte	.LASF43
 2350 0686 01       		.byte	0x1
 2351 0687 4E01     		.2byte	0x14e
 2352 0689 AD020000 		.4byte	0x2ad
 2353 068d F1050000 		.4byte	.LLST34
 2354 0691 14       		.uleb128 0x14
 2355 0692 0C000000 		.4byte	.LVL86
 2356 0696 16100000 		.4byte	0x1016
 2357 069a A6060000 		.4byte	0x6a6
 2358 069e 13       		.uleb128 0x13
 2359 069f 01       		.uleb128 0x1
 2360 06a0 50       		.byte	0x50
 2361 06a1 03       		.uleb128 0x3
 2362 06a2 F3       		.byte	0xf3
 2363 06a3 01       		.uleb128 0x1
 2364 06a4 50       		.byte	0x50
 2365 06a5 00       		.byte	0
 2366 06a6 12       		.uleb128 0x12
 2367 06a7 16000000 		.4byte	.LVL88
 2368 06ab F90F0000 		.4byte	0xff9
 2369 06af 13       		.uleb128 0x13
 2370 06b0 01       		.uleb128 0x1
 2371 06b1 51       		.byte	0x51
 2372 06b2 01       		.uleb128 0x1
 2373 06b3 30       		.byte	0x30
 2374 06b4 13       		.uleb128 0x13
 2375 06b5 01       		.uleb128 0x1
 2376 06b6 52       		.byte	0x52
 2377 06b7 02       		.uleb128 0x2
 2378 06b8 08       		.byte	0x8
 2379 06b9 20       		.byte	0x20
 2380 06ba 00       		.byte	0
 2381 06bb 00       		.byte	0
 2382 06bc 1B       		.uleb128 0x1b
 2383 06bd DA050000 		.4byte	.LASF73
 2384 06c1 01       		.byte	0x1
 2385 06c2 6D01     		.2byte	0x16d
 2386 06c4 C7000000 		.4byte	0xc7
 2387 06c8 00000000 		.4byte	.LFB34
 2388 06cc 36000000 		.4byte	.LFE34-.LFB34
 2389 06d0 01       		.uleb128 0x1
 2390 06d1 9C       		.byte	0x9c
 2391 06d2 28070000 		.4byte	0x728
 2392 06d6 0D       		.uleb128 0xd
 2393 06d7 77020000 		.4byte	.LASF71
 2394 06db 01       		.byte	0x1
 2395 06dc 6D01     		.2byte	0x16d
 2396 06de 54010000 		.4byte	0x154
 2397 06e2 2B060000 		.4byte	.LLST35
 2398 06e6 0E       		.uleb128 0xe
ARM GAS  C:\Users\Xwx47\AppData\Local\Temp\ccZsRkco.s 			page 67


 2399 06e7 B0030000 		.4byte	.LASF43
 2400 06eb 01       		.byte	0x1
 2401 06ec 6F01     		.2byte	0x16f
 2402 06ee B3020000 		.4byte	0x2b3
 2403 06f2 7E060000 		.4byte	.LLST36
 2404 06f6 0E       		.uleb128 0xe
 2405 06f7 F2060000 		.4byte	.LASF58
 2406 06fb 01       		.byte	0x1
 2407 06fc 7001     		.2byte	0x170
 2408 06fe C7000000 		.4byte	0xc7
 2409 0702 D1060000 		.4byte	.LLST37
 2410 0706 0E       		.uleb128 0xe
 2411 0707 8C050000 		.4byte	.LASF45
 2412 070b 01       		.byte	0x1
 2413 070c 7001     		.2byte	0x170
 2414 070e C7000000 		.4byte	0xc7
 2415 0712 08070000 		.4byte	.LLST38
 2416 0716 12       		.uleb128 0x12
 2417 0717 28000000 		.4byte	.LVL93
 2418 071b 2C020000 		.4byte	0x22c
 2419 071f 13       		.uleb128 0x13
 2420 0720 01       		.uleb128 0x1
 2421 0721 50       		.byte	0x50
 2422 0722 03       		.uleb128 0x3
 2423 0723 F3       		.byte	0xf3
 2424 0724 01       		.uleb128 0x1
 2425 0725 50       		.byte	0x50
 2426 0726 00       		.byte	0
 2427 0727 00       		.byte	0
 2428 0728 1B       		.uleb128 0x1b
 2429 0729 32040000 		.4byte	.LASF74
 2430 072d 01       		.byte	0x1
 2431 072e A301     		.2byte	0x1a3
 2432 0730 C7000000 		.4byte	0xc7
 2433 0734 00000000 		.4byte	.LFB35
 2434 0738 16000000 		.4byte	.LFE35-.LFB35
 2435 073c 01       		.uleb128 0x1
 2436 073d 9C       		.byte	0x9c
 2437 073e 83070000 		.4byte	0x783
 2438 0742 0D       		.uleb128 0xd
 2439 0743 77020000 		.4byte	.LASF71
 2440 0747 01       		.byte	0x1
 2441 0748 A301     		.2byte	0x1a3
 2442 074a 54010000 		.4byte	0x154
 2443 074e 27070000 		.4byte	.LLST39
 2444 0752 0D       		.uleb128 0xd
 2445 0753 5B030000 		.4byte	.LASF75
 2446 0757 01       		.byte	0x1
 2447 0758 A301     		.2byte	0x1a3
 2448 075a 97000000 		.4byte	0x97
 2449 075e 61070000 		.4byte	.LLST40
 2450 0762 0E       		.uleb128 0xe
 2451 0763 B0030000 		.4byte	.LASF43
 2452 0767 01       		.byte	0x1
 2453 0768 A501     		.2byte	0x1a5
 2454 076a B3020000 		.4byte	0x2b3
 2455 076e 7F070000 		.4byte	.LLST41
ARM GAS  C:\Users\Xwx47\AppData\Local\Temp\ccZsRkco.s 			page 68


 2456 0772 0E       		.uleb128 0xe
 2457 0773 F2060000 		.4byte	.LASF58
 2458 0777 01       		.byte	0x1
 2459 0778 A601     		.2byte	0x1a6
 2460 077a C7000000 		.4byte	0xc7
 2461 077e B9070000 		.4byte	.LLST42
 2462 0782 00       		.byte	0
 2463 0783 1B       		.uleb128 0x1b
 2464 0784 71040000 		.4byte	.LASF76
 2465 0788 01       		.byte	0x1
 2466 0789 C001     		.2byte	0x1c0
 2467 078b 97000000 		.4byte	0x97
 2468 078f 00000000 		.4byte	.LFB36
 2469 0793 14000000 		.4byte	.LFE36-.LFB36
 2470 0797 01       		.uleb128 0x1
 2471 0798 9C       		.byte	0x9c
 2472 0799 CE070000 		.4byte	0x7ce
 2473 079d 0D       		.uleb128 0xd
 2474 079e 77020000 		.4byte	.LASF71
 2475 07a2 01       		.byte	0x1
 2476 07a3 C001     		.2byte	0x1c0
 2477 07a5 54010000 		.4byte	0x154
 2478 07a9 D8070000 		.4byte	.LLST43
 2479 07ad 0E       		.uleb128 0xe
 2480 07ae B0030000 		.4byte	.LASF43
 2481 07b2 01       		.byte	0x1
 2482 07b3 C201     		.2byte	0x1c2
 2483 07b5 27020000 		.4byte	0x227
 2484 07b9 F9070000 		.4byte	.LLST44
 2485 07bd 0E       		.uleb128 0xe
 2486 07be D3050000 		.4byte	.LASF55
 2487 07c2 01       		.byte	0x1
 2488 07c3 C301     		.2byte	0x1c3
 2489 07c5 97000000 		.4byte	0x97
 2490 07c9 1A080000 		.4byte	.LLST45
 2491 07cd 00       		.byte	0
 2492 07ce 1B       		.uleb128 0x1b
 2493 07cf 87070000 		.4byte	.LASF77
 2494 07d3 01       		.byte	0x1
 2495 07d4 D801     		.2byte	0x1d8
 2496 07d6 97000000 		.4byte	0x97
 2497 07da 00000000 		.4byte	.LFB37
 2498 07de 08000000 		.4byte	.LFE37-.LFB37
 2499 07e2 01       		.uleb128 0x1
 2500 07e3 9C       		.byte	0x9c
 2501 07e4 28080000 		.4byte	0x828
 2502 07e8 0D       		.uleb128 0xd
 2503 07e9 77020000 		.4byte	.LASF71
 2504 07ed 01       		.byte	0x1
 2505 07ee D801     		.2byte	0x1d8
 2506 07f0 54010000 		.4byte	0x154
 2507 07f4 38080000 		.4byte	.LLST46
 2508 07f8 0E       		.uleb128 0xe
 2509 07f9 B0030000 		.4byte	.LASF43
 2510 07fd 01       		.byte	0x1
 2511 07fe DA01     		.2byte	0x1da
 2512 0800 27020000 		.4byte	0x227
ARM GAS  C:\Users\Xwx47\AppData\Local\Temp\ccZsRkco.s 			page 69


 2513 0804 59080000 		.4byte	.LLST47
 2514 0808 16       		.uleb128 0x16
 2515 0809 F2060000 		.4byte	.LASF58
 2516 080d 01       		.byte	0x1
 2517 080e DB01     		.2byte	0x1db
 2518 0810 97000000 		.4byte	0x97
 2519 0814 01       		.uleb128 0x1
 2520 0815 50       		.byte	0x50
 2521 0816 12       		.uleb128 0x12
 2522 0817 06000000 		.4byte	.LVL112
 2523 081b E1010000 		.4byte	0x1e1
 2524 081f 13       		.uleb128 0x13
 2525 0820 01       		.uleb128 0x1
 2526 0821 50       		.byte	0x50
 2527 0822 03       		.uleb128 0x3
 2528 0823 F3       		.byte	0xf3
 2529 0824 01       		.uleb128 0x1
 2530 0825 50       		.byte	0x50
 2531 0826 00       		.byte	0
 2532 0827 00       		.byte	0
 2533 0828 1B       		.uleb128 0x1b
 2534 0829 00050000 		.4byte	.LASF78
 2535 082d 01       		.byte	0x1
 2536 082e E401     		.2byte	0x1e4
 2537 0830 97000000 		.4byte	0x97
 2538 0834 00000000 		.4byte	.LFB38
 2539 0838 BA000000 		.4byte	.LFE38-.LFB38
 2540 083c 01       		.uleb128 0x1
 2541 083d 9C       		.byte	0x9c
 2542 083e EE090000 		.4byte	0x9ee
 2543 0842 0D       		.uleb128 0xd
 2544 0843 77020000 		.4byte	.LASF71
 2545 0847 01       		.byte	0x1
 2546 0848 E401     		.2byte	0x1e4
 2547 084a 54010000 		.4byte	0x154
 2548 084e 7A080000 		.4byte	.LLST48
 2549 0852 0D       		.uleb128 0xd
 2550 0853 A3070000 		.4byte	.LASF53
 2551 0857 01       		.byte	0x1
 2552 0858 E501     		.2byte	0x1e5
 2553 085a 24040000 		.4byte	0x424
 2554 085e BC080000 		.4byte	.LLST49
 2555 0862 0D       		.uleb128 0xd
 2556 0863 24010000 		.4byte	.LASF54
 2557 0867 01       		.byte	0x1
 2558 0868 E601     		.2byte	0x1e6
 2559 086a 97000000 		.4byte	0x97
 2560 086e F2080000 		.4byte	.LLST50
 2561 0872 0D       		.uleb128 0xd
 2562 0873 F1020000 		.4byte	.LASF79
 2563 0877 01       		.byte	0x1
 2564 0878 E701     		.2byte	0x1e7
 2565 087a DD000000 		.4byte	0xdd
 2566 087e 34090000 		.4byte	.LLST51
 2567 0882 0E       		.uleb128 0xe
 2568 0883 B0030000 		.4byte	.LASF43
 2569 0887 01       		.byte	0x1
ARM GAS  C:\Users\Xwx47\AppData\Local\Temp\ccZsRkco.s 			page 70


 2570 0888 E901     		.2byte	0x1e9
 2571 088a B3020000 		.4byte	0x2b3
 2572 088e 6B090000 		.4byte	.LLST52
 2573 0892 0E       		.uleb128 0xe
 2574 0893 F2060000 		.4byte	.LASF58
 2575 0897 01       		.byte	0x1
 2576 0898 EA01     		.2byte	0x1ea
 2577 089a 97000000 		.4byte	0x97
 2578 089e AD090000 		.4byte	.LLST53
 2579 08a2 0E       		.uleb128 0xe
 2580 08a3 D3050000 		.4byte	.LASF55
 2581 08a7 01       		.byte	0x1
 2582 08a8 EA01     		.2byte	0x1ea
 2583 08aa 97000000 		.4byte	0x97
 2584 08ae D6090000 		.4byte	.LLST54
 2585 08b2 0E       		.uleb128 0xe
 2586 08b3 0C030000 		.4byte	.LASF56
 2587 08b7 01       		.byte	0x1
 2588 08b8 EB01     		.2byte	0x1eb
 2589 08ba 97000000 		.4byte	0x97
 2590 08be 2D0A0000 		.4byte	.LLST55
 2591 08c2 16       		.uleb128 0x16
 2592 08c3 A2060000 		.4byte	.LASF80
 2593 08c7 01       		.byte	0x1
 2594 08c8 EC01     		.2byte	0x1ec
 2595 08ca 49010000 		.4byte	0x149
 2596 08ce 02       		.uleb128 0x2
 2597 08cf 91       		.byte	0x91
 2598 08d0 60       		.sleb128 -32
 2599 08d1 14       		.uleb128 0x14
 2600 08d2 24000000 		.4byte	.LVL120
 2601 08d6 21100000 		.4byte	0x1021
 2602 08da E5080000 		.4byte	0x8e5
 2603 08de 13       		.uleb128 0x13
 2604 08df 01       		.uleb128 0x1
 2605 08e0 50       		.byte	0x50
 2606 08e1 02       		.uleb128 0x2
 2607 08e2 91       		.byte	0x91
 2608 08e3 60       		.sleb128 -32
 2609 08e4 00       		.byte	0
 2610 08e5 1C       		.uleb128 0x1c
 2611 08e6 28000000 		.4byte	.LVL121
 2612 08ea 2D100000 		.4byte	0x102d
 2613 08ee 14       		.uleb128 0x14
 2614 08ef 2E000000 		.4byte	.LVL122
 2615 08f3 83070000 		.4byte	0x783
 2616 08f7 02090000 		.4byte	0x902
 2617 08fb 13       		.uleb128 0x13
 2618 08fc 01       		.uleb128 0x1
 2619 08fd 50       		.byte	0x50
 2620 08fe 02       		.uleb128 0x2
 2621 08ff 74       		.byte	0x74
 2622 0900 00       		.sleb128 0
 2623 0901 00       		.byte	0
 2624 0902 14       		.uleb128 0x14
 2625 0903 3A000000 		.4byte	.LVL125
 2626 0907 38100000 		.4byte	0x1038
ARM GAS  C:\Users\Xwx47\AppData\Local\Temp\ccZsRkco.s 			page 71


 2627 090b 15090000 		.4byte	0x915
 2628 090f 13       		.uleb128 0x13
 2629 0910 01       		.uleb128 0x1
 2630 0911 50       		.byte	0x50
 2631 0912 01       		.uleb128 0x1
 2632 0913 30       		.byte	0x30
 2633 0914 00       		.byte	0
 2634 0915 1C       		.uleb128 0x1c
 2635 0916 3E000000 		.4byte	.LVL126
 2636 091a 44100000 		.4byte	0x1044
 2637 091e 1C       		.uleb128 0x1c
 2638 091f 44000000 		.4byte	.LVL127
 2639 0923 50100000 		.4byte	0x1050
 2640 0927 14       		.uleb128 0x14
 2641 0928 52000000 		.4byte	.LVL128
 2642 092c 5B100000 		.4byte	0x105b
 2643 0930 45090000 		.4byte	0x945
 2644 0934 13       		.uleb128 0x13
 2645 0935 01       		.uleb128 0x1
 2646 0936 50       		.byte	0x50
 2647 0937 01       		.uleb128 0x1
 2648 0938 30       		.byte	0x30
 2649 0939 13       		.uleb128 0x13
 2650 093a 01       		.uleb128 0x1
 2651 093b 51       		.byte	0x51
 2652 093c 02       		.uleb128 0x2
 2653 093d 09       		.byte	0x9
 2654 093e FF       		.byte	0xff
 2655 093f 13       		.uleb128 0x13
 2656 0940 01       		.uleb128 0x1
 2657 0941 52       		.byte	0x52
 2658 0942 01       		.uleb128 0x1
 2659 0943 30       		.byte	0x30
 2660 0944 00       		.byte	0
 2661 0945 14       		.uleb128 0x14
 2662 0946 5E000000 		.4byte	.LVL130
 2663 094a 67100000 		.4byte	0x1067
 2664 094e 5F090000 		.4byte	0x95f
 2665 0952 13       		.uleb128 0x13
 2666 0953 01       		.uleb128 0x1
 2667 0954 50       		.byte	0x50
 2668 0955 02       		.uleb128 0x2
 2669 0956 91       		.byte	0x91
 2670 0957 60       		.sleb128 -32
 2671 0958 13       		.uleb128 0x13
 2672 0959 01       		.uleb128 0x1
 2673 095a 51       		.byte	0x51
 2674 095b 02       		.uleb128 0x2
 2675 095c 91       		.byte	0x91
 2676 095d 5C       		.sleb128 -36
 2677 095e 00       		.byte	0
 2678 095f 1C       		.uleb128 0x1c
 2679 0960 68000000 		.4byte	.LVL132
 2680 0964 50100000 		.4byte	0x1050
 2681 0968 14       		.uleb128 0x14
 2682 0969 76000000 		.4byte	.LVL135
 2683 096d 83070000 		.4byte	0x783
ARM GAS  C:\Users\Xwx47\AppData\Local\Temp\ccZsRkco.s 			page 72


 2684 0971 7C090000 		.4byte	0x97c
 2685 0975 13       		.uleb128 0x13
 2686 0976 01       		.uleb128 0x1
 2687 0977 50       		.byte	0x50
 2688 0978 02       		.uleb128 0x2
 2689 0979 74       		.byte	0x74
 2690 097a 00       		.sleb128 0
 2691 097b 00       		.byte	0
 2692 097c 14       		.uleb128 0x14
 2693 097d 86000000 		.4byte	.LVL137
 2694 0981 6B030000 		.4byte	0x36b
 2695 0985 AA090000 		.4byte	0x9aa
 2696 0989 13       		.uleb128 0x13
 2697 098a 01       		.uleb128 0x1
 2698 098b 50       		.byte	0x50
 2699 098c 02       		.uleb128 0x2
 2700 098d 74       		.byte	0x74
 2701 098e 00       		.sleb128 0
 2702 098f 13       		.uleb128 0x13
 2703 0990 01       		.uleb128 0x1
 2704 0991 51       		.byte	0x51
 2705 0992 03       		.uleb128 0x3
 2706 0993 91       		.byte	0x91
 2707 0994 58       		.sleb128 -40
 2708 0995 06       		.byte	0x6
 2709 0996 13       		.uleb128 0x13
 2710 0997 01       		.uleb128 0x1
 2711 0998 52       		.byte	0x52
 2712 0999 02       		.uleb128 0x2
 2713 099a 76       		.byte	0x76
 2714 099b 00       		.sleb128 0
 2715 099c 13       		.uleb128 0x13
 2716 099d 01       		.uleb128 0x1
 2717 099e 53       		.byte	0x53
 2718 099f 02       		.uleb128 0x2
 2719 09a0 75       		.byte	0x75
 2720 09a1 00       		.sleb128 0
 2721 09a2 13       		.uleb128 0x13
 2722 09a3 02       		.uleb128 0x2
 2723 09a4 7D       		.byte	0x7d
 2724 09a5 00       		.sleb128 0
 2725 09a6 02       		.uleb128 0x2
 2726 09a7 77       		.byte	0x77
 2727 09a8 00       		.sleb128 0
 2728 09a9 00       		.byte	0
 2729 09aa 14       		.uleb128 0x14
 2730 09ab 90000000 		.4byte	.LVL140
 2731 09af E1010000 		.4byte	0x1e1
 2732 09b3 BE090000 		.4byte	0x9be
 2733 09b7 13       		.uleb128 0x13
 2734 09b8 01       		.uleb128 0x1
 2735 09b9 50       		.byte	0x50
 2736 09ba 02       		.uleb128 0x2
 2737 09bb 74       		.byte	0x74
 2738 09bc 00       		.sleb128 0
 2739 09bd 00       		.byte	0
 2740 09be 1C       		.uleb128 0x1c
ARM GAS  C:\Users\Xwx47\AppData\Local\Temp\ccZsRkco.s 			page 73


 2741 09bf 9A000000 		.4byte	.LVL141
 2742 09c3 73100000 		.4byte	0x1073
 2743 09c7 14       		.uleb128 0x14
 2744 09c8 AC000000 		.4byte	.LVL142
 2745 09cc 7F100000 		.4byte	0x107f
 2746 09d0 E4090000 		.4byte	0x9e4
 2747 09d4 13       		.uleb128 0x13
 2748 09d5 01       		.uleb128 0x1
 2749 09d6 51       		.byte	0x51
 2750 09d7 01       		.uleb128 0x1
 2751 09d8 30       		.byte	0x30
 2752 09d9 13       		.uleb128 0x13
 2753 09da 01       		.uleb128 0x1
 2754 09db 52       		.byte	0x52
 2755 09dc 01       		.uleb128 0x1
 2756 09dd 30       		.byte	0x30
 2757 09de 13       		.uleb128 0x13
 2758 09df 01       		.uleb128 0x1
 2759 09e0 53       		.byte	0x53
 2760 09e1 01       		.uleb128 0x1
 2761 09e2 30       		.byte	0x30
 2762 09e3 00       		.byte	0
 2763 09e4 1C       		.uleb128 0x1c
 2764 09e5 B4000000 		.4byte	.LVL143
 2765 09e9 8B100000 		.4byte	0x108b
 2766 09ed 00       		.byte	0
 2767 09ee 1B       		.uleb128 0x1b
 2768 09ef C7040000 		.4byte	.LASF81
 2769 09f3 01       		.byte	0x1
 2770 09f4 4902     		.2byte	0x249
 2771 09f6 97000000 		.4byte	0x97
 2772 09fa 00000000 		.4byte	.LFB39
 2773 09fe 68000000 		.4byte	.LFE39-.LFB39
 2774 0a02 01       		.uleb128 0x1
 2775 0a03 9C       		.byte	0x9c
 2776 0a04 300B0000 		.4byte	0xb30
 2777 0a08 0D       		.uleb128 0xd
 2778 0a09 77020000 		.4byte	.LASF71
 2779 0a0d 01       		.byte	0x1
 2780 0a0e 4902     		.2byte	0x249
 2781 0a10 54010000 		.4byte	0x154
 2782 0a14 610A0000 		.4byte	.LLST56
 2783 0a18 0D       		.uleb128 0xd
 2784 0a19 A3070000 		.4byte	.LASF53
 2785 0a1d 01       		.byte	0x1
 2786 0a1e 4A02     		.2byte	0x24a
 2787 0a20 24040000 		.4byte	0x424
 2788 0a24 8D0A0000 		.4byte	.LLST57
 2789 0a28 0D       		.uleb128 0xd
 2790 0a29 24010000 		.4byte	.LASF54
 2791 0a2d 01       		.byte	0x1
 2792 0a2e 4B02     		.2byte	0x24b
 2793 0a30 97000000 		.4byte	0x97
 2794 0a34 B90A0000 		.4byte	.LLST58
 2795 0a38 0D       		.uleb128 0xd
 2796 0a39 FA060000 		.4byte	.LASF82
 2797 0a3d 01       		.byte	0x1
ARM GAS  C:\Users\Xwx47\AppData\Local\Temp\ccZsRkco.s 			page 74


 2798 0a3e 4C02     		.2byte	0x24c
 2799 0a40 360B0000 		.4byte	0xb36
 2800 0a44 E50A0000 		.4byte	.LLST59
 2801 0a48 0E       		.uleb128 0xe
 2802 0a49 B0030000 		.4byte	.LASF43
 2803 0a4d 01       		.byte	0x1
 2804 0a4e 4E02     		.2byte	0x24e
 2805 0a50 B3020000 		.4byte	0x2b3
 2806 0a54 040B0000 		.4byte	.LLST60
 2807 0a58 0E       		.uleb128 0xe
 2808 0a59 F2060000 		.4byte	.LASF58
 2809 0a5d 01       		.byte	0x1
 2810 0a5e 4F02     		.2byte	0x24f
 2811 0a60 97000000 		.4byte	0x97
 2812 0a64 300B0000 		.4byte	.LLST61
 2813 0a68 0E       		.uleb128 0xe
 2814 0a69 D3050000 		.4byte	.LASF55
 2815 0a6d 01       		.byte	0x1
 2816 0a6e 4F02     		.2byte	0x24f
 2817 0a70 97000000 		.4byte	0x97
 2818 0a74 590B0000 		.4byte	.LLST62
 2819 0a78 0E       		.uleb128 0xe
 2820 0a79 0C030000 		.4byte	.LASF56
 2821 0a7d 01       		.byte	0x1
 2822 0a7e 5002     		.2byte	0x250
 2823 0a80 97000000 		.4byte	0x97
 2824 0a84 770B0000 		.4byte	.LLST63
 2825 0a88 1D       		.uleb128 0x1d
 2826 0a89 3C000000 		.4byte	.LBB2
 2827 0a8d 26000000 		.4byte	.LBE2-.LBB2
 2828 0a91 E40A0000 		.4byte	0xae4
 2829 0a95 0E       		.uleb128 0xe
 2830 0a96 DB060000 		.4byte	.LASF83
 2831 0a9a 01       		.byte	0x1
 2832 0a9b 6A02     		.2byte	0x26a
 2833 0a9d D2000000 		.4byte	0xd2
 2834 0aa1 AB0B0000 		.4byte	.LLST64
 2835 0aa5 1C       		.uleb128 0x1c
 2836 0aa6 40000000 		.4byte	.LVL162
 2837 0aaa 97100000 		.4byte	0x1097
 2838 0aae 14       		.uleb128 0x14
 2839 0aaf 58000000 		.4byte	.LVL165
 2840 0ab3 A2100000 		.4byte	0x10a2
 2841 0ab7 D30A0000 		.4byte	0xad3
 2842 0abb 13       		.uleb128 0x13
 2843 0abc 01       		.uleb128 0x1
 2844 0abd 51       		.byte	0x51
 2845 0abe 01       		.uleb128 0x1
 2846 0abf 30       		.byte	0x30
 2847 0ac0 13       		.uleb128 0x13
 2848 0ac1 01       		.uleb128 0x1
 2849 0ac2 52       		.byte	0x52
 2850 0ac3 01       		.uleb128 0x1
 2851 0ac4 30       		.byte	0x30
 2852 0ac5 13       		.uleb128 0x13
 2853 0ac6 01       		.uleb128 0x1
 2854 0ac7 53       		.byte	0x53
ARM GAS  C:\Users\Xwx47\AppData\Local\Temp\ccZsRkco.s 			page 75


 2855 0ac8 01       		.uleb128 0x1
 2856 0ac9 30       		.byte	0x30
 2857 0aca 13       		.uleb128 0x13
 2858 0acb 02       		.uleb128 0x2
 2859 0acc 7D       		.byte	0x7d
 2860 0acd 00       		.sleb128 0
 2861 0ace 03       		.uleb128 0x3
 2862 0acf 91       		.byte	0x91
 2863 0ad0 64       		.sleb128 -28
 2864 0ad1 06       		.byte	0x6
 2865 0ad2 00       		.byte	0
 2866 0ad3 12       		.uleb128 0x12
 2867 0ad4 62000000 		.4byte	.LVL166
 2868 0ad8 AE100000 		.4byte	0x10ae
 2869 0adc 13       		.uleb128 0x13
 2870 0add 01       		.uleb128 0x1
 2871 0ade 50       		.byte	0x50
 2872 0adf 02       		.uleb128 0x2
 2873 0ae0 77       		.byte	0x77
 2874 0ae1 00       		.sleb128 0
 2875 0ae2 00       		.byte	0
 2876 0ae3 00       		.byte	0
 2877 0ae4 14       		.uleb128 0x14
 2878 0ae5 1E000000 		.4byte	.LVL155
 2879 0ae9 83070000 		.4byte	0x783
 2880 0aed F80A0000 		.4byte	0xaf8
 2881 0af1 13       		.uleb128 0x13
 2882 0af2 01       		.uleb128 0x1
 2883 0af3 50       		.byte	0x50
 2884 0af4 02       		.uleb128 0x2
 2885 0af5 74       		.byte	0x74
 2886 0af6 00       		.sleb128 0
 2887 0af7 00       		.byte	0
 2888 0af8 14       		.uleb128 0x14
 2889 0af9 2C000000 		.4byte	.LVL158
 2890 0afd 6B030000 		.4byte	0x36b
 2891 0b01 1F0B0000 		.4byte	0xb1f
 2892 0b05 13       		.uleb128 0x13
 2893 0b06 01       		.uleb128 0x1
 2894 0b07 50       		.byte	0x50
 2895 0b08 02       		.uleb128 0x2
 2896 0b09 74       		.byte	0x74
 2897 0b0a 00       		.sleb128 0
 2898 0b0b 13       		.uleb128 0x13
 2899 0b0c 01       		.uleb128 0x1
 2900 0b0d 51       		.byte	0x51
 2901 0b0e 02       		.uleb128 0x2
 2902 0b0f 77       		.byte	0x77
 2903 0b10 00       		.sleb128 0
 2904 0b11 13       		.uleb128 0x13
 2905 0b12 01       		.uleb128 0x1
 2906 0b13 52       		.byte	0x52
 2907 0b14 02       		.uleb128 0x2
 2908 0b15 75       		.byte	0x75
 2909 0b16 00       		.sleb128 0
 2910 0b17 13       		.uleb128 0x13
 2911 0b18 02       		.uleb128 0x2
ARM GAS  C:\Users\Xwx47\AppData\Local\Temp\ccZsRkco.s 			page 76


 2912 0b19 7D       		.byte	0x7d
 2913 0b1a 00       		.sleb128 0
 2914 0b1b 02       		.uleb128 0x2
 2915 0b1c 76       		.byte	0x76
 2916 0b1d 00       		.sleb128 0
 2917 0b1e 00       		.byte	0
 2918 0b1f 12       		.uleb128 0x12
 2919 0b20 36000000 		.4byte	.LVL161
 2920 0b24 E1010000 		.4byte	0x1e1
 2921 0b28 13       		.uleb128 0x13
 2922 0b29 01       		.uleb128 0x1
 2923 0b2a 50       		.byte	0x50
 2924 0b2b 02       		.uleb128 0x2
 2925 0b2c 74       		.byte	0x74
 2926 0b2d 00       		.sleb128 0
 2927 0b2e 00       		.byte	0
 2928 0b2f 00       		.byte	0
 2929 0b30 06       		.uleb128 0x6
 2930 0b31 04       		.byte	0x4
 2931 0b32 C7000000 		.4byte	0xc7
 2932 0b36 0F       		.uleb128 0xf
 2933 0b37 300B0000 		.4byte	0xb30
 2934 0b3b 1B       		.uleb128 0x1b
 2935 0b3c 6A000000 		.4byte	.LASF84
 2936 0b40 01       		.byte	0x1
 2937 0b41 B002     		.2byte	0x2b0
 2938 0b43 97000000 		.4byte	0x97
 2939 0b47 00000000 		.4byte	.LFB41
 2940 0b4b A2000000 		.4byte	.LFE41-.LFB41
 2941 0b4f 01       		.uleb128 0x1
 2942 0b50 9C       		.byte	0x9c
 2943 0b51 C20C0000 		.4byte	0xcc2
 2944 0b55 0D       		.uleb128 0xd
 2945 0b56 77020000 		.4byte	.LASF71
 2946 0b5a 01       		.byte	0x1
 2947 0b5b B002     		.2byte	0x2b0
 2948 0b5d 54010000 		.4byte	0x154
 2949 0b61 C90B0000 		.4byte	.LLST65
 2950 0b65 0D       		.uleb128 0xd
 2951 0b66 D7030000 		.4byte	.LASF64
 2952 0b6a 01       		.byte	0x1
 2953 0b6b B102     		.2byte	0x2b1
 2954 0b6d B0000000 		.4byte	0xb0
 2955 0b71 0B0C0000 		.4byte	.LLST66
 2956 0b75 0D       		.uleb128 0xd
 2957 0b76 0D000000 		.4byte	.LASF65
 2958 0b7a 01       		.byte	0x1
 2959 0b7b B202     		.2byte	0x2b2
 2960 0b7d 97000000 		.4byte	0x97
 2961 0b81 410C0000 		.4byte	.LLST67
 2962 0b85 0D       		.uleb128 0xd
 2963 0b86 F1020000 		.4byte	.LASF79
 2964 0b8a 01       		.byte	0x1
 2965 0b8b B302     		.2byte	0x2b3
 2966 0b8d DD000000 		.4byte	0xdd
 2967 0b91 770C0000 		.4byte	.LLST68
 2968 0b95 0E       		.uleb128 0xe
ARM GAS  C:\Users\Xwx47\AppData\Local\Temp\ccZsRkco.s 			page 77


 2969 0b96 B0030000 		.4byte	.LASF43
 2970 0b9a 01       		.byte	0x1
 2971 0b9b B502     		.2byte	0x2b5
 2972 0b9d B3020000 		.4byte	0x2b3
 2973 0ba1 A30C0000 		.4byte	.LLST69
 2974 0ba5 0E       		.uleb128 0xe
 2975 0ba6 54020000 		.4byte	.LASF68
 2976 0baa 01       		.byte	0x1
 2977 0bab B602     		.2byte	0x2b6
 2978 0bad 97000000 		.4byte	0x97
 2979 0bb1 E50C0000 		.4byte	.LLST70
 2980 0bb5 0E       		.uleb128 0xe
 2981 0bb6 EC000000 		.4byte	.LASF61
 2982 0bba 01       		.byte	0x1
 2983 0bbb B602     		.2byte	0x2b6
 2984 0bbd 97000000 		.4byte	0x97
 2985 0bc1 310D0000 		.4byte	.LLST71
 2986 0bc5 0E       		.uleb128 0xe
 2987 0bc6 FF050000 		.4byte	.LASF66
 2988 0bca 01       		.byte	0x1
 2989 0bcb B602     		.2byte	0x2b6
 2990 0bcd 97000000 		.4byte	0x97
 2991 0bd1 700D0000 		.4byte	.LLST72
 2992 0bd5 1C       		.uleb128 0x1c
 2993 0bd6 20000000 		.4byte	.LVL174
 2994 0bda 2D100000 		.4byte	0x102d
 2995 0bde 14       		.uleb128 0x14
 2996 0bdf 26000000 		.4byte	.LVL175
 2997 0be3 E1010000 		.4byte	0x1e1
 2998 0be7 F20B0000 		.4byte	0xbf2
 2999 0beb 13       		.uleb128 0x13
 3000 0bec 01       		.uleb128 0x1
 3001 0bed 50       		.byte	0x50
 3002 0bee 02       		.uleb128 0x2
 3003 0bef 74       		.byte	0x74
 3004 0bf0 00       		.sleb128 0
 3005 0bf1 00       		.byte	0
 3006 0bf2 14       		.uleb128 0x14
 3007 0bf3 32000000 		.4byte	.LVL178
 3008 0bf7 38100000 		.4byte	0x1038
 3009 0bfb 050C0000 		.4byte	0xc05
 3010 0bff 13       		.uleb128 0x13
 3011 0c00 01       		.uleb128 0x1
 3012 0c01 50       		.byte	0x50
 3013 0c02 01       		.uleb128 0x1
 3014 0c03 30       		.byte	0x30
 3015 0c04 00       		.byte	0
 3016 0c05 1C       		.uleb128 0x1c
 3017 0c06 36000000 		.4byte	.LVL179
 3018 0c0a 44100000 		.4byte	0x1044
 3019 0c0e 1C       		.uleb128 0x1c
 3020 0c0f 3C000000 		.4byte	.LVL180
 3021 0c13 50100000 		.4byte	0x1050
 3022 0c17 14       		.uleb128 0x14
 3023 0c18 4E000000 		.4byte	.LVL181
 3024 0c1c 5B100000 		.4byte	0x105b
 3025 0c20 3B0C0000 		.4byte	0xc3b
ARM GAS  C:\Users\Xwx47\AppData\Local\Temp\ccZsRkco.s 			page 78


 3026 0c24 13       		.uleb128 0x13
 3027 0c25 01       		.uleb128 0x1
 3028 0c26 50       		.byte	0x50
 3029 0c27 01       		.uleb128 0x1
 3030 0c28 30       		.byte	0x30
 3031 0c29 13       		.uleb128 0x13
 3032 0c2a 01       		.uleb128 0x1
 3033 0c2b 51       		.byte	0x51
 3034 0c2c 02       		.uleb128 0x2
 3035 0c2d 09       		.byte	0x9
 3036 0c2e FF       		.byte	0xff
 3037 0c2f 13       		.uleb128 0x13
 3038 0c30 01       		.uleb128 0x1
 3039 0c31 52       		.byte	0x52
 3040 0c32 01       		.uleb128 0x1
 3041 0c33 30       		.byte	0x30
 3042 0c34 13       		.uleb128 0x13
 3043 0c35 01       		.uleb128 0x1
 3044 0c36 53       		.byte	0x53
 3045 0c37 02       		.uleb128 0x2
 3046 0c38 77       		.byte	0x77
 3047 0c39 00       		.sleb128 0
 3048 0c3a 00       		.byte	0
 3049 0c3b 14       		.uleb128 0x14
 3050 0c3c 58000000 		.4byte	.LVL182
 3051 0c40 E1010000 		.4byte	0x1e1
 3052 0c44 4F0C0000 		.4byte	0xc4f
 3053 0c48 13       		.uleb128 0x13
 3054 0c49 01       		.uleb128 0x1
 3055 0c4a 50       		.byte	0x50
 3056 0c4b 02       		.uleb128 0x2
 3057 0c4c 74       		.byte	0x74
 3058 0c4d 00       		.sleb128 0
 3059 0c4e 00       		.byte	0
 3060 0c4f 14       		.uleb128 0x14
 3061 0c50 62000000 		.4byte	.LVL186
 3062 0c54 E1010000 		.4byte	0x1e1
 3063 0c58 630C0000 		.4byte	0xc63
 3064 0c5c 13       		.uleb128 0x13
 3065 0c5d 01       		.uleb128 0x1
 3066 0c5e 50       		.byte	0x50
 3067 0c5f 02       		.uleb128 0x2
 3068 0c60 74       		.byte	0x74
 3069 0c61 00       		.sleb128 0
 3070 0c62 00       		.byte	0
 3071 0c63 14       		.uleb128 0x14
 3072 0c64 76000000 		.4byte	.LVL188
 3073 0c68 EE040000 		.4byte	0x4ee
 3074 0c6c 920C0000 		.4byte	0xc92
 3075 0c70 13       		.uleb128 0x13
 3076 0c71 01       		.uleb128 0x1
 3077 0c72 50       		.byte	0x50
 3078 0c73 02       		.uleb128 0x2
 3079 0c74 74       		.byte	0x74
 3080 0c75 00       		.sleb128 0
 3081 0c76 13       		.uleb128 0x13
 3082 0c77 01       		.uleb128 0x1
ARM GAS  C:\Users\Xwx47\AppData\Local\Temp\ccZsRkco.s 			page 79


 3083 0c78 51       		.byte	0x51
 3084 0c79 03       		.uleb128 0x3
 3085 0c7a 91       		.byte	0x91
 3086 0c7b 60       		.sleb128 -32
 3087 0c7c 06       		.byte	0x6
 3088 0c7d 13       		.uleb128 0x13
 3089 0c7e 01       		.uleb128 0x1
 3090 0c7f 52       		.byte	0x52
 3091 0c80 03       		.uleb128 0x3
 3092 0c81 91       		.byte	0x91
 3093 0c82 64       		.sleb128 -28
 3094 0c83 06       		.byte	0x6
 3095 0c84 13       		.uleb128 0x13
 3096 0c85 01       		.uleb128 0x1
 3097 0c86 53       		.byte	0x53
 3098 0c87 02       		.uleb128 0x2
 3099 0c88 75       		.byte	0x75
 3100 0c89 00       		.sleb128 0
 3101 0c8a 13       		.uleb128 0x13
 3102 0c8b 02       		.uleb128 0x2
 3103 0c8c 7D       		.byte	0x7d
 3104 0c8d 00       		.sleb128 0
 3105 0c8e 02       		.uleb128 0x2
 3106 0c8f 76       		.byte	0x76
 3107 0c90 00       		.sleb128 0
 3108 0c91 00       		.byte	0
 3109 0c92 1C       		.uleb128 0x1c
 3110 0c93 7E000000 		.4byte	.LVL190
 3111 0c97 73100000 		.4byte	0x1073
 3112 0c9b 14       		.uleb128 0x14
 3113 0c9c 90000000 		.4byte	.LVL191
 3114 0ca0 7F100000 		.4byte	0x107f
 3115 0ca4 B80C0000 		.4byte	0xcb8
 3116 0ca8 13       		.uleb128 0x13
 3117 0ca9 01       		.uleb128 0x1
 3118 0caa 51       		.byte	0x51
 3119 0cab 01       		.uleb128 0x1
 3120 0cac 30       		.byte	0x30
 3121 0cad 13       		.uleb128 0x13
 3122 0cae 01       		.uleb128 0x1
 3123 0caf 52       		.byte	0x52
 3124 0cb0 01       		.uleb128 0x1
 3125 0cb1 30       		.byte	0x30
 3126 0cb2 13       		.uleb128 0x13
 3127 0cb3 01       		.uleb128 0x1
 3128 0cb4 53       		.byte	0x53
 3129 0cb5 01       		.uleb128 0x1
 3130 0cb6 30       		.byte	0x30
 3131 0cb7 00       		.byte	0
 3132 0cb8 1C       		.uleb128 0x1c
 3133 0cb9 98000000 		.4byte	.LVL192
 3134 0cbd 8B100000 		.4byte	0x108b
 3135 0cc1 00       		.byte	0
 3136 0cc2 1B       		.uleb128 0x1b
 3137 0cc3 1B030000 		.4byte	.LASF85
 3138 0cc7 01       		.byte	0x1
 3139 0cc8 1803     		.2byte	0x318
ARM GAS  C:\Users\Xwx47\AppData\Local\Temp\ccZsRkco.s 			page 80


 3140 0cca 97000000 		.4byte	0x97
 3141 0cce 00000000 		.4byte	.LFB42
 3142 0cd2 62000000 		.4byte	.LFE42-.LFB42
 3143 0cd6 01       		.uleb128 0x1
 3144 0cd7 9C       		.byte	0x9c
 3145 0cd8 F00D0000 		.4byte	0xdf0
 3146 0cdc 0D       		.uleb128 0xd
 3147 0cdd 77020000 		.4byte	.LASF71
 3148 0ce1 01       		.byte	0x1
 3149 0ce2 1803     		.2byte	0x318
 3150 0ce4 54010000 		.4byte	0x154
 3151 0ce8 830D0000 		.4byte	.LLST73
 3152 0cec 0D       		.uleb128 0xd
 3153 0ced D7030000 		.4byte	.LASF64
 3154 0cf1 01       		.byte	0x1
 3155 0cf2 1903     		.2byte	0x319
 3156 0cf4 B0000000 		.4byte	0xb0
 3157 0cf8 AF0D0000 		.4byte	.LLST74
 3158 0cfc 0D       		.uleb128 0xd
 3159 0cfd 0D000000 		.4byte	.LASF65
 3160 0d01 01       		.byte	0x1
 3161 0d02 1A03     		.2byte	0x31a
 3162 0d04 97000000 		.4byte	0x97
 3163 0d08 CE0D0000 		.4byte	.LLST75
 3164 0d0c 0D       		.uleb128 0xd
 3165 0d0d FA060000 		.4byte	.LASF82
 3166 0d11 01       		.byte	0x1
 3167 0d12 1B03     		.2byte	0x31b
 3168 0d14 360B0000 		.4byte	0xb36
 3169 0d18 130E0000 		.4byte	.LLST76
 3170 0d1c 0E       		.uleb128 0xe
 3171 0d1d B0030000 		.4byte	.LASF43
 3172 0d21 01       		.byte	0x1
 3173 0d22 1D03     		.2byte	0x31d
 3174 0d24 B3020000 		.4byte	0x2b3
 3175 0d28 3F0E0000 		.4byte	.LLST77
 3176 0d2c 0E       		.uleb128 0xe
 3177 0d2d 54020000 		.4byte	.LASF68
 3178 0d31 01       		.byte	0x1
 3179 0d32 1E03     		.2byte	0x31e
 3180 0d34 97000000 		.4byte	0x97
 3181 0d38 6B0E0000 		.4byte	.LLST78
 3182 0d3c 0E       		.uleb128 0xe
 3183 0d3d EC000000 		.4byte	.LASF61
 3184 0d41 01       		.byte	0x1
 3185 0d42 1E03     		.2byte	0x31e
 3186 0d44 97000000 		.4byte	0x97
 3187 0d48 B70E0000 		.4byte	.LLST79
 3188 0d4c 0E       		.uleb128 0xe
 3189 0d4d FF050000 		.4byte	.LASF66
 3190 0d51 01       		.byte	0x1
 3191 0d52 1E03     		.2byte	0x31e
 3192 0d54 97000000 		.4byte	0x97
 3193 0d58 E00E0000 		.4byte	.LLST80
 3194 0d5c 1D       		.uleb128 0x1d
 3195 0d5d 34000000 		.4byte	.LBB3
 3196 0d61 24000000 		.4byte	.LBE3-.LBB3
ARM GAS  C:\Users\Xwx47\AppData\Local\Temp\ccZsRkco.s 			page 81


 3197 0d65 B70D0000 		.4byte	0xdb7
 3198 0d69 0E       		.uleb128 0xe
 3199 0d6a DB060000 		.4byte	.LASF83
 3200 0d6e 01       		.byte	0x1
 3201 0d6f 3F03     		.2byte	0x33f
 3202 0d71 D2000000 		.4byte	0xd2
 3203 0d75 FE0E0000 		.4byte	.LLST81
 3204 0d79 1C       		.uleb128 0x1c
 3205 0d7a 38000000 		.4byte	.LVL208
 3206 0d7e 97100000 		.4byte	0x1097
 3207 0d82 14       		.uleb128 0x14
 3208 0d83 4E000000 		.4byte	.LVL211
 3209 0d87 A2100000 		.4byte	0x10a2
 3210 0d8b A60D0000 		.4byte	0xda6
 3211 0d8f 13       		.uleb128 0x13
 3212 0d90 01       		.uleb128 0x1
 3213 0d91 51       		.byte	0x51
 3214 0d92 01       		.uleb128 0x1
 3215 0d93 30       		.byte	0x30
 3216 0d94 13       		.uleb128 0x13
 3217 0d95 01       		.uleb128 0x1
 3218 0d96 52       		.byte	0x52
 3219 0d97 01       		.uleb128 0x1
 3220 0d98 30       		.byte	0x30
 3221 0d99 13       		.uleb128 0x13
 3222 0d9a 01       		.uleb128 0x1
 3223 0d9b 53       		.byte	0x53
 3224 0d9c 01       		.uleb128 0x1
 3225 0d9d 30       		.byte	0x30
 3226 0d9e 13       		.uleb128 0x13
 3227 0d9f 02       		.uleb128 0x2
 3228 0da0 7D       		.byte	0x7d
 3229 0da1 00       		.sleb128 0
 3230 0da2 02       		.uleb128 0x2
 3231 0da3 77       		.byte	0x77
 3232 0da4 00       		.sleb128 0
 3233 0da5 00       		.byte	0
 3234 0da6 12       		.uleb128 0x12
 3235 0da7 58000000 		.4byte	.LVL212
 3236 0dab AE100000 		.4byte	0x10ae
 3237 0daf 13       		.uleb128 0x13
 3238 0db0 01       		.uleb128 0x1
 3239 0db1 50       		.byte	0x50
 3240 0db2 02       		.uleb128 0x2
 3241 0db3 76       		.byte	0x76
 3242 0db4 00       		.sleb128 0
 3243 0db5 00       		.byte	0
 3244 0db6 00       		.byte	0
 3245 0db7 14       		.uleb128 0x14
 3246 0db8 1E000000 		.4byte	.LVL204
 3247 0dbc E1010000 		.4byte	0x1e1
 3248 0dc0 CB0D0000 		.4byte	0xdcb
 3249 0dc4 13       		.uleb128 0x13
 3250 0dc5 01       		.uleb128 0x1
 3251 0dc6 50       		.byte	0x50
 3252 0dc7 02       		.uleb128 0x2
 3253 0dc8 74       		.byte	0x74
ARM GAS  C:\Users\Xwx47\AppData\Local\Temp\ccZsRkco.s 			page 82


 3254 0dc9 00       		.sleb128 0
 3255 0dca 00       		.byte	0
 3256 0dcb 12       		.uleb128 0x12
 3257 0dcc 30000000 		.4byte	.LVL206
 3258 0dd0 EE040000 		.4byte	0x4ee
 3259 0dd4 13       		.uleb128 0x13
 3260 0dd5 01       		.uleb128 0x1
 3261 0dd6 50       		.byte	0x50
 3262 0dd7 02       		.uleb128 0x2
 3263 0dd8 74       		.byte	0x74
 3264 0dd9 00       		.sleb128 0
 3265 0dda 13       		.uleb128 0x13
 3266 0ddb 01       		.uleb128 0x1
 3267 0ddc 51       		.byte	0x51
 3268 0ddd 03       		.uleb128 0x3
 3269 0dde 91       		.byte	0x91
 3270 0ddf 64       		.sleb128 -28
 3271 0de0 06       		.byte	0x6
 3272 0de1 13       		.uleb128 0x13
 3273 0de2 01       		.uleb128 0x1
 3274 0de3 52       		.byte	0x52
 3275 0de4 02       		.uleb128 0x2
 3276 0de5 76       		.byte	0x76
 3277 0de6 00       		.sleb128 0
 3278 0de7 13       		.uleb128 0x13
 3279 0de8 02       		.uleb128 0x2
 3280 0de9 7D       		.byte	0x7d
 3281 0dea 00       		.sleb128 0
 3282 0deb 02       		.uleb128 0x2
 3283 0dec 75       		.byte	0x75
 3284 0ded 00       		.sleb128 0
 3285 0dee 00       		.byte	0
 3286 0def 00       		.byte	0
 3287 0df0 1B       		.uleb128 0x1b
 3288 0df1 69030000 		.4byte	.LASF86
 3289 0df5 01       		.byte	0x1
 3290 0df6 8303     		.2byte	0x383
 3291 0df8 C7000000 		.4byte	0xc7
 3292 0dfc 00000000 		.4byte	.LFB44
 3293 0e00 10000000 		.4byte	.LFE44-.LFB44
 3294 0e04 01       		.uleb128 0x1
 3295 0e05 9C       		.byte	0x9c
 3296 0e06 470E0000 		.4byte	0xe47
 3297 0e0a 0D       		.uleb128 0xd
 3298 0e0b 77020000 		.4byte	.LASF71
 3299 0e0f 01       		.byte	0x1
 3300 0e10 8303     		.2byte	0x383
 3301 0e12 54010000 		.4byte	0x154
 3302 0e16 1C0F0000 		.4byte	.LLST82
 3303 0e1a 0E       		.uleb128 0xe
 3304 0e1b B0030000 		.4byte	.LASF43
 3305 0e1f 01       		.byte	0x1
 3306 0e20 8503     		.2byte	0x385
 3307 0e22 27020000 		.4byte	0x227
 3308 0e26 560F0000 		.4byte	.LLST83
 3309 0e2a 16       		.uleb128 0x16
 3310 0e2b F2060000 		.4byte	.LASF58
ARM GAS  C:\Users\Xwx47\AppData\Local\Temp\ccZsRkco.s 			page 83


 3311 0e2f 01       		.byte	0x1
 3312 0e30 8603     		.2byte	0x386
 3313 0e32 C7000000 		.4byte	0xc7
 3314 0e36 01       		.uleb128 0x1
 3315 0e37 50       		.byte	0x50
 3316 0e38 16       		.uleb128 0x16
 3317 0e39 3C060000 		.4byte	.LASF34
 3318 0e3d 01       		.byte	0x1
 3319 0e3e 8703     		.2byte	0x387
 3320 0e40 97000000 		.4byte	0x97
 3321 0e44 01       		.uleb128 0x1
 3322 0e45 52       		.byte	0x52
 3323 0e46 00       		.byte	0
 3324 0e47 1B       		.uleb128 0x1b
 3325 0e48 3E030000 		.4byte	.LASF87
 3326 0e4c 01       		.byte	0x1
 3327 0e4d 9A03     		.2byte	0x39a
 3328 0e4f C7000000 		.4byte	0xc7
 3329 0e53 00000000 		.4byte	.LFB45
 3330 0e57 1E000000 		.4byte	.LFE45-.LFB45
 3331 0e5b 01       		.uleb128 0x1
 3332 0e5c 9C       		.byte	0x9c
 3333 0e5d A90E0000 		.4byte	0xea9
 3334 0e61 0D       		.uleb128 0xd
 3335 0e62 77020000 		.4byte	.LASF71
 3336 0e66 01       		.byte	0x1
 3337 0e67 9A03     		.2byte	0x39a
 3338 0e69 54010000 		.4byte	0x154
 3339 0e6d 900F0000 		.4byte	.LLST84
 3340 0e71 16       		.uleb128 0x16
 3341 0e72 F2060000 		.4byte	.LASF58
 3342 0e76 01       		.byte	0x1
 3343 0e77 9C03     		.2byte	0x39c
 3344 0e79 C7000000 		.4byte	0xc7
 3345 0e7d 01       		.uleb128 0x1
 3346 0e7e 50       		.byte	0x50
 3347 0e7f 0E       		.uleb128 0xe
 3348 0e80 FF050000 		.4byte	.LASF66
 3349 0e84 01       		.byte	0x1
 3350 0e85 9D03     		.2byte	0x39d
 3351 0e87 97000000 		.4byte	0x97
 3352 0e8b B10F0000 		.4byte	.LLST85
 3353 0e8f 0E       		.uleb128 0xe
 3354 0e90 B0030000 		.4byte	.LASF43
 3355 0e94 01       		.byte	0x1
 3356 0e95 9E03     		.2byte	0x39e
 3357 0e97 27020000 		.4byte	0x227
 3358 0e9b C40F0000 		.4byte	.LLST86
 3359 0e9f 1C       		.uleb128 0x1c
 3360 0ea0 12000000 		.4byte	.LVL226
 3361 0ea4 83070000 		.4byte	0x783
 3362 0ea8 00       		.byte	0
 3363 0ea9 1B       		.uleb128 0x1b
 3364 0eaa 42060000 		.4byte	.LASF88
 3365 0eae 01       		.byte	0x1
 3366 0eaf BD03     		.2byte	0x3bd
 3367 0eb1 C7000000 		.4byte	0xc7
ARM GAS  C:\Users\Xwx47\AppData\Local\Temp\ccZsRkco.s 			page 84


 3368 0eb5 00000000 		.4byte	.LFB46
 3369 0eb9 38000000 		.4byte	.LFE46-.LFB46
 3370 0ebd 01       		.uleb128 0x1
 3371 0ebe 9C       		.byte	0x9c
 3372 0ebf 510F0000 		.4byte	0xf51
 3373 0ec3 0D       		.uleb128 0xd
 3374 0ec4 77020000 		.4byte	.LASF71
 3375 0ec8 01       		.byte	0x1
 3376 0ec9 BD03     		.2byte	0x3bd
 3377 0ecb 54010000 		.4byte	0x154
 3378 0ecf E50F0000 		.4byte	.LLST87
 3379 0ed3 0D       		.uleb128 0xd
 3380 0ed4 FA060000 		.4byte	.LASF82
 3381 0ed8 01       		.byte	0x1
 3382 0ed9 BD03     		.2byte	0x3bd
 3383 0edb 300B0000 		.4byte	0xb30
 3384 0edf 2A100000 		.4byte	.LLST88
 3385 0ee3 0E       		.uleb128 0xe
 3386 0ee4 B0030000 		.4byte	.LASF43
 3387 0ee8 01       		.byte	0x1
 3388 0ee9 BF03     		.2byte	0x3bf
 3389 0eeb B3020000 		.4byte	0x2b3
 3390 0eef 56100000 		.4byte	.LLST89
 3391 0ef3 0E       		.uleb128 0xe
 3392 0ef4 F2060000 		.4byte	.LASF58
 3393 0ef8 01       		.byte	0x1
 3394 0ef9 C003     		.2byte	0x3c0
 3395 0efb C7000000 		.4byte	0xc7
 3396 0eff 9B100000 		.4byte	.LLST90
 3397 0f03 0E       		.uleb128 0xe
 3398 0f04 DB060000 		.4byte	.LASF83
 3399 0f08 01       		.byte	0x1
 3400 0f09 C103     		.2byte	0x3c1
 3401 0f0b D2000000 		.4byte	0xd2
 3402 0f0f C5100000 		.4byte	.LLST91
 3403 0f13 1C       		.uleb128 0x1c
 3404 0f14 0C000000 		.4byte	.LVL231
 3405 0f18 97100000 		.4byte	0x1097
 3406 0f1c 14       		.uleb128 0x14
 3407 0f1d 22000000 		.4byte	.LVL234
 3408 0f21 A2100000 		.4byte	0x10a2
 3409 0f25 400F0000 		.4byte	0xf40
 3410 0f29 13       		.uleb128 0x13
 3411 0f2a 01       		.uleb128 0x1
 3412 0f2b 51       		.byte	0x51
 3413 0f2c 01       		.uleb128 0x1
 3414 0f2d 30       		.byte	0x30
 3415 0f2e 13       		.uleb128 0x13
 3416 0f2f 01       		.uleb128 0x1
 3417 0f30 52       		.byte	0x52
 3418 0f31 01       		.uleb128 0x1
 3419 0f32 30       		.byte	0x30
 3420 0f33 13       		.uleb128 0x13
 3421 0f34 01       		.uleb128 0x1
 3422 0f35 53       		.byte	0x53
 3423 0f36 01       		.uleb128 0x1
 3424 0f37 30       		.byte	0x30
ARM GAS  C:\Users\Xwx47\AppData\Local\Temp\ccZsRkco.s 			page 85


 3425 0f38 13       		.uleb128 0x13
 3426 0f39 02       		.uleb128 0x2
 3427 0f3a 7D       		.byte	0x7d
 3428 0f3b 00       		.sleb128 0
 3429 0f3c 02       		.uleb128 0x2
 3430 0f3d 76       		.byte	0x76
 3431 0f3e 00       		.sleb128 0
 3432 0f3f 00       		.byte	0
 3433 0f40 12       		.uleb128 0x12
 3434 0f41 32000000 		.4byte	.LVL239
 3435 0f45 AE100000 		.4byte	0x10ae
 3436 0f49 13       		.uleb128 0x13
 3437 0f4a 01       		.uleb128 0x1
 3438 0f4b 50       		.byte	0x50
 3439 0f4c 02       		.uleb128 0x2
 3440 0f4d 75       		.byte	0x75
 3441 0f4e 00       		.sleb128 0
 3442 0f4f 00       		.byte	0
 3443 0f50 00       		.byte	0
 3444 0f51 1B       		.uleb128 0x1b
 3445 0f52 C7000000 		.4byte	.LASF89
 3446 0f56 01       		.byte	0x1
 3447 0f57 DB03     		.2byte	0x3db
 3448 0f59 C7000000 		.4byte	0xc7
 3449 0f5d 00000000 		.4byte	.LFB47
 3450 0f61 38000000 		.4byte	.LFE47-.LFB47
 3451 0f65 01       		.uleb128 0x1
 3452 0f66 9C       		.byte	0x9c
 3453 0f67 F90F0000 		.4byte	0xff9
 3454 0f6b 0D       		.uleb128 0xd
 3455 0f6c 77020000 		.4byte	.LASF71
 3456 0f70 01       		.byte	0x1
 3457 0f71 DB03     		.2byte	0x3db
 3458 0f73 54010000 		.4byte	0x154
 3459 0f77 F9100000 		.4byte	.LLST92
 3460 0f7b 0D       		.uleb128 0xd
 3461 0f7c FA060000 		.4byte	.LASF82
 3462 0f80 01       		.byte	0x1
 3463 0f81 DB03     		.2byte	0x3db
 3464 0f83 300B0000 		.4byte	0xb30
 3465 0f87 3E110000 		.4byte	.LLST93
 3466 0f8b 0E       		.uleb128 0xe
 3467 0f8c B0030000 		.4byte	.LASF43
 3468 0f90 01       		.byte	0x1
 3469 0f91 DD03     		.2byte	0x3dd
 3470 0f93 B3020000 		.4byte	0x2b3
 3471 0f97 6A110000 		.4byte	.LLST94
 3472 0f9b 0E       		.uleb128 0xe
 3473 0f9c F2060000 		.4byte	.LASF58
 3474 0fa0 01       		.byte	0x1
 3475 0fa1 DE03     		.2byte	0x3de
 3476 0fa3 C7000000 		.4byte	0xc7
 3477 0fa7 AF110000 		.4byte	.LLST95
 3478 0fab 0E       		.uleb128 0xe
 3479 0fac DB060000 		.4byte	.LASF83
 3480 0fb0 01       		.byte	0x1
 3481 0fb1 DF03     		.2byte	0x3df
ARM GAS  C:\Users\Xwx47\AppData\Local\Temp\ccZsRkco.s 			page 86


 3482 0fb3 D2000000 		.4byte	0xd2
 3483 0fb7 D9110000 		.4byte	.LLST96
 3484 0fbb 1C       		.uleb128 0x1c
 3485 0fbc 0C000000 		.4byte	.LVL245
 3486 0fc0 97100000 		.4byte	0x1097
 3487 0fc4 14       		.uleb128 0x14
 3488 0fc5 22000000 		.4byte	.LVL248
 3489 0fc9 A2100000 		.4byte	0x10a2
 3490 0fcd E80F0000 		.4byte	0xfe8
 3491 0fd1 13       		.uleb128 0x13
 3492 0fd2 01       		.uleb128 0x1
 3493 0fd3 51       		.byte	0x51
 3494 0fd4 01       		.uleb128 0x1
 3495 0fd5 30       		.byte	0x30
 3496 0fd6 13       		.uleb128 0x13
 3497 0fd7 01       		.uleb128 0x1
 3498 0fd8 52       		.byte	0x52
 3499 0fd9 01       		.uleb128 0x1
 3500 0fda 30       		.byte	0x30
 3501 0fdb 13       		.uleb128 0x13
 3502 0fdc 01       		.uleb128 0x1
 3503 0fdd 53       		.byte	0x53
 3504 0fde 01       		.uleb128 0x1
 3505 0fdf 30       		.byte	0x30
 3506 0fe0 13       		.uleb128 0x13
 3507 0fe1 02       		.uleb128 0x2
 3508 0fe2 7D       		.byte	0x7d
 3509 0fe3 00       		.sleb128 0
 3510 0fe4 02       		.uleb128 0x2
 3511 0fe5 76       		.byte	0x76
 3512 0fe6 00       		.sleb128 0
 3513 0fe7 00       		.byte	0
 3514 0fe8 12       		.uleb128 0x12
 3515 0fe9 32000000 		.4byte	.LVL253
 3516 0fed AE100000 		.4byte	0x10ae
 3517 0ff1 13       		.uleb128 0x13
 3518 0ff2 01       		.uleb128 0x1
 3519 0ff3 50       		.byte	0x50
 3520 0ff4 02       		.uleb128 0x2
 3521 0ff5 75       		.byte	0x75
 3522 0ff6 00       		.sleb128 0
 3523 0ff7 00       		.byte	0
 3524 0ff8 00       		.byte	0
 3525 0ff9 1E       		.uleb128 0x1e
 3526 0ffa 37030000 		.4byte	.LASF90
 3527 0ffe 37030000 		.4byte	.LASF90
 3528 1002 1E       		.uleb128 0x1e
 3529 1003 1F020000 		.4byte	.LASF91
 3530 1007 1F020000 		.4byte	.LASF91
 3531 100b 1F       		.uleb128 0x1f
 3532 100c AC070000 		.4byte	.LASF92
 3533 1010 AC070000 		.4byte	.LASF92
 3534 1014 08       		.byte	0x8
 3535 1015 82       		.byte	0x82
 3536 1016 1F       		.uleb128 0x1f
 3537 1017 64060000 		.4byte	.LASF93
 3538 101b 64060000 		.4byte	.LASF93
ARM GAS  C:\Users\Xwx47\AppData\Local\Temp\ccZsRkco.s 			page 87


 3539 101f 08       		.byte	0x8
 3540 1020 83       		.byte	0x83
 3541 1021 20       		.uleb128 0x20
 3542 1022 0A020000 		.4byte	.LASF94
 3543 1026 0A020000 		.4byte	.LASF94
 3544 102a 06       		.byte	0x6
 3545 102b C108     		.2byte	0x8c1
 3546 102d 1F       		.uleb128 0x1f
 3547 102e 3F050000 		.4byte	.LASF95
 3548 1032 3F050000 		.4byte	.LASF95
 3549 1036 05       		.byte	0x5
 3550 1037 5B       		.byte	0x5b
 3551 1038 20       		.uleb128 0x20
 3552 1039 59010000 		.4byte	.LASF96
 3553 103d 59010000 		.4byte	.LASF96
 3554 1041 06       		.byte	0x6
 3555 1042 4808     		.2byte	0x848
 3556 1044 20       		.uleb128 0x20
 3557 1045 65070000 		.4byte	.LASF97
 3558 1049 65070000 		.4byte	.LASF97
 3559 104d 06       		.byte	0x6
 3560 104e BC08     		.2byte	0x8bc
 3561 1050 1F       		.uleb128 0x1f
 3562 1051 9D050000 		.4byte	.LASF98
 3563 1055 9D050000 		.4byte	.LASF98
 3564 1059 05       		.byte	0x5
 3565 105a 5C       		.byte	0x5c
 3566 105b 20       		.uleb128 0x20
 3567 105c E1020000 		.4byte	.LASF99
 3568 1060 E1020000 		.4byte	.LASF99
 3569 1064 06       		.byte	0x6
 3570 1065 8E07     		.2byte	0x78e
 3571 1067 20       		.uleb128 0x20
 3572 1068 88030000 		.4byte	.LASF100
 3573 106c 88030000 		.4byte	.LASF100
 3574 1070 06       		.byte	0x6
 3575 1071 C708     		.2byte	0x8c7
 3576 1073 20       		.uleb128 0x20
 3577 1074 B9070000 		.4byte	.LASF101
 3578 1078 B9070000 		.4byte	.LASF101
 3579 107c 06       		.byte	0x6
 3580 107d FA04     		.2byte	0x4fa
 3581 107f 20       		.uleb128 0x20
 3582 1080 26020000 		.4byte	.LASF102
 3583 1084 26020000 		.4byte	.LASF102
 3584 1088 06       		.byte	0x6
 3585 1089 E606     		.2byte	0x6e6
 3586 108b 20       		.uleb128 0x20
 3587 108c 1D050000 		.4byte	.LASF103
 3588 1090 1D050000 		.4byte	.LASF103
 3589 1094 06       		.byte	0x6
 3590 1095 3005     		.2byte	0x530
 3591 1097 1F       		.uleb128 0x1f
 3592 1098 88060000 		.4byte	.LASF104
 3593 109c 88060000 		.4byte	.LASF104
 3594 10a0 05       		.byte	0x5
 3595 10a1 5D       		.byte	0x5d
ARM GAS  C:\Users\Xwx47\AppData\Local\Temp\ccZsRkco.s 			page 88


 3596 10a2 20       		.uleb128 0x20
 3597 10a3 3F010000 		.4byte	.LASF105
 3598 10a7 3F010000 		.4byte	.LASF105
 3599 10ab 06       		.byte	0x6
 3600 10ac 4107     		.2byte	0x741
 3601 10ae 1F       		.uleb128 0x1f
 3602 10af 39020000 		.4byte	.LASF106
 3603 10b3 39020000 		.4byte	.LASF106
 3604 10b7 05       		.byte	0x5
 3605 10b8 5E       		.byte	0x5e
 3606 10b9 00       		.byte	0
 3607              		.section	.debug_abbrev,"",%progbits
 3608              	.Ldebug_abbrev0:
 3609 0000 01       		.uleb128 0x1
 3610 0001 11       		.uleb128 0x11
 3611 0002 01       		.byte	0x1
 3612 0003 25       		.uleb128 0x25
 3613 0004 0E       		.uleb128 0xe
 3614 0005 13       		.uleb128 0x13
 3615 0006 0B       		.uleb128 0xb
 3616 0007 03       		.uleb128 0x3
 3617 0008 0E       		.uleb128 0xe
 3618 0009 1B       		.uleb128 0x1b
 3619 000a 0E       		.uleb128 0xe
 3620 000b 55       		.uleb128 0x55
 3621 000c 17       		.uleb128 0x17
 3622 000d 11       		.uleb128 0x11
 3623 000e 01       		.uleb128 0x1
 3624 000f 10       		.uleb128 0x10
 3625 0010 17       		.uleb128 0x17
 3626 0011 00       		.byte	0
 3627 0012 00       		.byte	0
 3628 0013 02       		.uleb128 0x2
 3629 0014 24       		.uleb128 0x24
 3630 0015 00       		.byte	0
 3631 0016 0B       		.uleb128 0xb
 3632 0017 0B       		.uleb128 0xb
 3633 0018 3E       		.uleb128 0x3e
 3634 0019 0B       		.uleb128 0xb
 3635 001a 03       		.uleb128 0x3
 3636 001b 0E       		.uleb128 0xe
 3637 001c 00       		.byte	0
 3638 001d 00       		.byte	0
 3639 001e 03       		.uleb128 0x3
 3640 001f 16       		.uleb128 0x16
 3641 0020 00       		.byte	0
 3642 0021 03       		.uleb128 0x3
 3643 0022 0E       		.uleb128 0xe
 3644 0023 3A       		.uleb128 0x3a
 3645 0024 0B       		.uleb128 0xb
 3646 0025 3B       		.uleb128 0x3b
 3647 0026 0B       		.uleb128 0xb
 3648 0027 49       		.uleb128 0x49
 3649 0028 13       		.uleb128 0x13
 3650 0029 00       		.byte	0
 3651 002a 00       		.byte	0
 3652 002b 04       		.uleb128 0x4
ARM GAS  C:\Users\Xwx47\AppData\Local\Temp\ccZsRkco.s 			page 89


 3653 002c 24       		.uleb128 0x24
 3654 002d 00       		.byte	0
 3655 002e 0B       		.uleb128 0xb
 3656 002f 0B       		.uleb128 0xb
 3657 0030 3E       		.uleb128 0x3e
 3658 0031 0B       		.uleb128 0xb
 3659 0032 03       		.uleb128 0x3
 3660 0033 08       		.uleb128 0x8
 3661 0034 00       		.byte	0
 3662 0035 00       		.byte	0
 3663 0036 05       		.uleb128 0x5
 3664 0037 0F       		.uleb128 0xf
 3665 0038 00       		.byte	0
 3666 0039 0B       		.uleb128 0xb
 3667 003a 0B       		.uleb128 0xb
 3668 003b 00       		.byte	0
 3669 003c 00       		.byte	0
 3670 003d 06       		.uleb128 0x6
 3671 003e 0F       		.uleb128 0xf
 3672 003f 00       		.byte	0
 3673 0040 0B       		.uleb128 0xb
 3674 0041 0B       		.uleb128 0xb
 3675 0042 49       		.uleb128 0x49
 3676 0043 13       		.uleb128 0x13
 3677 0044 00       		.byte	0
 3678 0045 00       		.byte	0
 3679 0046 07       		.uleb128 0x7
 3680 0047 04       		.uleb128 0x4
 3681 0048 01       		.byte	0x1
 3682 0049 0B       		.uleb128 0xb
 3683 004a 0B       		.uleb128 0xb
 3684 004b 49       		.uleb128 0x49
 3685 004c 13       		.uleb128 0x13
 3686 004d 3A       		.uleb128 0x3a
 3687 004e 0B       		.uleb128 0xb
 3688 004f 3B       		.uleb128 0x3b
 3689 0050 0B       		.uleb128 0xb
 3690 0051 01       		.uleb128 0x1
 3691 0052 13       		.uleb128 0x13
 3692 0053 00       		.byte	0
 3693 0054 00       		.byte	0
 3694 0055 08       		.uleb128 0x8
 3695 0056 28       		.uleb128 0x28
 3696 0057 00       		.byte	0
 3697 0058 03       		.uleb128 0x3
 3698 0059 0E       		.uleb128 0xe
 3699 005a 1C       		.uleb128 0x1c
 3700 005b 0B       		.uleb128 0xb
 3701 005c 00       		.byte	0
 3702 005d 00       		.byte	0
 3703 005e 09       		.uleb128 0x9
 3704 005f 13       		.uleb128 0x13
 3705 0060 01       		.byte	0x1
 3706 0061 03       		.uleb128 0x3
 3707 0062 0E       		.uleb128 0xe
 3708 0063 0B       		.uleb128 0xb
 3709 0064 0B       		.uleb128 0xb
ARM GAS  C:\Users\Xwx47\AppData\Local\Temp\ccZsRkco.s 			page 90


 3710 0065 3A       		.uleb128 0x3a
 3711 0066 0B       		.uleb128 0xb
 3712 0067 3B       		.uleb128 0x3b
 3713 0068 0B       		.uleb128 0xb
 3714 0069 01       		.uleb128 0x1
 3715 006a 13       		.uleb128 0x13
 3716 006b 00       		.byte	0
 3717 006c 00       		.byte	0
 3718 006d 0A       		.uleb128 0xa
 3719 006e 0D       		.uleb128 0xd
 3720 006f 00       		.byte	0
 3721 0070 03       		.uleb128 0x3
 3722 0071 0E       		.uleb128 0xe
 3723 0072 3A       		.uleb128 0x3a
 3724 0073 0B       		.uleb128 0xb
 3725 0074 3B       		.uleb128 0x3b
 3726 0075 0B       		.uleb128 0xb
 3727 0076 49       		.uleb128 0x49
 3728 0077 13       		.uleb128 0x13
 3729 0078 38       		.uleb128 0x38
 3730 0079 0B       		.uleb128 0xb
 3731 007a 00       		.byte	0
 3732 007b 00       		.byte	0
 3733 007c 0B       		.uleb128 0xb
 3734 007d 35       		.uleb128 0x35
 3735 007e 00       		.byte	0
 3736 007f 49       		.uleb128 0x49
 3737 0080 13       		.uleb128 0x13
 3738 0081 00       		.byte	0
 3739 0082 00       		.byte	0
 3740 0083 0C       		.uleb128 0xc
 3741 0084 2E       		.uleb128 0x2e
 3742 0085 01       		.byte	0x1
 3743 0086 03       		.uleb128 0x3
 3744 0087 0E       		.uleb128 0xe
 3745 0088 3A       		.uleb128 0x3a
 3746 0089 0B       		.uleb128 0xb
 3747 008a 3B       		.uleb128 0x3b
 3748 008b 05       		.uleb128 0x5
 3749 008c 27       		.uleb128 0x27
 3750 008d 19       		.uleb128 0x19
 3751 008e 49       		.uleb128 0x49
 3752 008f 13       		.uleb128 0x13
 3753 0090 11       		.uleb128 0x11
 3754 0091 01       		.uleb128 0x1
 3755 0092 12       		.uleb128 0x12
 3756 0093 06       		.uleb128 0x6
 3757 0094 40       		.uleb128 0x40
 3758 0095 18       		.uleb128 0x18
 3759 0096 9742     		.uleb128 0x2117
 3760 0098 19       		.uleb128 0x19
 3761 0099 01       		.uleb128 0x1
 3762 009a 13       		.uleb128 0x13
 3763 009b 00       		.byte	0
 3764 009c 00       		.byte	0
 3765 009d 0D       		.uleb128 0xd
 3766 009e 05       		.uleb128 0x5
ARM GAS  C:\Users\Xwx47\AppData\Local\Temp\ccZsRkco.s 			page 91


 3767 009f 00       		.byte	0
 3768 00a0 03       		.uleb128 0x3
 3769 00a1 0E       		.uleb128 0xe
 3770 00a2 3A       		.uleb128 0x3a
 3771 00a3 0B       		.uleb128 0xb
 3772 00a4 3B       		.uleb128 0x3b
 3773 00a5 05       		.uleb128 0x5
 3774 00a6 49       		.uleb128 0x49
 3775 00a7 13       		.uleb128 0x13
 3776 00a8 02       		.uleb128 0x2
 3777 00a9 17       		.uleb128 0x17
 3778 00aa 00       		.byte	0
 3779 00ab 00       		.byte	0
 3780 00ac 0E       		.uleb128 0xe
 3781 00ad 34       		.uleb128 0x34
 3782 00ae 00       		.byte	0
 3783 00af 03       		.uleb128 0x3
 3784 00b0 0E       		.uleb128 0xe
 3785 00b1 3A       		.uleb128 0x3a
 3786 00b2 0B       		.uleb128 0xb
 3787 00b3 3B       		.uleb128 0x3b
 3788 00b4 05       		.uleb128 0x5
 3789 00b5 49       		.uleb128 0x49
 3790 00b6 13       		.uleb128 0x13
 3791 00b7 02       		.uleb128 0x2
 3792 00b8 17       		.uleb128 0x17
 3793 00b9 00       		.byte	0
 3794 00ba 00       		.byte	0
 3795 00bb 0F       		.uleb128 0xf
 3796 00bc 26       		.uleb128 0x26
 3797 00bd 00       		.byte	0
 3798 00be 49       		.uleb128 0x49
 3799 00bf 13       		.uleb128 0x13
 3800 00c0 00       		.byte	0
 3801 00c1 00       		.byte	0
 3802 00c2 10       		.uleb128 0x10
 3803 00c3 2E       		.uleb128 0x2e
 3804 00c4 01       		.byte	0x1
 3805 00c5 03       		.uleb128 0x3
 3806 00c6 0E       		.uleb128 0xe
 3807 00c7 3A       		.uleb128 0x3a
 3808 00c8 0B       		.uleb128 0xb
 3809 00c9 3B       		.uleb128 0x3b
 3810 00ca 05       		.uleb128 0x5
 3811 00cb 27       		.uleb128 0x27
 3812 00cc 19       		.uleb128 0x19
 3813 00cd 11       		.uleb128 0x11
 3814 00ce 01       		.uleb128 0x1
 3815 00cf 12       		.uleb128 0x12
 3816 00d0 06       		.uleb128 0x6
 3817 00d1 40       		.uleb128 0x40
 3818 00d2 18       		.uleb128 0x18
 3819 00d3 9742     		.uleb128 0x2117
 3820 00d5 19       		.uleb128 0x19
 3821 00d6 01       		.uleb128 0x1
 3822 00d7 13       		.uleb128 0x13
 3823 00d8 00       		.byte	0
ARM GAS  C:\Users\Xwx47\AppData\Local\Temp\ccZsRkco.s 			page 92


 3824 00d9 00       		.byte	0
 3825 00da 11       		.uleb128 0x11
 3826 00db 05       		.uleb128 0x5
 3827 00dc 00       		.byte	0
 3828 00dd 03       		.uleb128 0x3
 3829 00de 0E       		.uleb128 0xe
 3830 00df 3A       		.uleb128 0x3a
 3831 00e0 0B       		.uleb128 0xb
 3832 00e1 3B       		.uleb128 0x3b
 3833 00e2 05       		.uleb128 0x5
 3834 00e3 49       		.uleb128 0x49
 3835 00e4 13       		.uleb128 0x13
 3836 00e5 02       		.uleb128 0x2
 3837 00e6 18       		.uleb128 0x18
 3838 00e7 00       		.byte	0
 3839 00e8 00       		.byte	0
 3840 00e9 12       		.uleb128 0x12
 3841 00ea 898201   		.uleb128 0x4109
 3842 00ed 01       		.byte	0x1
 3843 00ee 11       		.uleb128 0x11
 3844 00ef 01       		.uleb128 0x1
 3845 00f0 31       		.uleb128 0x31
 3846 00f1 13       		.uleb128 0x13
 3847 00f2 00       		.byte	0
 3848 00f3 00       		.byte	0
 3849 00f4 13       		.uleb128 0x13
 3850 00f5 8A8201   		.uleb128 0x410a
 3851 00f8 00       		.byte	0
 3852 00f9 02       		.uleb128 0x2
 3853 00fa 18       		.uleb128 0x18
 3854 00fb 9142     		.uleb128 0x2111
 3855 00fd 18       		.uleb128 0x18
 3856 00fe 00       		.byte	0
 3857 00ff 00       		.byte	0
 3858 0100 14       		.uleb128 0x14
 3859 0101 898201   		.uleb128 0x4109
 3860 0104 01       		.byte	0x1
 3861 0105 11       		.uleb128 0x11
 3862 0106 01       		.uleb128 0x1
 3863 0107 31       		.uleb128 0x31
 3864 0108 13       		.uleb128 0x13
 3865 0109 01       		.uleb128 0x1
 3866 010a 13       		.uleb128 0x13
 3867 010b 00       		.byte	0
 3868 010c 00       		.byte	0
 3869 010d 15       		.uleb128 0x15
 3870 010e 26       		.uleb128 0x26
 3871 010f 00       		.byte	0
 3872 0110 00       		.byte	0
 3873 0111 00       		.byte	0
 3874 0112 16       		.uleb128 0x16
 3875 0113 34       		.uleb128 0x34
 3876 0114 00       		.byte	0
 3877 0115 03       		.uleb128 0x3
 3878 0116 0E       		.uleb128 0xe
 3879 0117 3A       		.uleb128 0x3a
 3880 0118 0B       		.uleb128 0xb
ARM GAS  C:\Users\Xwx47\AppData\Local\Temp\ccZsRkco.s 			page 93


 3881 0119 3B       		.uleb128 0x3b
 3882 011a 05       		.uleb128 0x5
 3883 011b 49       		.uleb128 0x49
 3884 011c 13       		.uleb128 0x13
 3885 011d 02       		.uleb128 0x2
 3886 011e 18       		.uleb128 0x18
 3887 011f 00       		.byte	0
 3888 0120 00       		.byte	0
 3889 0121 17       		.uleb128 0x17
 3890 0122 2E       		.uleb128 0x2e
 3891 0123 01       		.byte	0x1
 3892 0124 3F       		.uleb128 0x3f
 3893 0125 19       		.uleb128 0x19
 3894 0126 03       		.uleb128 0x3
 3895 0127 0E       		.uleb128 0xe
 3896 0128 3A       		.uleb128 0x3a
 3897 0129 0B       		.uleb128 0xb
 3898 012a 3B       		.uleb128 0x3b
 3899 012b 0B       		.uleb128 0xb
 3900 012c 27       		.uleb128 0x27
 3901 012d 19       		.uleb128 0x19
 3902 012e 49       		.uleb128 0x49
 3903 012f 13       		.uleb128 0x13
 3904 0130 11       		.uleb128 0x11
 3905 0131 01       		.uleb128 0x1
 3906 0132 12       		.uleb128 0x12
 3907 0133 06       		.uleb128 0x6
 3908 0134 40       		.uleb128 0x40
 3909 0135 18       		.uleb128 0x18
 3910 0136 9742     		.uleb128 0x2117
 3911 0138 19       		.uleb128 0x19
 3912 0139 01       		.uleb128 0x1
 3913 013a 13       		.uleb128 0x13
 3914 013b 00       		.byte	0
 3915 013c 00       		.byte	0
 3916 013d 18       		.uleb128 0x18
 3917 013e 05       		.uleb128 0x5
 3918 013f 00       		.byte	0
 3919 0140 03       		.uleb128 0x3
 3920 0141 0E       		.uleb128 0xe
 3921 0142 3A       		.uleb128 0x3a
 3922 0143 0B       		.uleb128 0xb
 3923 0144 3B       		.uleb128 0x3b
 3924 0145 0B       		.uleb128 0xb
 3925 0146 49       		.uleb128 0x49
 3926 0147 13       		.uleb128 0x13
 3927 0148 02       		.uleb128 0x2
 3928 0149 17       		.uleb128 0x17
 3929 014a 00       		.byte	0
 3930 014b 00       		.byte	0
 3931 014c 19       		.uleb128 0x19
 3932 014d 34       		.uleb128 0x34
 3933 014e 00       		.byte	0
 3934 014f 03       		.uleb128 0x3
 3935 0150 0E       		.uleb128 0xe
 3936 0151 3A       		.uleb128 0x3a
 3937 0152 0B       		.uleb128 0xb
ARM GAS  C:\Users\Xwx47\AppData\Local\Temp\ccZsRkco.s 			page 94


 3938 0153 3B       		.uleb128 0x3b
 3939 0154 0B       		.uleb128 0xb
 3940 0155 49       		.uleb128 0x49
 3941 0156 13       		.uleb128 0x13
 3942 0157 02       		.uleb128 0x2
 3943 0158 17       		.uleb128 0x17
 3944 0159 00       		.byte	0
 3945 015a 00       		.byte	0
 3946 015b 1A       		.uleb128 0x1a
 3947 015c 2E       		.uleb128 0x2e
 3948 015d 01       		.byte	0x1
 3949 015e 3F       		.uleb128 0x3f
 3950 015f 19       		.uleb128 0x19
 3951 0160 03       		.uleb128 0x3
 3952 0161 0E       		.uleb128 0xe
 3953 0162 3A       		.uleb128 0x3a
 3954 0163 0B       		.uleb128 0xb
 3955 0164 3B       		.uleb128 0x3b
 3956 0165 05       		.uleb128 0x5
 3957 0166 27       		.uleb128 0x27
 3958 0167 19       		.uleb128 0x19
 3959 0168 11       		.uleb128 0x11
 3960 0169 01       		.uleb128 0x1
 3961 016a 12       		.uleb128 0x12
 3962 016b 06       		.uleb128 0x6
 3963 016c 40       		.uleb128 0x40
 3964 016d 18       		.uleb128 0x18
 3965 016e 9742     		.uleb128 0x2117
 3966 0170 19       		.uleb128 0x19
 3967 0171 01       		.uleb128 0x1
 3968 0172 13       		.uleb128 0x13
 3969 0173 00       		.byte	0
 3970 0174 00       		.byte	0
 3971 0175 1B       		.uleb128 0x1b
 3972 0176 2E       		.uleb128 0x2e
 3973 0177 01       		.byte	0x1
 3974 0178 3F       		.uleb128 0x3f
 3975 0179 19       		.uleb128 0x19
 3976 017a 03       		.uleb128 0x3
 3977 017b 0E       		.uleb128 0xe
 3978 017c 3A       		.uleb128 0x3a
 3979 017d 0B       		.uleb128 0xb
 3980 017e 3B       		.uleb128 0x3b
 3981 017f 05       		.uleb128 0x5
 3982 0180 27       		.uleb128 0x27
 3983 0181 19       		.uleb128 0x19
 3984 0182 49       		.uleb128 0x49
 3985 0183 13       		.uleb128 0x13
 3986 0184 11       		.uleb128 0x11
 3987 0185 01       		.uleb128 0x1
 3988 0186 12       		.uleb128 0x12
 3989 0187 06       		.uleb128 0x6
 3990 0188 40       		.uleb128 0x40
 3991 0189 18       		.uleb128 0x18
 3992 018a 9742     		.uleb128 0x2117
 3993 018c 19       		.uleb128 0x19
 3994 018d 01       		.uleb128 0x1
ARM GAS  C:\Users\Xwx47\AppData\Local\Temp\ccZsRkco.s 			page 95


 3995 018e 13       		.uleb128 0x13
 3996 018f 00       		.byte	0
 3997 0190 00       		.byte	0
 3998 0191 1C       		.uleb128 0x1c
 3999 0192 898201   		.uleb128 0x4109
 4000 0195 00       		.byte	0
 4001 0196 11       		.uleb128 0x11
 4002 0197 01       		.uleb128 0x1
 4003 0198 31       		.uleb128 0x31
 4004 0199 13       		.uleb128 0x13
 4005 019a 00       		.byte	0
 4006 019b 00       		.byte	0
 4007 019c 1D       		.uleb128 0x1d
 4008 019d 0B       		.uleb128 0xb
 4009 019e 01       		.byte	0x1
 4010 019f 11       		.uleb128 0x11
 4011 01a0 01       		.uleb128 0x1
 4012 01a1 12       		.uleb128 0x12
 4013 01a2 06       		.uleb128 0x6
 4014 01a3 01       		.uleb128 0x1
 4015 01a4 13       		.uleb128 0x13
 4016 01a5 00       		.byte	0
 4017 01a6 00       		.byte	0
 4018 01a7 1E       		.uleb128 0x1e
 4019 01a8 2E       		.uleb128 0x2e
 4020 01a9 00       		.byte	0
 4021 01aa 3F       		.uleb128 0x3f
 4022 01ab 19       		.uleb128 0x19
 4023 01ac 3C       		.uleb128 0x3c
 4024 01ad 19       		.uleb128 0x19
 4025 01ae 6E       		.uleb128 0x6e
 4026 01af 0E       		.uleb128 0xe
 4027 01b0 03       		.uleb128 0x3
 4028 01b1 0E       		.uleb128 0xe
 4029 01b2 00       		.byte	0
 4030 01b3 00       		.byte	0
 4031 01b4 1F       		.uleb128 0x1f
 4032 01b5 2E       		.uleb128 0x2e
 4033 01b6 00       		.byte	0
 4034 01b7 3F       		.uleb128 0x3f
 4035 01b8 19       		.uleb128 0x19
 4036 01b9 3C       		.uleb128 0x3c
 4037 01ba 19       		.uleb128 0x19
 4038 01bb 6E       		.uleb128 0x6e
 4039 01bc 0E       		.uleb128 0xe
 4040 01bd 03       		.uleb128 0x3
 4041 01be 0E       		.uleb128 0xe
 4042 01bf 3A       		.uleb128 0x3a
 4043 01c0 0B       		.uleb128 0xb
 4044 01c1 3B       		.uleb128 0x3b
 4045 01c2 0B       		.uleb128 0xb
 4046 01c3 00       		.byte	0
 4047 01c4 00       		.byte	0
 4048 01c5 20       		.uleb128 0x20
 4049 01c6 2E       		.uleb128 0x2e
 4050 01c7 00       		.byte	0
 4051 01c8 3F       		.uleb128 0x3f
ARM GAS  C:\Users\Xwx47\AppData\Local\Temp\ccZsRkco.s 			page 96


 4052 01c9 19       		.uleb128 0x19
 4053 01ca 3C       		.uleb128 0x3c
 4054 01cb 19       		.uleb128 0x19
 4055 01cc 6E       		.uleb128 0x6e
 4056 01cd 0E       		.uleb128 0xe
 4057 01ce 03       		.uleb128 0x3
 4058 01cf 0E       		.uleb128 0xe
 4059 01d0 3A       		.uleb128 0x3a
 4060 01d1 0B       		.uleb128 0xb
 4061 01d2 3B       		.uleb128 0x3b
 4062 01d3 05       		.uleb128 0x5
 4063 01d4 00       		.byte	0
 4064 01d5 00       		.byte	0
 4065 01d6 00       		.byte	0
 4066              		.section	.debug_loc,"",%progbits
 4067              	.Ldebug_loc0:
 4068              	.LLST0:
 4069 0000 00000000 		.4byte	.LVL0
 4070 0004 08000000 		.4byte	.LVL2
 4071 0008 0100     		.2byte	0x1
 4072 000a 50       		.byte	0x50
 4073 000b 08000000 		.4byte	.LVL2
 4074 000f 12000000 		.4byte	.LFE50
 4075 0013 0400     		.2byte	0x4
 4076 0015 F3       		.byte	0xf3
 4077 0016 01       		.uleb128 0x1
 4078 0017 50       		.byte	0x50
 4079 0018 9F       		.byte	0x9f
 4080 0019 00000000 		.4byte	0
 4081 001d 00000000 		.4byte	0
 4082              	.LLST1:
 4083 0021 06000000 		.4byte	.LVL1
 4084 0025 0A000000 		.4byte	.LVL3
 4085 0029 0100     		.2byte	0x1
 4086 002b 53       		.byte	0x53
 4087 002c 0A000000 		.4byte	.LVL3
 4088 0030 12000000 		.4byte	.LFE50
 4089 0034 0100     		.2byte	0x1
 4090 0036 50       		.byte	0x50
 4091 0037 00000000 		.4byte	0
 4092 003b 00000000 		.4byte	0
 4093              	.LLST2:
 4094 003f 00000000 		.4byte	.LVL5
 4095 0043 11000000 		.4byte	.LVL8-1
 4096 0047 0100     		.2byte	0x1
 4097 0049 50       		.byte	0x50
 4098 004a 11000000 		.4byte	.LVL8-1
 4099 004e 26000000 		.4byte	.LVL9
 4100 0052 0100     		.2byte	0x1
 4101 0054 54       		.byte	0x54
 4102 0055 26000000 		.4byte	.LVL9
 4103 0059 28000000 		.4byte	.LFE51
 4104 005d 0400     		.2byte	0x4
 4105 005f F3       		.byte	0xf3
 4106 0060 01       		.uleb128 0x1
 4107 0061 50       		.byte	0x50
 4108 0062 9F       		.byte	0x9f
ARM GAS  C:\Users\Xwx47\AppData\Local\Temp\ccZsRkco.s 			page 97


 4109 0063 00000000 		.4byte	0
 4110 0067 00000000 		.4byte	0
 4111              	.LLST3:
 4112 006b 00000000 		.4byte	.LVL5
 4113 006f 0E000000 		.4byte	.LVL7
 4114 0073 0100     		.2byte	0x1
 4115 0075 51       		.byte	0x51
 4116 0076 0E000000 		.4byte	.LVL7
 4117 007a 26000000 		.4byte	.LVL12
 4118 007e 0100     		.2byte	0x1
 4119 0080 57       		.byte	0x57
 4120 0081 26000000 		.4byte	.LVL12
 4121 0085 28000000 		.4byte	.LFE51
 4122 0089 0500     		.2byte	0x5
 4123 008b F3       		.byte	0xf3
 4124 008c 01       		.uleb128 0x1
 4125 008d 50       		.byte	0x50
 4126 008e 23       		.byte	0x23
 4127 008f 18       		.uleb128 0x18
 4128 0090 00000000 		.4byte	0
 4129 0094 00000000 		.4byte	0
 4130              	.LLST4:
 4131 0098 00000000 		.4byte	.LVL5
 4132 009c 0C000000 		.4byte	.LVL6
 4133 00a0 0100     		.2byte	0x1
 4134 00a2 52       		.byte	0x52
 4135 00a3 0C000000 		.4byte	.LVL6
 4136 00a7 26000000 		.4byte	.LVL11
 4137 00ab 0100     		.2byte	0x1
 4138 00ad 56       		.byte	0x56
 4139 00ae 26000000 		.4byte	.LVL11
 4140 00b2 28000000 		.4byte	.LFE51
 4141 00b6 0500     		.2byte	0x5
 4142 00b8 F3       		.byte	0xf3
 4143 00b9 01       		.uleb128 0x1
 4144 00ba 50       		.byte	0x50
 4145 00bb 23       		.byte	0x23
 4146 00bc 08       		.uleb128 0x8
 4147 00bd 00000000 		.4byte	0
 4148 00c1 00000000 		.4byte	0
 4149              	.LLST5:
 4150 00c5 00000000 		.4byte	.LVL5
 4151 00c9 11000000 		.4byte	.LVL8-1
 4152 00cd 0100     		.2byte	0x1
 4153 00cf 53       		.byte	0x53
 4154 00d0 11000000 		.4byte	.LVL8-1
 4155 00d4 26000000 		.4byte	.LVL10
 4156 00d8 0100     		.2byte	0x1
 4157 00da 55       		.byte	0x55
 4158 00db 26000000 		.4byte	.LVL10
 4159 00df 28000000 		.4byte	.LFE51
 4160 00e3 0500     		.2byte	0x5
 4161 00e5 F3       		.byte	0xf3
 4162 00e6 01       		.uleb128 0x1
 4163 00e7 50       		.byte	0x50
 4164 00e8 23       		.byte	0x23
 4165 00e9 0C       		.uleb128 0xc
ARM GAS  C:\Users\Xwx47\AppData\Local\Temp\ccZsRkco.s 			page 98


 4166 00ea 00000000 		.4byte	0
 4167 00ee 00000000 		.4byte	0
 4168              	.LLST6:
 4169 00f2 00000000 		.4byte	.LVL13
 4170 00f6 1A000000 		.4byte	.LVL16
 4171 00fa 0100     		.2byte	0x1
 4172 00fc 50       		.byte	0x50
 4173 00fd 1A000000 		.4byte	.LVL16
 4174 0101 42000000 		.4byte	.LVL24
 4175 0105 0100     		.2byte	0x1
 4176 0107 56       		.byte	0x56
 4177 0108 42000000 		.4byte	.LVL24
 4178 010c 44000000 		.4byte	.LFE48
 4179 0110 0400     		.2byte	0x4
 4180 0112 F3       		.byte	0xf3
 4181 0113 01       		.uleb128 0x1
 4182 0114 50       		.byte	0x50
 4183 0115 9F       		.byte	0x9f
 4184 0116 00000000 		.4byte	0
 4185 011a 00000000 		.4byte	0
 4186              	.LLST7:
 4187 011e 00000000 		.4byte	.LVL13
 4188 0122 1E000000 		.4byte	.LVL18
 4189 0126 0100     		.2byte	0x1
 4190 0128 51       		.byte	0x51
 4191 0129 1E000000 		.4byte	.LVL18
 4192 012d 44000000 		.4byte	.LFE48
 4193 0131 0200     		.2byte	0x2
 4194 0133 91       		.byte	0x91
 4195 0134 64       		.sleb128 -28
 4196 0135 00000000 		.4byte	0
 4197 0139 00000000 		.4byte	0
 4198              	.LLST8:
 4199 013d 00000000 		.4byte	.LVL13
 4200 0141 1C000000 		.4byte	.LVL17
 4201 0145 0100     		.2byte	0x1
 4202 0147 52       		.byte	0x52
 4203 0148 1C000000 		.4byte	.LVL17
 4204 014c 42000000 		.4byte	.LVL25
 4205 0150 0100     		.2byte	0x1
 4206 0152 57       		.byte	0x57
 4207 0153 42000000 		.4byte	.LVL25
 4208 0157 44000000 		.4byte	.LFE48
 4209 015b 0100     		.2byte	0x1
 4210 015d 50       		.byte	0x50
 4211 015e 00000000 		.4byte	0
 4212 0162 00000000 		.4byte	0
 4213              	.LLST9:
 4214 0166 0C000000 		.4byte	.LVL14
 4215 016a 34000000 		.4byte	.LVL21
 4216 016e 0100     		.2byte	0x1
 4217 0170 54       		.byte	0x54
 4218 0171 34000000 		.4byte	.LVL21
 4219 0175 44000000 		.4byte	.LFE48
 4220 0179 0100     		.2byte	0x1
 4221 017b 53       		.byte	0x53
 4222 017c 00000000 		.4byte	0
ARM GAS  C:\Users\Xwx47\AppData\Local\Temp\ccZsRkco.s 			page 99


 4223 0180 00000000 		.4byte	0
 4224              	.LLST10:
 4225 0184 16000000 		.4byte	.LVL15
 4226 0188 42000000 		.4byte	.LVL23
 4227 018c 0100     		.2byte	0x1
 4228 018e 55       		.byte	0x55
 4229 018f 00000000 		.4byte	0
 4230 0193 00000000 		.4byte	0
 4231              	.LLST11:
 4232 0197 00000000 		.4byte	.LVL26
 4233 019b 2F000000 		.4byte	.LVL34-1
 4234 019f 0100     		.2byte	0x1
 4235 01a1 50       		.byte	0x50
 4236 01a2 2F000000 		.4byte	.LVL34-1
 4237 01a6 34000000 		.4byte	.LVL35
 4238 01aa 0100     		.2byte	0x1
 4239 01ac 54       		.byte	0x54
 4240 01ad 34000000 		.4byte	.LVL35
 4241 01b1 3A000000 		.4byte	.LVL38
 4242 01b5 0100     		.2byte	0x1
 4243 01b7 50       		.byte	0x50
 4244 01b8 3A000000 		.4byte	.LVL38
 4245 01bc 4E000000 		.4byte	.LVL42
 4246 01c0 0100     		.2byte	0x1
 4247 01c2 54       		.byte	0x54
 4248 01c3 4E000000 		.4byte	.LVL42
 4249 01c7 50000000 		.4byte	.LFE40
 4250 01cb 0400     		.2byte	0x4
 4251 01cd F3       		.byte	0xf3
 4252 01ce 01       		.uleb128 0x1
 4253 01cf 50       		.byte	0x50
 4254 01d0 9F       		.byte	0x9f
 4255 01d1 00000000 		.4byte	0
 4256 01d5 00000000 		.4byte	0
 4257              	.LLST12:
 4258 01d9 00000000 		.4byte	.LVL26
 4259 01dd 2C000000 		.4byte	.LVL33
 4260 01e1 0100     		.2byte	0x1
 4261 01e3 51       		.byte	0x51
 4262 01e4 2C000000 		.4byte	.LVL33
 4263 01e8 34000000 		.4byte	.LVL35
 4264 01ec 0100     		.2byte	0x1
 4265 01ee 55       		.byte	0x55
 4266 01ef 34000000 		.4byte	.LVL35
 4267 01f3 3A000000 		.4byte	.LVL38
 4268 01f7 0100     		.2byte	0x1
 4269 01f9 51       		.byte	0x51
 4270 01fa 3A000000 		.4byte	.LVL38
 4271 01fe 4E000000 		.4byte	.LVL43
 4272 0202 0100     		.2byte	0x1
 4273 0204 55       		.byte	0x55
 4274 0205 4E000000 		.4byte	.LVL43
 4275 0209 50000000 		.4byte	.LFE40
 4276 020d 0400     		.2byte	0x4
 4277 020f F3       		.byte	0xf3
 4278 0210 01       		.uleb128 0x1
 4279 0211 51       		.byte	0x51
ARM GAS  C:\Users\Xwx47\AppData\Local\Temp\ccZsRkco.s 			page 100


 4280 0212 9F       		.byte	0x9f
 4281 0213 00000000 		.4byte	0
 4282 0217 00000000 		.4byte	0
 4283              	.LLST13:
 4284 021b 00000000 		.4byte	.LVL26
 4285 021f 10000000 		.4byte	.LVL27
 4286 0223 0100     		.2byte	0x1
 4287 0225 52       		.byte	0x52
 4288 0226 10000000 		.4byte	.LVL27
 4289 022a 1E000000 		.4byte	.LVL29
 4290 022e 0200     		.2byte	0x2
 4291 0230 91       		.byte	0x91
 4292 0231 6C       		.sleb128 -20
 4293 0232 1E000000 		.4byte	.LVL29
 4294 0236 22000000 		.4byte	.LVL31
 4295 023a 0400     		.2byte	0x4
 4296 023c F3       		.byte	0xf3
 4297 023d 01       		.uleb128 0x1
 4298 023e 52       		.byte	0x52
 4299 023f 9F       		.byte	0x9f
 4300 0240 22000000 		.4byte	.LVL31
 4301 0244 2C000000 		.4byte	.LVL33
 4302 0248 0200     		.2byte	0x2
 4303 024a 91       		.byte	0x91
 4304 024b 6C       		.sleb128 -20
 4305 024c 2C000000 		.4byte	.LVL33
 4306 0250 2F000000 		.4byte	.LVL34-1
 4307 0254 0200     		.2byte	0x2
 4308 0256 71       		.byte	0x71
 4309 0257 00       		.sleb128 0
 4310 0258 2F000000 		.4byte	.LVL34-1
 4311 025c 34000000 		.4byte	.LVL35
 4312 0260 0200     		.2byte	0x2
 4313 0262 91       		.byte	0x91
 4314 0263 6C       		.sleb128 -20
 4315 0264 34000000 		.4byte	.LVL35
 4316 0268 38000000 		.4byte	.LVL37
 4317 026c 0100     		.2byte	0x1
 4318 026e 52       		.byte	0x52
 4319 026f 38000000 		.4byte	.LVL37
 4320 0273 3A000000 		.4byte	.LVL38
 4321 0277 0200     		.2byte	0x2
 4322 0279 91       		.byte	0x91
 4323 027a 6C       		.sleb128 -20
 4324 027b 00000000 		.4byte	0
 4325 027f 00000000 		.4byte	0
 4326              	.LLST14:
 4327 0283 00000000 		.4byte	.LVL26
 4328 0287 20000000 		.4byte	.LVL30
 4329 028b 0100     		.2byte	0x1
 4330 028d 53       		.byte	0x53
 4331 028e 20000000 		.4byte	.LVL30
 4332 0292 22000000 		.4byte	.LVL31
 4333 0296 0400     		.2byte	0x4
 4334 0298 F3       		.byte	0xf3
 4335 0299 01       		.uleb128 0x1
 4336 029a 53       		.byte	0x53
ARM GAS  C:\Users\Xwx47\AppData\Local\Temp\ccZsRkco.s 			page 101


 4337 029b 9F       		.byte	0x9f
 4338 029c 22000000 		.4byte	.LVL31
 4339 02a0 2F000000 		.4byte	.LVL34-1
 4340 02a4 0100     		.2byte	0x1
 4341 02a6 53       		.byte	0x53
 4342 02a7 2F000000 		.4byte	.LVL34-1
 4343 02ab 34000000 		.4byte	.LVL35
 4344 02af 0400     		.2byte	0x4
 4345 02b1 F3       		.byte	0xf3
 4346 02b2 01       		.uleb128 0x1
 4347 02b3 53       		.byte	0x53
 4348 02b4 9F       		.byte	0x9f
 4349 02b5 34000000 		.4byte	.LVL35
 4350 02b9 36000000 		.4byte	.LVL36
 4351 02bd 0100     		.2byte	0x1
 4352 02bf 53       		.byte	0x53
 4353 02c0 36000000 		.4byte	.LVL36
 4354 02c4 38000000 		.4byte	.LVL37
 4355 02c8 0400     		.2byte	0x4
 4356 02ca F3       		.byte	0xf3
 4357 02cb 01       		.uleb128 0x1
 4358 02cc 53       		.byte	0x53
 4359 02cd 9F       		.byte	0x9f
 4360 02ce 38000000 		.4byte	.LVL37
 4361 02d2 3A000000 		.4byte	.LVL38
 4362 02d6 0100     		.2byte	0x1
 4363 02d8 53       		.byte	0x53
 4364 02d9 3A000000 		.4byte	.LVL38
 4365 02dd 50000000 		.4byte	.LFE40
 4366 02e1 0400     		.2byte	0x4
 4367 02e3 F3       		.byte	0xf3
 4368 02e4 01       		.uleb128 0x1
 4369 02e5 53       		.byte	0x53
 4370 02e6 9F       		.byte	0x9f
 4371 02e7 00000000 		.4byte	0
 4372 02eb 00000000 		.4byte	0
 4373              	.LLST15:
 4374 02ef 14000000 		.4byte	.LVL28
 4375 02f3 22000000 		.4byte	.LVL31
 4376 02f7 0200     		.2byte	0x2
 4377 02f9 31       		.byte	0x31
 4378 02fa 9F       		.byte	0x9f
 4379 02fb 28000000 		.4byte	.LVL32
 4380 02ff 34000000 		.4byte	.LVL35
 4381 0303 0200     		.2byte	0x2
 4382 0305 31       		.byte	0x31
 4383 0306 9F       		.byte	0x9f
 4384 0307 3A000000 		.4byte	.LVL38
 4385 030b 47000000 		.4byte	.LVL39-1
 4386 030f 0100     		.2byte	0x1
 4387 0311 53       		.byte	0x53
 4388 0312 4A000000 		.4byte	.LVL40
 4389 0316 4C000000 		.4byte	.LVL41
 4390 031a 0100     		.2byte	0x1
 4391 031c 53       		.byte	0x53
 4392 031d 00000000 		.4byte	0
 4393 0321 00000000 		.4byte	0
ARM GAS  C:\Users\Xwx47\AppData\Local\Temp\ccZsRkco.s 			page 102


 4394              	.LLST16:
 4395 0325 48000000 		.4byte	.LVL39
 4396 0329 4A000000 		.4byte	.LVL40
 4397 032d 0100     		.2byte	0x1
 4398 032f 50       		.byte	0x50
 4399 0330 4C000000 		.4byte	.LVL41
 4400 0334 50000000 		.4byte	.LFE40
 4401 0338 0100     		.2byte	0x1
 4402 033a 50       		.byte	0x50
 4403 033b 00000000 		.4byte	0
 4404 033f 00000000 		.4byte	0
 4405              	.LLST17:
 4406 0343 00000000 		.4byte	.LVL44
 4407 0347 2A000000 		.4byte	.LVL51
 4408 034b 0100     		.2byte	0x1
 4409 034d 50       		.byte	0x50
 4410 034e 2A000000 		.4byte	.LVL51
 4411 0352 4E000000 		.4byte	.LVL58
 4412 0356 0100     		.2byte	0x1
 4413 0358 56       		.byte	0x56
 4414 0359 4E000000 		.4byte	.LVL58
 4415 035d 50000000 		.4byte	.LFE49
 4416 0361 0400     		.2byte	0x4
 4417 0363 F3       		.byte	0xf3
 4418 0364 01       		.uleb128 0x1
 4419 0365 50       		.byte	0x50
 4420 0366 9F       		.byte	0x9f
 4421 0367 00000000 		.4byte	0
 4422 036b 00000000 		.4byte	0
 4423              	.LLST18:
 4424 036f 00000000 		.4byte	.LVL44
 4425 0373 26000000 		.4byte	.LVL49
 4426 0377 0100     		.2byte	0x1
 4427 0379 51       		.byte	0x51
 4428 037a 26000000 		.4byte	.LVL49
 4429 037e 50000000 		.4byte	.LFE49
 4430 0382 0200     		.2byte	0x2
 4431 0384 91       		.byte	0x91
 4432 0385 64       		.sleb128 -28
 4433 0386 00000000 		.4byte	0
 4434 038a 00000000 		.4byte	0
 4435              	.LLST19:
 4436 038e 00000000 		.4byte	.LVL44
 4437 0392 28000000 		.4byte	.LVL50
 4438 0396 0100     		.2byte	0x1
 4439 0398 52       		.byte	0x52
 4440 0399 28000000 		.4byte	.LVL50
 4441 039d 50000000 		.4byte	.LFE49
 4442 03a1 0400     		.2byte	0x4
 4443 03a3 F3       		.byte	0xf3
 4444 03a4 01       		.uleb128 0x1
 4445 03a5 52       		.byte	0x52
 4446 03a6 9F       		.byte	0x9f
 4447 03a7 00000000 		.4byte	0
 4448 03ab 00000000 		.4byte	0
 4449              	.LLST20:
 4450 03af 00000000 		.4byte	.LVL44
ARM GAS  C:\Users\Xwx47\AppData\Local\Temp\ccZsRkco.s 			page 103


 4451 03b3 18000000 		.4byte	.LVL47
 4452 03b7 0100     		.2byte	0x1
 4453 03b9 53       		.byte	0x53
 4454 03ba 18000000 		.4byte	.LVL47
 4455 03be 50000000 		.4byte	.LFE49
 4456 03c2 0400     		.2byte	0x4
 4457 03c4 F3       		.byte	0xf3
 4458 03c5 01       		.uleb128 0x1
 4459 03c6 53       		.byte	0x53
 4460 03c7 9F       		.byte	0x9f
 4461 03c8 00000000 		.4byte	0
 4462 03cc 00000000 		.4byte	0
 4463              	.LLST21:
 4464 03d0 10000000 		.4byte	.LVL45
 4465 03d4 4E000000 		.4byte	.LVL57
 4466 03d8 0100     		.2byte	0x1
 4467 03da 54       		.byte	0x54
 4468 03db 4E000000 		.4byte	.LVL57
 4469 03df 50000000 		.4byte	.LFE49
 4470 03e3 0100     		.2byte	0x1
 4471 03e5 50       		.byte	0x50
 4472 03e6 00000000 		.4byte	0
 4473 03ea 00000000 		.4byte	0
 4474              	.LLST22:
 4475 03ee 22000000 		.4byte	.LVL48
 4476 03f2 4A000000 		.4byte	.LVL56
 4477 03f6 0100     		.2byte	0x1
 4478 03f8 57       		.byte	0x57
 4479 03f9 00000000 		.4byte	0
 4480 03fd 00000000 		.4byte	0
 4481              	.LLST23:
 4482 0401 16000000 		.4byte	.LVL46
 4483 0405 4A000000 		.4byte	.LVL56
 4484 0409 0100     		.2byte	0x1
 4485 040b 55       		.byte	0x55
 4486 040c 00000000 		.4byte	0
 4487 0410 00000000 		.4byte	0
 4488              	.LLST24:
 4489 0414 00000000 		.4byte	.LVL59
 4490 0418 23000000 		.4byte	.LVL65-1
 4491 041c 0100     		.2byte	0x1
 4492 041e 50       		.byte	0x50
 4493 041f 23000000 		.4byte	.LVL65-1
 4494 0423 38000000 		.4byte	.LVL67
 4495 0427 0100     		.2byte	0x1
 4496 0429 55       		.byte	0x55
 4497 042a 38000000 		.4byte	.LVL67
 4498 042e 3A000000 		.4byte	.LVL68
 4499 0432 0100     		.2byte	0x1
 4500 0434 50       		.byte	0x50
 4501 0435 3A000000 		.4byte	.LVL68
 4502 0439 48000000 		.4byte	.LVL71
 4503 043d 0100     		.2byte	0x1
 4504 043f 55       		.byte	0x55
 4505 0440 48000000 		.4byte	.LVL71
 4506 0444 4E000000 		.4byte	.LFE43
 4507 0448 0400     		.2byte	0x4
ARM GAS  C:\Users\Xwx47\AppData\Local\Temp\ccZsRkco.s 			page 104


 4508 044a F3       		.byte	0xf3
 4509 044b 01       		.uleb128 0x1
 4510 044c 50       		.byte	0x50
 4511 044d 9F       		.byte	0x9f
 4512 044e 00000000 		.4byte	0
 4513 0452 00000000 		.4byte	0
 4514              	.LLST25:
 4515 0456 00000000 		.4byte	.LVL59
 4516 045a 20000000 		.4byte	.LVL64
 4517 045e 0100     		.2byte	0x1
 4518 0460 51       		.byte	0x51
 4519 0461 20000000 		.4byte	.LVL64
 4520 0465 38000000 		.4byte	.LVL67
 4521 0469 0100     		.2byte	0x1
 4522 046b 56       		.byte	0x56
 4523 046c 38000000 		.4byte	.LVL67
 4524 0470 3A000000 		.4byte	.LVL68
 4525 0474 0100     		.2byte	0x1
 4526 0476 51       		.byte	0x51
 4527 0477 3A000000 		.4byte	.LVL68
 4528 047b 48000000 		.4byte	.LVL72
 4529 047f 0100     		.2byte	0x1
 4530 0481 56       		.byte	0x56
 4531 0482 48000000 		.4byte	.LVL72
 4532 0486 4E000000 		.4byte	.LFE43
 4533 048a 0400     		.2byte	0x4
 4534 048c F3       		.byte	0xf3
 4535 048d 01       		.uleb128 0x1
 4536 048e 51       		.byte	0x51
 4537 048f 9F       		.byte	0x9f
 4538 0490 00000000 		.4byte	0
 4539 0494 00000000 		.4byte	0
 4540              	.LLST26:
 4541 0498 00000000 		.4byte	.LVL59
 4542 049c 1E000000 		.4byte	.LVL63
 4543 04a0 0100     		.2byte	0x1
 4544 04a2 52       		.byte	0x52
 4545 04a3 1E000000 		.4byte	.LVL63
 4546 04a7 38000000 		.4byte	.LVL67
 4547 04ab 0100     		.2byte	0x1
 4548 04ad 57       		.byte	0x57
 4549 04ae 38000000 		.4byte	.LVL67
 4550 04b2 3A000000 		.4byte	.LVL68
 4551 04b6 0100     		.2byte	0x1
 4552 04b8 52       		.byte	0x52
 4553 04b9 3A000000 		.4byte	.LVL68
 4554 04bd 48000000 		.4byte	.LVL73
 4555 04c1 0100     		.2byte	0x1
 4556 04c3 57       		.byte	0x57
 4557 04c4 48000000 		.4byte	.LVL73
 4558 04c8 4E000000 		.4byte	.LFE43
 4559 04cc 0400     		.2byte	0x4
 4560 04ce F3       		.byte	0xf3
 4561 04cf 01       		.uleb128 0x1
 4562 04d0 52       		.byte	0x52
 4563 04d1 9F       		.byte	0x9f
 4564 04d2 00000000 		.4byte	0
ARM GAS  C:\Users\Xwx47\AppData\Local\Temp\ccZsRkco.s 			page 105


 4565 04d6 00000000 		.4byte	0
 4566              	.LLST27:
 4567 04da 00000000 		.4byte	.LVL59
 4568 04de 12000000 		.4byte	.LVL60
 4569 04e2 0100     		.2byte	0x1
 4570 04e4 53       		.byte	0x53
 4571 04e5 12000000 		.4byte	.LVL60
 4572 04e9 48000000 		.4byte	.LVL70
 4573 04ed 0100     		.2byte	0x1
 4574 04ef 54       		.byte	0x54
 4575 04f0 00000000 		.4byte	0
 4576 04f4 00000000 		.4byte	0
 4577              	.LLST28:
 4578 04f8 1A000000 		.4byte	.LVL61
 4579 04fc 1C000000 		.4byte	.LVL62
 4580 0500 0100     		.2byte	0x1
 4581 0502 53       		.byte	0x53
 4582 0503 1C000000 		.4byte	.LVL62
 4583 0507 38000000 		.4byte	.LVL67
 4584 050b 0100     		.2byte	0x1
 4585 050d 58       		.byte	0x58
 4586 050e 00000000 		.4byte	0
 4587 0512 00000000 		.4byte	0
 4588              	.LLST29:
 4589 0516 00000000 		.4byte	.LVL74
 4590 051a 10000000 		.4byte	.LVL76
 4591 051e 0100     		.2byte	0x1
 4592 0520 50       		.byte	0x50
 4593 0521 10000000 		.4byte	.LVL76
 4594 0525 2C000000 		.4byte	.LVL82
 4595 0529 0100     		.2byte	0x1
 4596 052b 56       		.byte	0x56
 4597 052c 2C000000 		.4byte	.LVL82
 4598 0530 2E000000 		.4byte	.LFE32
 4599 0534 0600     		.2byte	0x6
 4600 0536 F3       		.byte	0xf3
 4601 0537 01       		.uleb128 0x1
 4602 0538 50       		.byte	0x50
 4603 0539 23       		.byte	0x23
 4604 053a 01       		.uleb128 0x1
 4605 053b 9F       		.byte	0x9f
 4606 053c 00000000 		.4byte	0
 4607 0540 00000000 		.4byte	0
 4608              	.LLST30:
 4609 0544 00000000 		.4byte	.LVL74
 4610 0548 0E000000 		.4byte	.LVL75
 4611 054c 0100     		.2byte	0x1
 4612 054e 51       		.byte	0x51
 4613 054f 0E000000 		.4byte	.LVL75
 4614 0553 2C000000 		.4byte	.LVL81
 4615 0557 0100     		.2byte	0x1
 4616 0559 55       		.byte	0x55
 4617 055a 00000000 		.4byte	0
 4618 055e 00000000 		.4byte	0
 4619              	.LLST31:
 4620 0562 00000000 		.4byte	.LVL74
 4621 0566 15000000 		.4byte	.LVL77-1
ARM GAS  C:\Users\Xwx47\AppData\Local\Temp\ccZsRkco.s 			page 106


 4622 056a 0100     		.2byte	0x1
 4623 056c 52       		.byte	0x52
 4624 056d 15000000 		.4byte	.LVL77-1
 4625 0571 2C000000 		.4byte	.LVL83
 4626 0575 0100     		.2byte	0x1
 4627 0577 57       		.byte	0x57
 4628 0578 2C000000 		.4byte	.LVL83
 4629 057c 2E000000 		.4byte	.LFE32
 4630 0580 0400     		.2byte	0x4
 4631 0582 F3       		.byte	0xf3
 4632 0583 01       		.uleb128 0x1
 4633 0584 52       		.byte	0x52
 4634 0585 9F       		.byte	0x9f
 4635 0586 00000000 		.4byte	0
 4636 058a 00000000 		.4byte	0
 4637              	.LLST32:
 4638 058e 18000000 		.4byte	.LVL78
 4639 0592 27000000 		.4byte	.LVL79-1
 4640 0596 0100     		.2byte	0x1
 4641 0598 50       		.byte	0x50
 4642 0599 27000000 		.4byte	.LVL79-1
 4643 059d 2C000000 		.4byte	.LVL80
 4644 05a1 0100     		.2byte	0x1
 4645 05a3 54       		.byte	0x54
 4646 05a4 2C000000 		.4byte	.LVL80
 4647 05a8 2E000000 		.4byte	.LFE32
 4648 05ac 0100     		.2byte	0x1
 4649 05ae 50       		.byte	0x50
 4650 05af 00000000 		.4byte	0
 4651 05b3 00000000 		.4byte	0
 4652              	.LLST33:
 4653 05b7 00000000 		.4byte	.LVL84
 4654 05bb 0B000000 		.4byte	.LVL86-1
 4655 05bf 0100     		.2byte	0x1
 4656 05c1 50       		.byte	0x50
 4657 05c2 0B000000 		.4byte	.LVL86-1
 4658 05c6 0E000000 		.4byte	.LVL87
 4659 05ca 0400     		.2byte	0x4
 4660 05cc F3       		.byte	0xf3
 4661 05cd 01       		.uleb128 0x1
 4662 05ce 50       		.byte	0x50
 4663 05cf 9F       		.byte	0x9f
 4664 05d0 0E000000 		.4byte	.LVL87
 4665 05d4 15000000 		.4byte	.LVL88-1
 4666 05d8 0100     		.2byte	0x1
 4667 05da 50       		.byte	0x50
 4668 05db 15000000 		.4byte	.LVL88-1
 4669 05df 18000000 		.4byte	.LFE33
 4670 05e3 0400     		.2byte	0x4
 4671 05e5 F3       		.byte	0xf3
 4672 05e6 01       		.uleb128 0x1
 4673 05e7 50       		.byte	0x50
 4674 05e8 9F       		.byte	0x9f
 4675 05e9 00000000 		.4byte	0
 4676 05ed 00000000 		.4byte	0
 4677              	.LLST34:
 4678 05f1 02000000 		.4byte	.LVL85
ARM GAS  C:\Users\Xwx47\AppData\Local\Temp\ccZsRkco.s 			page 107


 4679 05f5 0B000000 		.4byte	.LVL86-1
 4680 05f9 0100     		.2byte	0x1
 4681 05fb 50       		.byte	0x50
 4682 05fc 0B000000 		.4byte	.LVL86-1
 4683 0600 0E000000 		.4byte	.LVL87
 4684 0604 0400     		.2byte	0x4
 4685 0606 F3       		.byte	0xf3
 4686 0607 01       		.uleb128 0x1
 4687 0608 50       		.byte	0x50
 4688 0609 9F       		.byte	0x9f
 4689 060a 0E000000 		.4byte	.LVL87
 4690 060e 15000000 		.4byte	.LVL88-1
 4691 0612 0100     		.2byte	0x1
 4692 0614 50       		.byte	0x50
 4693 0615 15000000 		.4byte	.LVL88-1
 4694 0619 18000000 		.4byte	.LFE33
 4695 061d 0400     		.2byte	0x4
 4696 061f F3       		.byte	0xf3
 4697 0620 01       		.uleb128 0x1
 4698 0621 50       		.byte	0x50
 4699 0622 9F       		.byte	0x9f
 4700 0623 00000000 		.4byte	0
 4701 0627 00000000 		.4byte	0
 4702              	.LLST35:
 4703 062b 00000000 		.4byte	.LVL89
 4704 062f 27000000 		.4byte	.LVL93-1
 4705 0633 0100     		.2byte	0x1
 4706 0635 50       		.byte	0x50
 4707 0636 27000000 		.4byte	.LVL93-1
 4708 063a 2C000000 		.4byte	.LVL94
 4709 063e 0400     		.2byte	0x4
 4710 0640 F3       		.byte	0xf3
 4711 0641 01       		.uleb128 0x1
 4712 0642 50       		.byte	0x50
 4713 0643 9F       		.byte	0x9f
 4714 0644 2C000000 		.4byte	.LVL94
 4715 0648 2E000000 		.4byte	.LVL95
 4716 064c 0100     		.2byte	0x1
 4717 064e 50       		.byte	0x50
 4718 064f 2E000000 		.4byte	.LVL95
 4719 0653 30000000 		.4byte	.LVL96
 4720 0657 0400     		.2byte	0x4
 4721 0659 F3       		.byte	0xf3
 4722 065a 01       		.uleb128 0x1
 4723 065b 50       		.byte	0x50
 4724 065c 9F       		.byte	0x9f
 4725 065d 30000000 		.4byte	.LVL96
 4726 0661 32000000 		.4byte	.LVL97
 4727 0665 0100     		.2byte	0x1
 4728 0667 50       		.byte	0x50
 4729 0668 32000000 		.4byte	.LVL97
 4730 066c 36000000 		.4byte	.LFE34
 4731 0670 0400     		.2byte	0x4
 4732 0672 F3       		.byte	0xf3
 4733 0673 01       		.uleb128 0x1
 4734 0674 50       		.byte	0x50
 4735 0675 9F       		.byte	0x9f
ARM GAS  C:\Users\Xwx47\AppData\Local\Temp\ccZsRkco.s 			page 108


 4736 0676 00000000 		.4byte	0
 4737 067a 00000000 		.4byte	0
 4738              	.LLST36:
 4739 067e 04000000 		.4byte	.LVL90
 4740 0682 27000000 		.4byte	.LVL93-1
 4741 0686 0100     		.2byte	0x1
 4742 0688 50       		.byte	0x50
 4743 0689 27000000 		.4byte	.LVL93-1
 4744 068d 2C000000 		.4byte	.LVL94
 4745 0691 0400     		.2byte	0x4
 4746 0693 F3       		.byte	0xf3
 4747 0694 01       		.uleb128 0x1
 4748 0695 50       		.byte	0x50
 4749 0696 9F       		.byte	0x9f
 4750 0697 2C000000 		.4byte	.LVL94
 4751 069b 2E000000 		.4byte	.LVL95
 4752 069f 0100     		.2byte	0x1
 4753 06a1 50       		.byte	0x50
 4754 06a2 2E000000 		.4byte	.LVL95
 4755 06a6 30000000 		.4byte	.LVL96
 4756 06aa 0400     		.2byte	0x4
 4757 06ac F3       		.byte	0xf3
 4758 06ad 01       		.uleb128 0x1
 4759 06ae 50       		.byte	0x50
 4760 06af 9F       		.byte	0x9f
 4761 06b0 30000000 		.4byte	.LVL96
 4762 06b4 32000000 		.4byte	.LVL97
 4763 06b8 0100     		.2byte	0x1
 4764 06ba 50       		.byte	0x50
 4765 06bb 32000000 		.4byte	.LVL97
 4766 06bf 36000000 		.4byte	.LFE34
 4767 06c3 0400     		.2byte	0x4
 4768 06c5 F3       		.byte	0xf3
 4769 06c6 01       		.uleb128 0x1
 4770 06c7 50       		.byte	0x50
 4771 06c8 9F       		.byte	0x9f
 4772 06c9 00000000 		.4byte	0
 4773 06cd 00000000 		.4byte	0
 4774              	.LLST37:
 4775 06d1 04000000 		.4byte	.LVL90
 4776 06d5 28000000 		.4byte	.LVL93
 4777 06d9 0200     		.2byte	0x2
 4778 06db 30       		.byte	0x30
 4779 06dc 9F       		.byte	0x9f
 4780 06dd 28000000 		.4byte	.LVL93
 4781 06e1 2C000000 		.4byte	.LVL94
 4782 06e5 0200     		.2byte	0x2
 4783 06e7 31       		.byte	0x31
 4784 06e8 9F       		.byte	0x9f
 4785 06e9 2C000000 		.4byte	.LVL94
 4786 06ed 32000000 		.4byte	.LVL97
 4787 06f1 0200     		.2byte	0x2
 4788 06f3 30       		.byte	0x30
 4789 06f4 9F       		.byte	0x9f
 4790 06f5 32000000 		.4byte	.LVL97
 4791 06f9 36000000 		.4byte	.LFE34
 4792 06fd 0100     		.2byte	0x1
ARM GAS  C:\Users\Xwx47\AppData\Local\Temp\ccZsRkco.s 			page 109


 4793 06ff 50       		.byte	0x50
 4794 0700 00000000 		.4byte	0
 4795 0704 00000000 		.4byte	0
 4796              	.LLST38:
 4797 0708 1C000000 		.4byte	.LVL91
 4798 070c 20000000 		.4byte	.LVL92
 4799 0710 0100     		.2byte	0x1
 4800 0712 53       		.byte	0x53
 4801 0713 20000000 		.4byte	.LVL92
 4802 0717 27000000 		.4byte	.LVL93-1
 4803 071b 0200     		.2byte	0x2
 4804 071d 7D       		.byte	0x7d
 4805 071e 00       		.sleb128 0
 4806 071f 00000000 		.4byte	0
 4807 0723 00000000 		.4byte	0
 4808              	.LLST39:
 4809 0727 00000000 		.4byte	.LVL98
 4810 072b 10000000 		.4byte	.LVL101
 4811 072f 0100     		.2byte	0x1
 4812 0731 50       		.byte	0x50
 4813 0732 10000000 		.4byte	.LVL101
 4814 0736 12000000 		.4byte	.LVL102
 4815 073a 0400     		.2byte	0x4
 4816 073c F3       		.byte	0xf3
 4817 073d 01       		.uleb128 0x1
 4818 073e 50       		.byte	0x50
 4819 073f 9F       		.byte	0x9f
 4820 0740 12000000 		.4byte	.LVL102
 4821 0744 14000000 		.4byte	.LVL103
 4822 0748 0100     		.2byte	0x1
 4823 074a 50       		.byte	0x50
 4824 074b 14000000 		.4byte	.LVL103
 4825 074f 16000000 		.4byte	.LFE35
 4826 0753 0400     		.2byte	0x4
 4827 0755 F3       		.byte	0xf3
 4828 0756 01       		.uleb128 0x1
 4829 0757 50       		.byte	0x50
 4830 0758 9F       		.byte	0x9f
 4831 0759 00000000 		.4byte	0
 4832 075d 00000000 		.4byte	0
 4833              	.LLST40:
 4834 0761 00000000 		.4byte	.LVL98
 4835 0765 06000000 		.4byte	.LVL99
 4836 0769 0100     		.2byte	0x1
 4837 076b 51       		.byte	0x51
 4838 076c 06000000 		.4byte	.LVL99
 4839 0770 16000000 		.4byte	.LFE35
 4840 0774 0100     		.2byte	0x1
 4841 0776 51       		.byte	0x51
 4842 0777 00000000 		.4byte	0
 4843 077b 00000000 		.4byte	0
 4844              	.LLST41:
 4845 077f 00000000 		.4byte	.LVL98
 4846 0783 10000000 		.4byte	.LVL101
 4847 0787 0100     		.2byte	0x1
 4848 0789 50       		.byte	0x50
 4849 078a 10000000 		.4byte	.LVL101
ARM GAS  C:\Users\Xwx47\AppData\Local\Temp\ccZsRkco.s 			page 110


 4850 078e 12000000 		.4byte	.LVL102
 4851 0792 0400     		.2byte	0x4
 4852 0794 F3       		.byte	0xf3
 4853 0795 01       		.uleb128 0x1
 4854 0796 50       		.byte	0x50
 4855 0797 9F       		.byte	0x9f
 4856 0798 12000000 		.4byte	.LVL102
 4857 079c 14000000 		.4byte	.LVL103
 4858 07a0 0100     		.2byte	0x1
 4859 07a2 50       		.byte	0x50
 4860 07a3 14000000 		.4byte	.LVL103
 4861 07a7 16000000 		.4byte	.LFE35
 4862 07ab 0400     		.2byte	0x4
 4863 07ad F3       		.byte	0xf3
 4864 07ae 01       		.uleb128 0x1
 4865 07af 50       		.byte	0x50
 4866 07b0 9F       		.byte	0x9f
 4867 07b1 00000000 		.4byte	0
 4868 07b5 00000000 		.4byte	0
 4869              	.LLST42:
 4870 07b9 0E000000 		.4byte	.LVL100
 4871 07bd 12000000 		.4byte	.LVL102
 4872 07c1 0200     		.2byte	0x2
 4873 07c3 31       		.byte	0x31
 4874 07c4 9F       		.byte	0x9f
 4875 07c5 14000000 		.4byte	.LVL103
 4876 07c9 16000000 		.4byte	.LFE35
 4877 07cd 0100     		.2byte	0x1
 4878 07cf 50       		.byte	0x50
 4879 07d0 00000000 		.4byte	0
 4880 07d4 00000000 		.4byte	0
 4881              	.LLST43:
 4882 07d8 00000000 		.4byte	.LVL104
 4883 07dc 08000000 		.4byte	.LVL106
 4884 07e0 0100     		.2byte	0x1
 4885 07e2 50       		.byte	0x50
 4886 07e3 08000000 		.4byte	.LVL106
 4887 07e7 14000000 		.4byte	.LFE36
 4888 07eb 0400     		.2byte	0x4
 4889 07ed F3       		.byte	0xf3
 4890 07ee 01       		.uleb128 0x1
 4891 07ef 50       		.byte	0x50
 4892 07f0 9F       		.byte	0x9f
 4893 07f1 00000000 		.4byte	0
 4894 07f5 00000000 		.4byte	0
 4895              	.LLST44:
 4896 07f9 00000000 		.4byte	.LVL104
 4897 07fd 08000000 		.4byte	.LVL106
 4898 0801 0100     		.2byte	0x1
 4899 0803 50       		.byte	0x50
 4900 0804 08000000 		.4byte	.LVL106
 4901 0808 14000000 		.4byte	.LFE36
 4902 080c 0400     		.2byte	0x4
 4903 080e F3       		.byte	0xf3
 4904 080f 01       		.uleb128 0x1
 4905 0810 50       		.byte	0x50
 4906 0811 9F       		.byte	0x9f
ARM GAS  C:\Users\Xwx47\AppData\Local\Temp\ccZsRkco.s 			page 111


 4907 0812 00000000 		.4byte	0
 4908 0816 00000000 		.4byte	0
 4909              	.LLST45:
 4910 081a 06000000 		.4byte	.LVL105
 4911 081e 0A000000 		.4byte	.LVL107
 4912 0822 0100     		.2byte	0x1
 4913 0824 53       		.byte	0x53
 4914 0825 0A000000 		.4byte	.LVL107
 4915 0829 14000000 		.4byte	.LFE36
 4916 082d 0100     		.2byte	0x1
 4917 082f 50       		.byte	0x50
 4918 0830 00000000 		.4byte	0
 4919 0834 00000000 		.4byte	0
 4920              	.LLST46:
 4921 0838 00000000 		.4byte	.LVL110
 4922 083c 05000000 		.4byte	.LVL112-1
 4923 0840 0100     		.2byte	0x1
 4924 0842 50       		.byte	0x50
 4925 0843 05000000 		.4byte	.LVL112-1
 4926 0847 08000000 		.4byte	.LFE37
 4927 084b 0400     		.2byte	0x4
 4928 084d F3       		.byte	0xf3
 4929 084e 01       		.uleb128 0x1
 4930 084f 50       		.byte	0x50
 4931 0850 9F       		.byte	0x9f
 4932 0851 00000000 		.4byte	0
 4933 0855 00000000 		.4byte	0
 4934              	.LLST47:
 4935 0859 02000000 		.4byte	.LVL111
 4936 085d 05000000 		.4byte	.LVL112-1
 4937 0861 0100     		.2byte	0x1
 4938 0863 50       		.byte	0x50
 4939 0864 05000000 		.4byte	.LVL112-1
 4940 0868 08000000 		.4byte	.LFE37
 4941 086c 0400     		.2byte	0x4
 4942 086e F3       		.byte	0xf3
 4943 086f 01       		.uleb128 0x1
 4944 0870 50       		.byte	0x50
 4945 0871 9F       		.byte	0x9f
 4946 0872 00000000 		.4byte	0
 4947 0876 00000000 		.4byte	0
 4948              	.LLST48:
 4949 087a 00000000 		.4byte	.LVL113
 4950 087e 20000000 		.4byte	.LVL119
 4951 0882 0100     		.2byte	0x1
 4952 0884 50       		.byte	0x50
 4953 0885 20000000 		.4byte	.LVL119
 4954 0889 6A000000 		.4byte	.LVL133
 4955 088d 0100     		.2byte	0x1
 4956 088f 54       		.byte	0x54
 4957 0890 6A000000 		.4byte	.LVL133
 4958 0894 6C000000 		.4byte	.LVL134
 4959 0898 0100     		.2byte	0x1
 4960 089a 50       		.byte	0x50
 4961 089b 6C000000 		.4byte	.LVL134
 4962 089f B8000000 		.4byte	.LVL144
 4963 08a3 0100     		.2byte	0x1
ARM GAS  C:\Users\Xwx47\AppData\Local\Temp\ccZsRkco.s 			page 112


 4964 08a5 54       		.byte	0x54
 4965 08a6 B8000000 		.4byte	.LVL144
 4966 08aa BA000000 		.4byte	.LFE38
 4967 08ae 0400     		.2byte	0x4
 4968 08b0 F3       		.byte	0xf3
 4969 08b1 01       		.uleb128 0x1
 4970 08b2 50       		.byte	0x50
 4971 08b3 9F       		.byte	0x9f
 4972 08b4 00000000 		.4byte	0
 4973 08b8 00000000 		.4byte	0
 4974              	.LLST49:
 4975 08bc 00000000 		.4byte	.LVL113
 4976 08c0 23000000 		.4byte	.LVL120-1
 4977 08c4 0100     		.2byte	0x1
 4978 08c6 51       		.byte	0x51
 4979 08c7 23000000 		.4byte	.LVL120-1
 4980 08cb 6A000000 		.4byte	.LVL133
 4981 08cf 0200     		.2byte	0x2
 4982 08d1 91       		.byte	0x91
 4983 08d2 58       		.sleb128 -40
 4984 08d3 6A000000 		.4byte	.LVL133
 4985 08d7 6C000000 		.4byte	.LVL134
 4986 08db 0100     		.2byte	0x1
 4987 08dd 51       		.byte	0x51
 4988 08de 6C000000 		.4byte	.LVL134
 4989 08e2 BA000000 		.4byte	.LFE38
 4990 08e6 0200     		.2byte	0x2
 4991 08e8 91       		.byte	0x91
 4992 08e9 58       		.sleb128 -40
 4993 08ea 00000000 		.4byte	0
 4994 08ee 00000000 		.4byte	0
 4995              	.LLST50:
 4996 08f2 00000000 		.4byte	.LVL113
 4997 08f6 23000000 		.4byte	.LVL120-1
 4998 08fa 0100     		.2byte	0x1
 4999 08fc 52       		.byte	0x52
 5000 08fd 23000000 		.4byte	.LVL120-1
 5001 0901 6A000000 		.4byte	.LVL133
 5002 0905 0100     		.2byte	0x1
 5003 0907 56       		.byte	0x56
 5004 0908 6A000000 		.4byte	.LVL133
 5005 090c 6C000000 		.4byte	.LVL134
 5006 0910 0100     		.2byte	0x1
 5007 0912 52       		.byte	0x52
 5008 0913 6C000000 		.4byte	.LVL134
 5009 0917 B8000000 		.4byte	.LVL146
 5010 091b 0100     		.2byte	0x1
 5011 091d 56       		.byte	0x56
 5012 091e B8000000 		.4byte	.LVL146
 5013 0922 BA000000 		.4byte	.LFE38
 5014 0926 0400     		.2byte	0x4
 5015 0928 F3       		.byte	0xf3
 5016 0929 01       		.uleb128 0x1
 5017 092a 52       		.byte	0x52
 5018 092b 9F       		.byte	0x9f
 5019 092c 00000000 		.4byte	0
 5020 0930 00000000 		.4byte	0
ARM GAS  C:\Users\Xwx47\AppData\Local\Temp\ccZsRkco.s 			page 113


 5021              	.LLST51:
 5022 0934 00000000 		.4byte	.LVL113
 5023 0938 0E000000 		.4byte	.LVL115
 5024 093c 0100     		.2byte	0x1
 5025 093e 53       		.byte	0x53
 5026 093f 0E000000 		.4byte	.LVL115
 5027 0943 58000000 		.4byte	.LVL129
 5028 0947 0200     		.2byte	0x2
 5029 0949 91       		.byte	0x91
 5030 094a 5C       		.sleb128 -36
 5031 094b 58000000 		.4byte	.LVL129
 5032 094f 5D000000 		.4byte	.LVL130-1
 5033 0953 0200     		.2byte	0x2
 5034 0955 71       		.byte	0x71
 5035 0956 00       		.sleb128 0
 5036 0957 5D000000 		.4byte	.LVL130-1
 5037 095b BA000000 		.4byte	.LFE38
 5038 095f 0200     		.2byte	0x2
 5039 0961 91       		.byte	0x91
 5040 0962 5C       		.sleb128 -36
 5041 0963 00000000 		.4byte	0
 5042 0967 00000000 		.4byte	0
 5043              	.LLST52:
 5044 096b 0C000000 		.4byte	.LVL114
 5045 096f 20000000 		.4byte	.LVL119
 5046 0973 0100     		.2byte	0x1
 5047 0975 50       		.byte	0x50
 5048 0976 20000000 		.4byte	.LVL119
 5049 097a 6A000000 		.4byte	.LVL133
 5050 097e 0100     		.2byte	0x1
 5051 0980 54       		.byte	0x54
 5052 0981 6A000000 		.4byte	.LVL133
 5053 0985 6C000000 		.4byte	.LVL134
 5054 0989 0100     		.2byte	0x1
 5055 098b 50       		.byte	0x50
 5056 098c 6C000000 		.4byte	.LVL134
 5057 0990 B8000000 		.4byte	.LVL144
 5058 0994 0100     		.2byte	0x1
 5059 0996 54       		.byte	0x54
 5060 0997 B8000000 		.4byte	.LVL144
 5061 099b BA000000 		.4byte	.LFE38
 5062 099f 0400     		.2byte	0x4
 5063 09a1 F3       		.byte	0xf3
 5064 09a2 01       		.uleb128 0x1
 5065 09a3 50       		.byte	0x50
 5066 09a4 9F       		.byte	0x9f
 5067 09a5 00000000 		.4byte	0
 5068 09a9 00000000 		.4byte	0
 5069              	.LLST53:
 5070 09ad 88000000 		.4byte	.LVL138
 5071 09b1 8C000000 		.4byte	.LVL139
 5072 09b5 0100     		.2byte	0x1
 5073 09b7 50       		.byte	0x50
 5074 09b8 8C000000 		.4byte	.LVL139
 5075 09bc B8000000 		.4byte	.LVL145
 5076 09c0 0100     		.2byte	0x1
 5077 09c2 55       		.byte	0x55
ARM GAS  C:\Users\Xwx47\AppData\Local\Temp\ccZsRkco.s 			page 114


 5078 09c3 B8000000 		.4byte	.LVL145
 5079 09c7 BA000000 		.4byte	.LFE38
 5080 09cb 0100     		.2byte	0x1
 5081 09cd 50       		.byte	0x50
 5082 09ce 00000000 		.4byte	0
 5083 09d2 00000000 		.4byte	0
 5084              	.LLST54:
 5085 09d6 0C000000 		.4byte	.LVL114
 5086 09da 24000000 		.4byte	.LVL120
 5087 09de 0200     		.2byte	0x2
 5088 09e0 30       		.byte	0x30
 5089 09e1 9F       		.byte	0x9f
 5090 09e2 30000000 		.4byte	.LVL123
 5091 09e6 36000000 		.4byte	.LVL124
 5092 09ea 0100     		.2byte	0x1
 5093 09ec 50       		.byte	0x50
 5094 09ed 36000000 		.4byte	.LVL124
 5095 09f1 64000000 		.4byte	.LVL131
 5096 09f5 0100     		.2byte	0x1
 5097 09f7 55       		.byte	0x55
 5098 09f8 64000000 		.4byte	.LVL131
 5099 09fc 67000000 		.4byte	.LVL132-1
 5100 0a00 0100     		.2byte	0x1
 5101 0a02 50       		.byte	0x50
 5102 0a03 67000000 		.4byte	.LVL132-1
 5103 0a07 6A000000 		.4byte	.LVL133
 5104 0a0b 0100     		.2byte	0x1
 5105 0a0d 55       		.byte	0x55
 5106 0a0e 6A000000 		.4byte	.LVL133
 5107 0a12 6C000000 		.4byte	.LVL134
 5108 0a16 0200     		.2byte	0x2
 5109 0a18 30       		.byte	0x30
 5110 0a19 9F       		.byte	0x9f
 5111 0a1a 6C000000 		.4byte	.LVL134
 5112 0a1e 88000000 		.4byte	.LVL138
 5113 0a22 0100     		.2byte	0x1
 5114 0a24 55       		.byte	0x55
 5115 0a25 00000000 		.4byte	0
 5116 0a29 00000000 		.4byte	0
 5117              	.LLST55:
 5118 0a2d 0C000000 		.4byte	.LVL114
 5119 0a31 14000000 		.4byte	.LVL116
 5120 0a35 0100     		.2byte	0x1
 5121 0a37 52       		.byte	0x52
 5122 0a38 14000000 		.4byte	.LVL116
 5123 0a3c 16000000 		.4byte	.LVL117
 5124 0a40 0100     		.2byte	0x1
 5125 0a42 57       		.byte	0x57
 5126 0a43 16000000 		.4byte	.LVL117
 5127 0a47 18000000 		.4byte	.LVL118
 5128 0a4b 0100     		.2byte	0x1
 5129 0a4d 52       		.byte	0x52
 5130 0a4e 18000000 		.4byte	.LVL118
 5131 0a52 B8000000 		.4byte	.LVL147
 5132 0a56 0100     		.2byte	0x1
 5133 0a58 57       		.byte	0x57
 5134 0a59 00000000 		.4byte	0
ARM GAS  C:\Users\Xwx47\AppData\Local\Temp\ccZsRkco.s 			page 115


 5135 0a5d 00000000 		.4byte	0
 5136              	.LLST56:
 5137 0a61 00000000 		.4byte	.LVL148
 5138 0a65 1A000000 		.4byte	.LVL154
 5139 0a69 0100     		.2byte	0x1
 5140 0a6b 50       		.byte	0x50
 5141 0a6c 1A000000 		.4byte	.LVL154
 5142 0a70 66000000 		.4byte	.LVL167
 5143 0a74 0100     		.2byte	0x1
 5144 0a76 54       		.byte	0x54
 5145 0a77 66000000 		.4byte	.LVL167
 5146 0a7b 68000000 		.4byte	.LFE39
 5147 0a7f 0400     		.2byte	0x4
 5148 0a81 F3       		.byte	0xf3
 5149 0a82 01       		.uleb128 0x1
 5150 0a83 50       		.byte	0x50
 5151 0a84 9F       		.byte	0x9f
 5152 0a85 00000000 		.4byte	0
 5153 0a89 00000000 		.4byte	0
 5154              	.LLST57:
 5155 0a8d 00000000 		.4byte	.LVL148
 5156 0a91 1D000000 		.4byte	.LVL155-1
 5157 0a95 0100     		.2byte	0x1
 5158 0a97 51       		.byte	0x51
 5159 0a98 1D000000 		.4byte	.LVL155-1
 5160 0a9c 42000000 		.4byte	.LVL163
 5161 0aa0 0100     		.2byte	0x1
 5162 0aa2 57       		.byte	0x57
 5163 0aa3 42000000 		.4byte	.LVL163
 5164 0aa7 68000000 		.4byte	.LFE39
 5165 0aab 0400     		.2byte	0x4
 5166 0aad F3       		.byte	0xf3
 5167 0aae 01       		.uleb128 0x1
 5168 0aaf 51       		.byte	0x51
 5169 0ab0 9F       		.byte	0x9f
 5170 0ab1 00000000 		.4byte	0
 5171 0ab5 00000000 		.4byte	0
 5172              	.LLST58:
 5173 0ab9 00000000 		.4byte	.LVL148
 5174 0abd 1D000000 		.4byte	.LVL155-1
 5175 0ac1 0100     		.2byte	0x1
 5176 0ac3 52       		.byte	0x52
 5177 0ac4 1D000000 		.4byte	.LVL155-1
 5178 0ac8 2E000000 		.4byte	.LVL159
 5179 0acc 0100     		.2byte	0x1
 5180 0ace 55       		.byte	0x55
 5181 0acf 2E000000 		.4byte	.LVL159
 5182 0ad3 68000000 		.4byte	.LFE39
 5183 0ad7 0400     		.2byte	0x4
 5184 0ad9 F3       		.byte	0xf3
 5185 0ada 01       		.uleb128 0x1
 5186 0adb 52       		.byte	0x52
 5187 0adc 9F       		.byte	0x9f
 5188 0add 00000000 		.4byte	0
 5189 0ae1 00000000 		.4byte	0
 5190              	.LLST59:
 5191 0ae5 00000000 		.4byte	.LVL148
ARM GAS  C:\Users\Xwx47\AppData\Local\Temp\ccZsRkco.s 			page 116


 5192 0ae9 0E000000 		.4byte	.LVL150
 5193 0aed 0100     		.2byte	0x1
 5194 0aef 53       		.byte	0x53
 5195 0af0 0E000000 		.4byte	.LVL150
 5196 0af4 68000000 		.4byte	.LFE39
 5197 0af8 0200     		.2byte	0x2
 5198 0afa 91       		.byte	0x91
 5199 0afb 64       		.sleb128 -28
 5200 0afc 00000000 		.4byte	0
 5201 0b00 00000000 		.4byte	0
 5202              	.LLST60:
 5203 0b04 0C000000 		.4byte	.LVL149
 5204 0b08 1A000000 		.4byte	.LVL154
 5205 0b0c 0100     		.2byte	0x1
 5206 0b0e 50       		.byte	0x50
 5207 0b0f 1A000000 		.4byte	.LVL154
 5208 0b13 66000000 		.4byte	.LVL167
 5209 0b17 0100     		.2byte	0x1
 5210 0b19 54       		.byte	0x54
 5211 0b1a 66000000 		.4byte	.LVL167
 5212 0b1e 68000000 		.4byte	.LFE39
 5213 0b22 0400     		.2byte	0x4
 5214 0b24 F3       		.byte	0xf3
 5215 0b25 01       		.uleb128 0x1
 5216 0b26 50       		.byte	0x50
 5217 0b27 9F       		.byte	0x9f
 5218 0b28 00000000 		.4byte	0
 5219 0b2c 00000000 		.4byte	0
 5220              	.LLST61:
 5221 0b30 2E000000 		.4byte	.LVL159
 5222 0b34 32000000 		.4byte	.LVL160
 5223 0b38 0100     		.2byte	0x1
 5224 0b3a 50       		.byte	0x50
 5225 0b3b 32000000 		.4byte	.LVL160
 5226 0b3f 66000000 		.4byte	.LVL168
 5227 0b43 0100     		.2byte	0x1
 5228 0b45 55       		.byte	0x55
 5229 0b46 66000000 		.4byte	.LVL168
 5230 0b4a 68000000 		.4byte	.LFE39
 5231 0b4e 0100     		.2byte	0x1
 5232 0b50 50       		.byte	0x50
 5233 0b51 00000000 		.4byte	0
 5234 0b55 00000000 		.4byte	0
 5235              	.LLST62:
 5236 0b59 20000000 		.4byte	.LVL156
 5237 0b5d 28000000 		.4byte	.LVL157
 5238 0b61 0100     		.2byte	0x1
 5239 0b63 50       		.byte	0x50
 5240 0b64 28000000 		.4byte	.LVL157
 5241 0b68 2B000000 		.4byte	.LVL158-1
 5242 0b6c 0100     		.2byte	0x1
 5243 0b6e 53       		.byte	0x53
 5244 0b6f 00000000 		.4byte	0
 5245 0b73 00000000 		.4byte	0
 5246              	.LLST63:
 5247 0b77 0C000000 		.4byte	.LVL149
 5248 0b7b 14000000 		.4byte	.LVL151
ARM GAS  C:\Users\Xwx47\AppData\Local\Temp\ccZsRkco.s 			page 117


 5249 0b7f 0100     		.2byte	0x1
 5250 0b81 52       		.byte	0x52
 5251 0b82 14000000 		.4byte	.LVL151
 5252 0b86 16000000 		.4byte	.LVL152
 5253 0b8a 0100     		.2byte	0x1
 5254 0b8c 56       		.byte	0x56
 5255 0b8d 16000000 		.4byte	.LVL152
 5256 0b91 18000000 		.4byte	.LVL153
 5257 0b95 0100     		.2byte	0x1
 5258 0b97 52       		.byte	0x52
 5259 0b98 18000000 		.4byte	.LVL153
 5260 0b9c 66000000 		.4byte	.LVL169
 5261 0ba0 0100     		.2byte	0x1
 5262 0ba2 56       		.byte	0x56
 5263 0ba3 00000000 		.4byte	0
 5264 0ba7 00000000 		.4byte	0
 5265              	.LLST64:
 5266 0bab 42000000 		.4byte	.LVL163
 5267 0baf 4A000000 		.4byte	.LVL164
 5268 0bb3 0100     		.2byte	0x1
 5269 0bb5 50       		.byte	0x50
 5270 0bb6 4A000000 		.4byte	.LVL164
 5271 0bba 62000000 		.4byte	.LVL166
 5272 0bbe 0100     		.2byte	0x1
 5273 0bc0 57       		.byte	0x57
 5274 0bc1 00000000 		.4byte	0
 5275 0bc5 00000000 		.4byte	0
 5276              	.LLST65:
 5277 0bc9 00000000 		.4byte	.LVL170
 5278 0bcd 1F000000 		.4byte	.LVL174-1
 5279 0bd1 0100     		.2byte	0x1
 5280 0bd3 50       		.byte	0x50
 5281 0bd4 1F000000 		.4byte	.LVL174-1
 5282 0bd8 5C000000 		.4byte	.LVL184
 5283 0bdc 0100     		.2byte	0x1
 5284 0bde 54       		.byte	0x54
 5285 0bdf 5C000000 		.4byte	.LVL184
 5286 0be3 5E000000 		.4byte	.LVL185
 5287 0be7 0100     		.2byte	0x1
 5288 0be9 50       		.byte	0x50
 5289 0bea 5E000000 		.4byte	.LVL185
 5290 0bee A0000000 		.4byte	.LVL195
 5291 0bf2 0100     		.2byte	0x1
 5292 0bf4 54       		.byte	0x54
 5293 0bf5 A0000000 		.4byte	.LVL195
 5294 0bf9 A2000000 		.4byte	.LFE41
 5295 0bfd 0400     		.2byte	0x4
 5296 0bff F3       		.byte	0xf3
 5297 0c00 01       		.uleb128 0x1
 5298 0c01 50       		.byte	0x50
 5299 0c02 9F       		.byte	0x9f
 5300 0c03 00000000 		.4byte	0
 5301 0c07 00000000 		.4byte	0
 5302              	.LLST66:
 5303 0c0b 00000000 		.4byte	.LVL170
 5304 0c0f 1F000000 		.4byte	.LVL174-1
 5305 0c13 0100     		.2byte	0x1
ARM GAS  C:\Users\Xwx47\AppData\Local\Temp\ccZsRkco.s 			page 118


 5306 0c15 51       		.byte	0x51
 5307 0c16 1F000000 		.4byte	.LVL174-1
 5308 0c1a 5C000000 		.4byte	.LVL184
 5309 0c1e 0200     		.2byte	0x2
 5310 0c20 91       		.byte	0x91
 5311 0c21 60       		.sleb128 -32
 5312 0c22 5C000000 		.4byte	.LVL184
 5313 0c26 61000000 		.4byte	.LVL186-1
 5314 0c2a 0100     		.2byte	0x1
 5315 0c2c 51       		.byte	0x51
 5316 0c2d 61000000 		.4byte	.LVL186-1
 5317 0c31 A2000000 		.4byte	.LFE41
 5318 0c35 0200     		.2byte	0x2
 5319 0c37 91       		.byte	0x91
 5320 0c38 60       		.sleb128 -32
 5321 0c39 00000000 		.4byte	0
 5322 0c3d 00000000 		.4byte	0
 5323              	.LLST67:
 5324 0c41 00000000 		.4byte	.LVL170
 5325 0c45 1F000000 		.4byte	.LVL174-1
 5326 0c49 0100     		.2byte	0x1
 5327 0c4b 52       		.byte	0x52
 5328 0c4c 1F000000 		.4byte	.LVL174-1
 5329 0c50 5C000000 		.4byte	.LVL184
 5330 0c54 0200     		.2byte	0x2
 5331 0c56 91       		.byte	0x91
 5332 0c57 64       		.sleb128 -28
 5333 0c58 5C000000 		.4byte	.LVL184
 5334 0c5c 61000000 		.4byte	.LVL186-1
 5335 0c60 0100     		.2byte	0x1
 5336 0c62 52       		.byte	0x52
 5337 0c63 61000000 		.4byte	.LVL186-1
 5338 0c67 A2000000 		.4byte	.LFE41
 5339 0c6b 0200     		.2byte	0x2
 5340 0c6d 91       		.byte	0x91
 5341 0c6e 64       		.sleb128 -28
 5342 0c6f 00000000 		.4byte	0
 5343 0c73 00000000 		.4byte	0
 5344              	.LLST68:
 5345 0c77 00000000 		.4byte	.LVL170
 5346 0c7b 0E000000 		.4byte	.LVL172
 5347 0c7f 0100     		.2byte	0x1
 5348 0c81 53       		.byte	0x53
 5349 0c82 0E000000 		.4byte	.LVL172
 5350 0c86 A0000000 		.4byte	.LVL198
 5351 0c8a 0100     		.2byte	0x1
 5352 0c8c 57       		.byte	0x57
 5353 0c8d A0000000 		.4byte	.LVL198
 5354 0c91 A2000000 		.4byte	.LFE41
 5355 0c95 0400     		.2byte	0x4
 5356 0c97 F3       		.byte	0xf3
 5357 0c98 01       		.uleb128 0x1
 5358 0c99 53       		.byte	0x53
 5359 0c9a 9F       		.byte	0x9f
 5360 0c9b 00000000 		.4byte	0
 5361 0c9f 00000000 		.4byte	0
 5362              	.LLST69:
ARM GAS  C:\Users\Xwx47\AppData\Local\Temp\ccZsRkco.s 			page 119


 5363 0ca3 0C000000 		.4byte	.LVL171
 5364 0ca7 1F000000 		.4byte	.LVL174-1
 5365 0cab 0100     		.2byte	0x1
 5366 0cad 50       		.byte	0x50
 5367 0cae 1F000000 		.4byte	.LVL174-1
 5368 0cb2 5C000000 		.4byte	.LVL184
 5369 0cb6 0100     		.2byte	0x1
 5370 0cb8 54       		.byte	0x54
 5371 0cb9 5C000000 		.4byte	.LVL184
 5372 0cbd 5E000000 		.4byte	.LVL185
 5373 0cc1 0100     		.2byte	0x1
 5374 0cc3 50       		.byte	0x50
 5375 0cc4 5E000000 		.4byte	.LVL185
 5376 0cc8 A0000000 		.4byte	.LVL195
 5377 0ccc 0100     		.2byte	0x1
 5378 0cce 54       		.byte	0x54
 5379 0ccf A0000000 		.4byte	.LVL195
 5380 0cd3 A2000000 		.4byte	.LFE41
 5381 0cd7 0400     		.2byte	0x4
 5382 0cd9 F3       		.byte	0xf3
 5383 0cda 01       		.uleb128 0x1
 5384 0cdb 50       		.byte	0x50
 5385 0cdc 9F       		.byte	0x9f
 5386 0cdd 00000000 		.4byte	0
 5387 0ce1 00000000 		.4byte	0
 5388              	.LLST70:
 5389 0ce5 0C000000 		.4byte	.LVL171
 5390 0ce9 78000000 		.4byte	.LVL189
 5391 0ced 0200     		.2byte	0x2
 5392 0cef 30       		.byte	0x30
 5393 0cf0 9F       		.byte	0x9f
 5394 0cf1 78000000 		.4byte	.LVL189
 5395 0cf5 7D000000 		.4byte	.LVL190-1
 5396 0cf9 0100     		.2byte	0x1
 5397 0cfb 50       		.byte	0x50
 5398 0cfc 7D000000 		.4byte	.LVL190-1
 5399 0d00 9A000000 		.4byte	.LVL193
 5400 0d04 0100     		.2byte	0x1
 5401 0d06 55       		.byte	0x55
 5402 0d07 9A000000 		.4byte	.LVL193
 5403 0d0b 9C000000 		.4byte	.LVL194
 5404 0d0f 0200     		.2byte	0x2
 5405 0d11 30       		.byte	0x30
 5406 0d12 9F       		.byte	0x9f
 5407 0d13 9C000000 		.4byte	.LVL194
 5408 0d17 A0000000 		.4byte	.LVL196
 5409 0d1b 0100     		.2byte	0x1
 5410 0d1d 55       		.byte	0x55
 5411 0d1e A0000000 		.4byte	.LVL196
 5412 0d22 A2000000 		.4byte	.LFE41
 5413 0d26 0100     		.2byte	0x1
 5414 0d28 50       		.byte	0x50
 5415 0d29 00000000 		.4byte	0
 5416 0d2d 00000000 		.4byte	0
 5417              	.LLST71:
 5418 0d31 28000000 		.4byte	.LVL176
 5419 0d35 2E000000 		.4byte	.LVL177
ARM GAS  C:\Users\Xwx47\AppData\Local\Temp\ccZsRkco.s 			page 120


 5420 0d39 0100     		.2byte	0x1
 5421 0d3b 50       		.byte	0x50
 5422 0d3c 2E000000 		.4byte	.LVL177
 5423 0d40 5A000000 		.4byte	.LVL183
 5424 0d44 0100     		.2byte	0x1
 5425 0d46 55       		.byte	0x55
 5426 0d47 5A000000 		.4byte	.LVL183
 5427 0d4b 5C000000 		.4byte	.LVL184
 5428 0d4f 0100     		.2byte	0x1
 5429 0d51 50       		.byte	0x50
 5430 0d52 64000000 		.4byte	.LVL187
 5431 0d56 78000000 		.4byte	.LVL189
 5432 0d5a 0100     		.2byte	0x1
 5433 0d5c 55       		.byte	0x55
 5434 0d5d 9A000000 		.4byte	.LVL193
 5435 0d61 9C000000 		.4byte	.LVL194
 5436 0d65 0100     		.2byte	0x1
 5437 0d67 55       		.byte	0x55
 5438 0d68 00000000 		.4byte	0
 5439 0d6c 00000000 		.4byte	0
 5440              	.LLST72:
 5441 0d70 18000000 		.4byte	.LVL173
 5442 0d74 A0000000 		.4byte	.LVL197
 5443 0d78 0100     		.2byte	0x1
 5444 0d7a 56       		.byte	0x56
 5445 0d7b 00000000 		.4byte	0
 5446 0d7f 00000000 		.4byte	0
 5447              	.LLST73:
 5448 0d83 00000000 		.4byte	.LVL199
 5449 0d87 1A000000 		.4byte	.LVL203
 5450 0d8b 0100     		.2byte	0x1
 5451 0d8d 50       		.byte	0x50
 5452 0d8e 1A000000 		.4byte	.LVL203
 5453 0d92 60000000 		.4byte	.LVL215
 5454 0d96 0100     		.2byte	0x1
 5455 0d98 54       		.byte	0x54
 5456 0d99 60000000 		.4byte	.LVL215
 5457 0d9d 62000000 		.4byte	.LFE42
 5458 0da1 0400     		.2byte	0x4
 5459 0da3 F3       		.byte	0xf3
 5460 0da4 01       		.uleb128 0x1
 5461 0da5 50       		.byte	0x50
 5462 0da6 9F       		.byte	0x9f
 5463 0da7 00000000 		.4byte	0
 5464 0dab 00000000 		.4byte	0
 5465              	.LLST74:
 5466 0daf 00000000 		.4byte	.LVL199
 5467 0db3 1D000000 		.4byte	.LVL204-1
 5468 0db7 0100     		.2byte	0x1
 5469 0db9 51       		.byte	0x51
 5470 0dba 1D000000 		.4byte	.LVL204-1
 5471 0dbe 62000000 		.4byte	.LFE42
 5472 0dc2 0200     		.2byte	0x2
 5473 0dc4 91       		.byte	0x91
 5474 0dc5 64       		.sleb128 -28
 5475 0dc6 00000000 		.4byte	0
 5476 0dca 00000000 		.4byte	0
ARM GAS  C:\Users\Xwx47\AppData\Local\Temp\ccZsRkco.s 			page 121


 5477              	.LLST75:
 5478 0dce 00000000 		.4byte	.LVL199
 5479 0dd2 1D000000 		.4byte	.LVL204-1
 5480 0dd6 0100     		.2byte	0x1
 5481 0dd8 52       		.byte	0x52
 5482 0dd9 1D000000 		.4byte	.LVL204-1
 5483 0ddd 3A000000 		.4byte	.LVL209
 5484 0de1 0100     		.2byte	0x1
 5485 0de3 56       		.byte	0x56
 5486 0de4 3A000000 		.4byte	.LVL209
 5487 0de8 5A000000 		.4byte	.LVL213
 5488 0dec 0400     		.2byte	0x4
 5489 0dee F3       		.byte	0xf3
 5490 0def 01       		.uleb128 0x1
 5491 0df0 52       		.byte	0x52
 5492 0df1 9F       		.byte	0x9f
 5493 0df2 5A000000 		.4byte	.LVL213
 5494 0df6 5C000000 		.4byte	.LVL214
 5495 0dfa 0100     		.2byte	0x1
 5496 0dfc 56       		.byte	0x56
 5497 0dfd 5C000000 		.4byte	.LVL214
 5498 0e01 62000000 		.4byte	.LFE42
 5499 0e05 0400     		.2byte	0x4
 5500 0e07 F3       		.byte	0xf3
 5501 0e08 01       		.uleb128 0x1
 5502 0e09 52       		.byte	0x52
 5503 0e0a 9F       		.byte	0x9f
 5504 0e0b 00000000 		.4byte	0
 5505 0e0f 00000000 		.4byte	0
 5506              	.LLST76:
 5507 0e13 00000000 		.4byte	.LVL199
 5508 0e17 0E000000 		.4byte	.LVL201
 5509 0e1b 0100     		.2byte	0x1
 5510 0e1d 53       		.byte	0x53
 5511 0e1e 0E000000 		.4byte	.LVL201
 5512 0e22 60000000 		.4byte	.LVL217
 5513 0e26 0100     		.2byte	0x1
 5514 0e28 57       		.byte	0x57
 5515 0e29 60000000 		.4byte	.LVL217
 5516 0e2d 62000000 		.4byte	.LFE42
 5517 0e31 0400     		.2byte	0x4
 5518 0e33 F3       		.byte	0xf3
 5519 0e34 01       		.uleb128 0x1
 5520 0e35 53       		.byte	0x53
 5521 0e36 9F       		.byte	0x9f
 5522 0e37 00000000 		.4byte	0
 5523 0e3b 00000000 		.4byte	0
 5524              	.LLST77:
 5525 0e3f 0C000000 		.4byte	.LVL200
 5526 0e43 1A000000 		.4byte	.LVL203
 5527 0e47 0100     		.2byte	0x1
 5528 0e49 50       		.byte	0x50
 5529 0e4a 1A000000 		.4byte	.LVL203
 5530 0e4e 60000000 		.4byte	.LVL215
 5531 0e52 0100     		.2byte	0x1
 5532 0e54 54       		.byte	0x54
 5533 0e55 60000000 		.4byte	.LVL215
ARM GAS  C:\Users\Xwx47\AppData\Local\Temp\ccZsRkco.s 			page 122


 5534 0e59 62000000 		.4byte	.LFE42
 5535 0e5d 0400     		.2byte	0x4
 5536 0e5f F3       		.byte	0xf3
 5537 0e60 01       		.uleb128 0x1
 5538 0e61 50       		.byte	0x50
 5539 0e62 9F       		.byte	0x9f
 5540 0e63 00000000 		.4byte	0
 5541 0e67 00000000 		.4byte	0
 5542              	.LLST78:
 5543 0e6b 0C000000 		.4byte	.LVL200
 5544 0e6f 32000000 		.4byte	.LVL207
 5545 0e73 0200     		.2byte	0x2
 5546 0e75 30       		.byte	0x30
 5547 0e76 9F       		.byte	0x9f
 5548 0e77 32000000 		.4byte	.LVL207
 5549 0e7b 37000000 		.4byte	.LVL208-1
 5550 0e7f 0100     		.2byte	0x1
 5551 0e81 50       		.byte	0x50
 5552 0e82 37000000 		.4byte	.LVL208-1
 5553 0e86 5A000000 		.4byte	.LVL213
 5554 0e8a 0100     		.2byte	0x1
 5555 0e8c 55       		.byte	0x55
 5556 0e8d 5A000000 		.4byte	.LVL213
 5557 0e91 5C000000 		.4byte	.LVL214
 5558 0e95 0200     		.2byte	0x2
 5559 0e97 30       		.byte	0x30
 5560 0e98 9F       		.byte	0x9f
 5561 0e99 5C000000 		.4byte	.LVL214
 5562 0e9d 60000000 		.4byte	.LVL216
 5563 0ea1 0100     		.2byte	0x1
 5564 0ea3 55       		.byte	0x55
 5565 0ea4 60000000 		.4byte	.LVL216
 5566 0ea8 62000000 		.4byte	.LFE42
 5567 0eac 0100     		.2byte	0x1
 5568 0eae 50       		.byte	0x50
 5569 0eaf 00000000 		.4byte	0
 5570 0eb3 00000000 		.4byte	0
 5571              	.LLST79:
 5572 0eb7 1E000000 		.4byte	.LVL204
 5573 0ebb 2C000000 		.4byte	.LVL205
 5574 0ebf 0100     		.2byte	0x1
 5575 0ec1 50       		.byte	0x50
 5576 0ec2 2C000000 		.4byte	.LVL205
 5577 0ec6 2F000000 		.4byte	.LVL206-1
 5578 0eca 0100     		.2byte	0x1
 5579 0ecc 53       		.byte	0x53
 5580 0ecd 5A000000 		.4byte	.LVL213
 5581 0ed1 5C000000 		.4byte	.LVL214
 5582 0ed5 0100     		.2byte	0x1
 5583 0ed7 50       		.byte	0x50
 5584 0ed8 00000000 		.4byte	0
 5585 0edc 00000000 		.4byte	0
 5586              	.LLST80:
 5587 0ee0 18000000 		.4byte	.LVL202
 5588 0ee4 32000000 		.4byte	.LVL207
 5589 0ee8 0100     		.2byte	0x1
 5590 0eea 55       		.byte	0x55
ARM GAS  C:\Users\Xwx47\AppData\Local\Temp\ccZsRkco.s 			page 123


 5591 0eeb 5A000000 		.4byte	.LVL213
 5592 0eef 5C000000 		.4byte	.LVL214
 5593 0ef3 0100     		.2byte	0x1
 5594 0ef5 55       		.byte	0x55
 5595 0ef6 00000000 		.4byte	0
 5596 0efa 00000000 		.4byte	0
 5597              	.LLST81:
 5598 0efe 3A000000 		.4byte	.LVL209
 5599 0f02 42000000 		.4byte	.LVL210
 5600 0f06 0100     		.2byte	0x1
 5601 0f08 50       		.byte	0x50
 5602 0f09 42000000 		.4byte	.LVL210
 5603 0f0d 5A000000 		.4byte	.LVL213
 5604 0f11 0100     		.2byte	0x1
 5605 0f13 56       		.byte	0x56
 5606 0f14 00000000 		.4byte	0
 5607 0f18 00000000 		.4byte	0
 5608              	.LLST82:
 5609 0f1c 00000000 		.4byte	.LVL218
 5610 0f20 0A000000 		.4byte	.LVL220
 5611 0f24 0100     		.2byte	0x1
 5612 0f26 50       		.byte	0x50
 5613 0f27 0A000000 		.4byte	.LVL220
 5614 0f2b 0C000000 		.4byte	.LVL221
 5615 0f2f 0400     		.2byte	0x4
 5616 0f31 F3       		.byte	0xf3
 5617 0f32 01       		.uleb128 0x1
 5618 0f33 50       		.byte	0x50
 5619 0f34 9F       		.byte	0x9f
 5620 0f35 0C000000 		.4byte	.LVL221
 5621 0f39 0E000000 		.4byte	.LVL222
 5622 0f3d 0100     		.2byte	0x1
 5623 0f3f 50       		.byte	0x50
 5624 0f40 0E000000 		.4byte	.LVL222
 5625 0f44 10000000 		.4byte	.LFE44
 5626 0f48 0400     		.2byte	0x4
 5627 0f4a F3       		.byte	0xf3
 5628 0f4b 01       		.uleb128 0x1
 5629 0f4c 50       		.byte	0x50
 5630 0f4d 9F       		.byte	0x9f
 5631 0f4e 00000000 		.4byte	0
 5632 0f52 00000000 		.4byte	0
 5633              	.LLST83:
 5634 0f56 00000000 		.4byte	.LVL218
 5635 0f5a 0A000000 		.4byte	.LVL220
 5636 0f5e 0100     		.2byte	0x1
 5637 0f60 50       		.byte	0x50
 5638 0f61 0A000000 		.4byte	.LVL220
 5639 0f65 0C000000 		.4byte	.LVL221
 5640 0f69 0400     		.2byte	0x4
 5641 0f6b F3       		.byte	0xf3
 5642 0f6c 01       		.uleb128 0x1
 5643 0f6d 50       		.byte	0x50
 5644 0f6e 9F       		.byte	0x9f
 5645 0f6f 0C000000 		.4byte	.LVL221
 5646 0f73 0E000000 		.4byte	.LVL222
 5647 0f77 0100     		.2byte	0x1
ARM GAS  C:\Users\Xwx47\AppData\Local\Temp\ccZsRkco.s 			page 124


 5648 0f79 50       		.byte	0x50
 5649 0f7a 0E000000 		.4byte	.LVL222
 5650 0f7e 10000000 		.4byte	.LFE44
 5651 0f82 0400     		.2byte	0x4
 5652 0f84 F3       		.byte	0xf3
 5653 0f85 01       		.uleb128 0x1
 5654 0f86 50       		.byte	0x50
 5655 0f87 9F       		.byte	0x9f
 5656 0f88 00000000 		.4byte	0
 5657 0f8c 00000000 		.4byte	0
 5658              	.LLST84:
 5659 0f90 00000000 		.4byte	.LVL223
 5660 0f94 11000000 		.4byte	.LVL226-1
 5661 0f98 0100     		.2byte	0x1
 5662 0f9a 50       		.byte	0x50
 5663 0f9b 11000000 		.4byte	.LVL226-1
 5664 0f9f 1E000000 		.4byte	.LFE45
 5665 0fa3 0400     		.2byte	0x4
 5666 0fa5 F3       		.byte	0xf3
 5667 0fa6 01       		.uleb128 0x1
 5668 0fa7 50       		.byte	0x50
 5669 0fa8 9F       		.byte	0x9f
 5670 0fa9 00000000 		.4byte	0
 5671 0fad 00000000 		.4byte	0
 5672              	.LLST85:
 5673 0fb1 0E000000 		.4byte	.LVL225
 5674 0fb5 1C000000 		.4byte	.LVL228
 5675 0fb9 0100     		.2byte	0x1
 5676 0fbb 54       		.byte	0x54
 5677 0fbc 00000000 		.4byte	0
 5678 0fc0 00000000 		.4byte	0
 5679              	.LLST86:
 5680 0fc4 02000000 		.4byte	.LVL224
 5681 0fc8 11000000 		.4byte	.LVL226-1
 5682 0fcc 0100     		.2byte	0x1
 5683 0fce 50       		.byte	0x50
 5684 0fcf 11000000 		.4byte	.LVL226-1
 5685 0fd3 1E000000 		.4byte	.LFE45
 5686 0fd7 0400     		.2byte	0x4
 5687 0fd9 F3       		.byte	0xf3
 5688 0fda 01       		.uleb128 0x1
 5689 0fdb 50       		.byte	0x50
 5690 0fdc 9F       		.byte	0x9f
 5691 0fdd 00000000 		.4byte	0
 5692 0fe1 00000000 		.4byte	0
 5693              	.LLST87:
 5694 0fe5 00000000 		.4byte	.LVL229
 5695 0fe9 0B000000 		.4byte	.LVL231-1
 5696 0fed 0100     		.2byte	0x1
 5697 0fef 50       		.byte	0x50
 5698 0ff0 0B000000 		.4byte	.LVL231-1
 5699 0ff4 28000000 		.4byte	.LVL236
 5700 0ff8 0100     		.2byte	0x1
 5701 0ffa 54       		.byte	0x54
 5702 0ffb 28000000 		.4byte	.LVL236
 5703 0fff 2A000000 		.4byte	.LVL237
 5704 1003 0400     		.2byte	0x4
ARM GAS  C:\Users\Xwx47\AppData\Local\Temp\ccZsRkco.s 			page 125


 5705 1005 F3       		.byte	0xf3
 5706 1006 01       		.uleb128 0x1
 5707 1007 50       		.byte	0x50
 5708 1008 9F       		.byte	0x9f
 5709 1009 2A000000 		.4byte	.LVL237
 5710 100d 2C000000 		.4byte	.LVL238
 5711 1011 0100     		.2byte	0x1
 5712 1013 54       		.byte	0x54
 5713 1014 2C000000 		.4byte	.LVL238
 5714 1018 38000000 		.4byte	.LFE46
 5715 101c 0400     		.2byte	0x4
 5716 101e F3       		.byte	0xf3
 5717 101f 01       		.uleb128 0x1
 5718 1020 50       		.byte	0x50
 5719 1021 9F       		.byte	0x9f
 5720 1022 00000000 		.4byte	0
 5721 1026 00000000 		.4byte	0
 5722              	.LLST88:
 5723 102a 00000000 		.4byte	.LVL229
 5724 102e 0B000000 		.4byte	.LVL231-1
 5725 1032 0100     		.2byte	0x1
 5726 1034 51       		.byte	0x51
 5727 1035 0B000000 		.4byte	.LVL231-1
 5728 1039 36000000 		.4byte	.LVL242
 5729 103d 0100     		.2byte	0x1
 5730 103f 56       		.byte	0x56
 5731 1040 36000000 		.4byte	.LVL242
 5732 1044 38000000 		.4byte	.LFE46
 5733 1048 0400     		.2byte	0x4
 5734 104a F3       		.byte	0xf3
 5735 104b 01       		.uleb128 0x1
 5736 104c 51       		.byte	0x51
 5737 104d 9F       		.byte	0x9f
 5738 104e 00000000 		.4byte	0
 5739 1052 00000000 		.4byte	0
 5740              	.LLST89:
 5741 1056 08000000 		.4byte	.LVL230
 5742 105a 0B000000 		.4byte	.LVL231-1
 5743 105e 0100     		.2byte	0x1
 5744 1060 50       		.byte	0x50
 5745 1061 0B000000 		.4byte	.LVL231-1
 5746 1065 28000000 		.4byte	.LVL236
 5747 1069 0100     		.2byte	0x1
 5748 106b 54       		.byte	0x54
 5749 106c 28000000 		.4byte	.LVL236
 5750 1070 2A000000 		.4byte	.LVL237
 5751 1074 0400     		.2byte	0x4
 5752 1076 F3       		.byte	0xf3
 5753 1077 01       		.uleb128 0x1
 5754 1078 50       		.byte	0x50
 5755 1079 9F       		.byte	0x9f
 5756 107a 2A000000 		.4byte	.LVL237
 5757 107e 2C000000 		.4byte	.LVL238
 5758 1082 0100     		.2byte	0x1
 5759 1084 54       		.byte	0x54
 5760 1085 2C000000 		.4byte	.LVL238
 5761 1089 38000000 		.4byte	.LFE46
ARM GAS  C:\Users\Xwx47\AppData\Local\Temp\ccZsRkco.s 			page 126


 5762 108d 0400     		.2byte	0x4
 5763 108f F3       		.byte	0xf3
 5764 1090 01       		.uleb128 0x1
 5765 1091 50       		.byte	0x50
 5766 1092 9F       		.byte	0x9f
 5767 1093 00000000 		.4byte	0
 5768 1097 00000000 		.4byte	0
 5769              	.LLST90:
 5770 109b 26000000 		.4byte	.LVL235
 5771 109f 2A000000 		.4byte	.LVL237
 5772 10a3 0200     		.2byte	0x2
 5773 10a5 31       		.byte	0x31
 5774 10a6 9F       		.byte	0x9f
 5775 10a7 2C000000 		.4byte	.LVL238
 5776 10ab 36000000 		.4byte	.LVL240
 5777 10af 0100     		.2byte	0x1
 5778 10b1 54       		.byte	0x54
 5779 10b2 36000000 		.4byte	.LVL240
 5780 10b6 38000000 		.4byte	.LFE46
 5781 10ba 0100     		.2byte	0x1
 5782 10bc 50       		.byte	0x50
 5783 10bd 00000000 		.4byte	0
 5784 10c1 00000000 		.4byte	0
 5785              	.LLST91:
 5786 10c5 0E000000 		.4byte	.LVL232
 5787 10c9 16000000 		.4byte	.LVL233
 5788 10cd 0100     		.2byte	0x1
 5789 10cf 50       		.byte	0x50
 5790 10d0 16000000 		.4byte	.LVL233
 5791 10d4 2A000000 		.4byte	.LVL237
 5792 10d8 0100     		.2byte	0x1
 5793 10da 55       		.byte	0x55
 5794 10db 2A000000 		.4byte	.LVL237
 5795 10df 2C000000 		.4byte	.LVL238
 5796 10e3 0100     		.2byte	0x1
 5797 10e5 50       		.byte	0x50
 5798 10e6 2C000000 		.4byte	.LVL238
 5799 10ea 36000000 		.4byte	.LVL241
 5800 10ee 0100     		.2byte	0x1
 5801 10f0 55       		.byte	0x55
 5802 10f1 00000000 		.4byte	0
 5803 10f5 00000000 		.4byte	0
 5804              	.LLST92:
 5805 10f9 00000000 		.4byte	.LVL243
 5806 10fd 0B000000 		.4byte	.LVL245-1
 5807 1101 0100     		.2byte	0x1
 5808 1103 50       		.byte	0x50
 5809 1104 0B000000 		.4byte	.LVL245-1
 5810 1108 28000000 		.4byte	.LVL250
 5811 110c 0100     		.2byte	0x1
 5812 110e 54       		.byte	0x54
 5813 110f 28000000 		.4byte	.LVL250
 5814 1113 2A000000 		.4byte	.LVL251
 5815 1117 0400     		.2byte	0x4
 5816 1119 F3       		.byte	0xf3
 5817 111a 01       		.uleb128 0x1
 5818 111b 50       		.byte	0x50
ARM GAS  C:\Users\Xwx47\AppData\Local\Temp\ccZsRkco.s 			page 127


 5819 111c 9F       		.byte	0x9f
 5820 111d 2A000000 		.4byte	.LVL251
 5821 1121 2C000000 		.4byte	.LVL252
 5822 1125 0100     		.2byte	0x1
 5823 1127 54       		.byte	0x54
 5824 1128 2C000000 		.4byte	.LVL252
 5825 112c 38000000 		.4byte	.LFE47
 5826 1130 0400     		.2byte	0x4
 5827 1132 F3       		.byte	0xf3
 5828 1133 01       		.uleb128 0x1
 5829 1134 50       		.byte	0x50
 5830 1135 9F       		.byte	0x9f
 5831 1136 00000000 		.4byte	0
 5832 113a 00000000 		.4byte	0
 5833              	.LLST93:
 5834 113e 00000000 		.4byte	.LVL243
 5835 1142 0B000000 		.4byte	.LVL245-1
 5836 1146 0100     		.2byte	0x1
 5837 1148 51       		.byte	0x51
 5838 1149 0B000000 		.4byte	.LVL245-1
 5839 114d 36000000 		.4byte	.LVL256
 5840 1151 0100     		.2byte	0x1
 5841 1153 56       		.byte	0x56
 5842 1154 36000000 		.4byte	.LVL256
 5843 1158 38000000 		.4byte	.LFE47
 5844 115c 0400     		.2byte	0x4
 5845 115e F3       		.byte	0xf3
 5846 115f 01       		.uleb128 0x1
 5847 1160 51       		.byte	0x51
 5848 1161 9F       		.byte	0x9f
 5849 1162 00000000 		.4byte	0
 5850 1166 00000000 		.4byte	0
 5851              	.LLST94:
 5852 116a 08000000 		.4byte	.LVL244
 5853 116e 0B000000 		.4byte	.LVL245-1
 5854 1172 0100     		.2byte	0x1
 5855 1174 50       		.byte	0x50
 5856 1175 0B000000 		.4byte	.LVL245-1
 5857 1179 28000000 		.4byte	.LVL250
 5858 117d 0100     		.2byte	0x1
 5859 117f 54       		.byte	0x54
 5860 1180 28000000 		.4byte	.LVL250
 5861 1184 2A000000 		.4byte	.LVL251
 5862 1188 0400     		.2byte	0x4
 5863 118a F3       		.byte	0xf3
 5864 118b 01       		.uleb128 0x1
 5865 118c 50       		.byte	0x50
 5866 118d 9F       		.byte	0x9f
 5867 118e 2A000000 		.4byte	.LVL251
 5868 1192 2C000000 		.4byte	.LVL252
 5869 1196 0100     		.2byte	0x1
 5870 1198 54       		.byte	0x54
 5871 1199 2C000000 		.4byte	.LVL252
 5872 119d 38000000 		.4byte	.LFE47
 5873 11a1 0400     		.2byte	0x4
 5874 11a3 F3       		.byte	0xf3
 5875 11a4 01       		.uleb128 0x1
ARM GAS  C:\Users\Xwx47\AppData\Local\Temp\ccZsRkco.s 			page 128


 5876 11a5 50       		.byte	0x50
 5877 11a6 9F       		.byte	0x9f
 5878 11a7 00000000 		.4byte	0
 5879 11ab 00000000 		.4byte	0
 5880              	.LLST95:
 5881 11af 26000000 		.4byte	.LVL249
 5882 11b3 2A000000 		.4byte	.LVL251
 5883 11b7 0200     		.2byte	0x2
 5884 11b9 31       		.byte	0x31
 5885 11ba 9F       		.byte	0x9f
 5886 11bb 2C000000 		.4byte	.LVL252
 5887 11bf 36000000 		.4byte	.LVL254
 5888 11c3 0100     		.2byte	0x1
 5889 11c5 54       		.byte	0x54
 5890 11c6 36000000 		.4byte	.LVL254
 5891 11ca 38000000 		.4byte	.LFE47
 5892 11ce 0100     		.2byte	0x1
 5893 11d0 50       		.byte	0x50
 5894 11d1 00000000 		.4byte	0
 5895 11d5 00000000 		.4byte	0
 5896              	.LLST96:
 5897 11d9 0E000000 		.4byte	.LVL246
 5898 11dd 16000000 		.4byte	.LVL247
 5899 11e1 0100     		.2byte	0x1
 5900 11e3 50       		.byte	0x50
 5901 11e4 16000000 		.4byte	.LVL247
 5902 11e8 2A000000 		.4byte	.LVL251
 5903 11ec 0100     		.2byte	0x1
 5904 11ee 55       		.byte	0x55
 5905 11ef 2A000000 		.4byte	.LVL251
 5906 11f3 2C000000 		.4byte	.LVL252
 5907 11f7 0100     		.2byte	0x1
 5908 11f9 50       		.byte	0x50
 5909 11fa 2C000000 		.4byte	.LVL252
 5910 11fe 36000000 		.4byte	.LVL255
 5911 1202 0100     		.2byte	0x1
 5912 1204 55       		.byte	0x55
 5913 1205 00000000 		.4byte	0
 5914 1209 00000000 		.4byte	0
 5915              		.section	.debug_aranges,"",%progbits
 5916 0000 B4000000 		.4byte	0xb4
 5917 0004 0200     		.2byte	0x2
 5918 0006 00000000 		.4byte	.Ldebug_info0
 5919 000a 04       		.byte	0x4
 5920 000b 00       		.byte	0
 5921 000c 0000     		.2byte	0
 5922 000e 0000     		.2byte	0
 5923 0010 00000000 		.4byte	.LFB50
 5924 0014 12000000 		.4byte	.LFE50-.LFB50
 5925 0018 00000000 		.4byte	.LFB51
 5926 001c 28000000 		.4byte	.LFE51-.LFB51
 5927 0020 00000000 		.4byte	.LFB48
 5928 0024 44000000 		.4byte	.LFE48-.LFB48
 5929 0028 00000000 		.4byte	.LFB40
 5930 002c 50000000 		.4byte	.LFE40-.LFB40
 5931 0030 00000000 		.4byte	.LFB49
 5932 0034 50000000 		.4byte	.LFE49-.LFB49
ARM GAS  C:\Users\Xwx47\AppData\Local\Temp\ccZsRkco.s 			page 129


 5933 0038 00000000 		.4byte	.LFB43
 5934 003c 4E000000 		.4byte	.LFE43-.LFB43
 5935 0040 00000000 		.4byte	.LFB32
 5936 0044 2E000000 		.4byte	.LFE32-.LFB32
 5937 0048 00000000 		.4byte	.LFB33
 5938 004c 18000000 		.4byte	.LFE33-.LFB33
 5939 0050 00000000 		.4byte	.LFB34
 5940 0054 36000000 		.4byte	.LFE34-.LFB34
 5941 0058 00000000 		.4byte	.LFB35
 5942 005c 16000000 		.4byte	.LFE35-.LFB35
 5943 0060 00000000 		.4byte	.LFB36
 5944 0064 14000000 		.4byte	.LFE36-.LFB36
 5945 0068 00000000 		.4byte	.LFB37
 5946 006c 08000000 		.4byte	.LFE37-.LFB37
 5947 0070 00000000 		.4byte	.LFB38
 5948 0074 BA000000 		.4byte	.LFE38-.LFB38
 5949 0078 00000000 		.4byte	.LFB39
 5950 007c 68000000 		.4byte	.LFE39-.LFB39
 5951 0080 00000000 		.4byte	.LFB41
 5952 0084 A2000000 		.4byte	.LFE41-.LFB41
 5953 0088 00000000 		.4byte	.LFB42
 5954 008c 62000000 		.4byte	.LFE42-.LFB42
 5955 0090 00000000 		.4byte	.LFB44
 5956 0094 10000000 		.4byte	.LFE44-.LFB44
 5957 0098 00000000 		.4byte	.LFB45
 5958 009c 1E000000 		.4byte	.LFE45-.LFB45
 5959 00a0 00000000 		.4byte	.LFB46
 5960 00a4 38000000 		.4byte	.LFE46-.LFB46
 5961 00a8 00000000 		.4byte	.LFB47
 5962 00ac 38000000 		.4byte	.LFE47-.LFB47
 5963 00b0 00000000 		.4byte	0
 5964 00b4 00000000 		.4byte	0
 5965              		.section	.debug_ranges,"",%progbits
 5966              	.Ldebug_ranges0:
 5967 0000 00000000 		.4byte	.LFB50
 5968 0004 12000000 		.4byte	.LFE50
 5969 0008 00000000 		.4byte	.LFB51
 5970 000c 28000000 		.4byte	.LFE51
 5971 0010 00000000 		.4byte	.LFB48
 5972 0014 44000000 		.4byte	.LFE48
 5973 0018 00000000 		.4byte	.LFB40
 5974 001c 50000000 		.4byte	.LFE40
 5975 0020 00000000 		.4byte	.LFB49
 5976 0024 50000000 		.4byte	.LFE49
 5977 0028 00000000 		.4byte	.LFB43
 5978 002c 4E000000 		.4byte	.LFE43
 5979 0030 00000000 		.4byte	.LFB32
 5980 0034 2E000000 		.4byte	.LFE32
 5981 0038 00000000 		.4byte	.LFB33
 5982 003c 18000000 		.4byte	.LFE33
 5983 0040 00000000 		.4byte	.LFB34
 5984 0044 36000000 		.4byte	.LFE34
 5985 0048 00000000 		.4byte	.LFB35
 5986 004c 16000000 		.4byte	.LFE35
 5987 0050 00000000 		.4byte	.LFB36
 5988 0054 14000000 		.4byte	.LFE36
 5989 0058 00000000 		.4byte	.LFB37
ARM GAS  C:\Users\Xwx47\AppData\Local\Temp\ccZsRkco.s 			page 130


 5990 005c 08000000 		.4byte	.LFE37
 5991 0060 00000000 		.4byte	.LFB38
 5992 0064 BA000000 		.4byte	.LFE38
 5993 0068 00000000 		.4byte	.LFB39
 5994 006c 68000000 		.4byte	.LFE39
 5995 0070 00000000 		.4byte	.LFB41
 5996 0074 A2000000 		.4byte	.LFE41
 5997 0078 00000000 		.4byte	.LFB42
 5998 007c 62000000 		.4byte	.LFE42
 5999 0080 00000000 		.4byte	.LFB44
 6000 0084 10000000 		.4byte	.LFE44
 6001 0088 00000000 		.4byte	.LFB45
 6002 008c 1E000000 		.4byte	.LFE45
 6003 0090 00000000 		.4byte	.LFB46
 6004 0094 38000000 		.4byte	.LFE46
 6005 0098 00000000 		.4byte	.LFB47
 6006 009c 38000000 		.4byte	.LFE47
 6007 00a0 00000000 		.4byte	0
 6008 00a4 00000000 		.4byte	0
 6009              		.section	.debug_line,"",%progbits
 6010              	.Ldebug_line0:
 6011 0000 94040000 		.section	.debug_str,"MS",%progbits,1
 6011      02002602 
 6011      00000201 
 6011      FB0E0D00 
 6011      01010101 
 6012              	.LASF57:
 6013 0000 7853686F 		.ascii	"xShouldWrite\000"
 6013      756C6457 
 6013      72697465 
 6013      00
 6014              	.LASF65:
 6015 000d 78427566 		.ascii	"xBufferLengthBytes\000"
 6015      6665724C 
 6015      656E6774 
 6015      68427974 
 6015      657300
 6016              	.LASF23:
 6017 0020 654E6F41 		.ascii	"eNoAction\000"
 6017      6374696F 
 6017      6E00
 6018              	.LASF72:
 6019 002a 78537472 		.ascii	"xStreamBufferGenericCreate\000"
 6019      65616D42 
 6019      75666665 
 6019      7247656E 
 6019      65726963 
 6020              	.LASF49:
 6021 0045 78436F75 		.ascii	"xCount\000"
 6021      6E7400
 6022              	.LASF111:
 6023 004c 76537472 		.ascii	"vStreamBufferDelete\000"
 6023      65616D42 
 6023      75666665 
 6023      7244656C 
 6023      65746500 
 6024              	.LASF32:
ARM GAS  C:\Users\Xwx47\AppData\Local\Temp\ccZsRkco.s 			page 131


 6025 0060 7854494D 		.ascii	"xTIME_OUT\000"
 6025      455F4F55 
 6025      5400
 6026              	.LASF84:
 6027 006a 78537472 		.ascii	"xStreamBufferReceive\000"
 6027      65616D42 
 6027      75666665 
 6027      72526563 
 6027      65697665 
 6028              	.LASF30:
 6029 007f 54696D65 		.ascii	"TimeOut_t\000"
 6029      4F75745F 
 6029      7400
 6030              	.LASF2:
 6031 0089 73686F72 		.ascii	"short int\000"
 6031      7420696E 
 6031      7400
 6032              	.LASF13:
 6033 0093 73697A65 		.ascii	"size_t\000"
 6033      5F7400
 6034              	.LASF15:
 6035 009a 73697A65 		.ascii	"sizetype\000"
 6035      74797065 
 6035      00
 6036              	.LASF59:
 6037 00a3 70727652 		.ascii	"prvReadBytesFromBuffer\000"
 6037      65616442 
 6037      79746573 
 6037      46726F6D 
 6037      42756666 
 6038              	.LASF22:
 6039 00ba 5461736B 		.ascii	"TaskHandle_t\000"
 6039      48616E64 
 6039      6C655F74 
 6039      00
 6040              	.LASF89:
 6041 00c7 78537472 		.ascii	"xStreamBufferReceiveCompletedFromISR\000"
 6041      65616D42 
 6041      75666665 
 6041      72526563 
 6041      65697665 
 6042              	.LASF61:
 6043 00ec 78427974 		.ascii	"xBytesAvailable\000"
 6043      65734176 
 6043      61696C61 
 6043      626C6500 
 6044              	.LASF69:
 6045 00fc 784E6578 		.ascii	"xNextMessageLength\000"
 6045      744D6573 
 6045      73616765 
 6045      4C656E67 
 6045      746800
 6046              	.LASF50:
 6047 010f 784E6578 		.ascii	"xNextHead\000"
 6047      74486561 
 6047      6400
 6048              	.LASF6:
ARM GAS  C:\Users\Xwx47\AppData\Local\Temp\ccZsRkco.s 			page 132


 6049 0119 5F5F7569 		.ascii	"__uint32_t\000"
 6049      6E743332 
 6049      5F7400
 6050              	.LASF54:
 6051 0124 78446174 		.ascii	"xDataLengthBytes\000"
 6051      614C656E 
 6051      67746842 
 6051      79746573 
 6051      00
 6052              	.LASF40:
 6053 0135 70756342 		.ascii	"pucBuffer\000"
 6053      75666665 
 6053      7200
 6054              	.LASF105:
 6055 013f 78546173 		.ascii	"xTaskGenericNotifyFromISR\000"
 6055      6B47656E 
 6055      65726963 
 6055      4E6F7469 
 6055      66794672 
 6056              	.LASF96:
 6057 0159 78546173 		.ascii	"xTaskNotifyStateClear\000"
 6057      6B4E6F74 
 6057      69667953 
 6057      74617465 
 6057      436C6561 
 6058              	.LASF51:
 6059 016f 78466972 		.ascii	"xFirstLength\000"
 6059      73744C65 
 6059      6E677468 
 6059      00
 6060              	.LASF107:
 6061 017c 474E5520 		.ascii	"GNU C11 5.4.1 20160609 (release) [ARM/embedded-5-br"
 6061      43313120 
 6061      352E342E 
 6061      31203230 
 6061      31363036 
 6062 01af 616E6368 		.ascii	"anch revision 237715] -mcpu=cortex-m0 -mthumb -g -O"
 6062      20726576 
 6062      6973696F 
 6062      6E203233 
 6062      37373135 
 6063 01e2 67202D66 		.ascii	"g -ffunction-sections -ffat-lto-objects\000"
 6063      66756E63 
 6063      74696F6E 
 6063      2D736563 
 6063      74696F6E 
 6064              	.LASF94:
 6065 020a 76546173 		.ascii	"vTaskSetTimeOutState\000"
 6065      6B536574 
 6065      54696D65 
 6065      4F757453 
 6065      74617465 
 6066              	.LASF91:
 6067 021f 6D656D63 		.ascii	"memcpy\000"
 6067      707900
 6068              	.LASF102:
 6069 0226 78546173 		.ascii	"xTaskGenericNotify\000"
ARM GAS  C:\Users\Xwx47\AppData\Local\Temp\ccZsRkco.s 			page 133


 6069      6B47656E 
 6069      65726963 
 6069      4E6F7469 
 6069      667900
 6070              	.LASF106:
 6071 0239 76436C65 		.ascii	"vClearInterruptMaskFromISR\000"
 6071      6172496E 
 6071      74657272 
 6071      7570744D 
 6071      61736B46 
 6072              	.LASF68:
 6073 0254 78526563 		.ascii	"xReceivedLength\000"
 6073      65697665 
 6073      644C656E 
 6073      67746800 
 6074              	.LASF60:
 6075 0264 784D6178 		.ascii	"xMaxCount\000"
 6075      436F756E 
 6075      7400
 6076              	.LASF24:
 6077 026e 65536574 		.ascii	"eSetBits\000"
 6077      42697473 
 6077      00
 6078              	.LASF71:
 6079 0277 78537472 		.ascii	"xStreamBuffer\000"
 6079      65616D42 
 6079      75666665 
 6079      7200
 6080              	.LASF109:
 6081 0285 433A5C55 		.ascii	"C:\\Users\\Xwx47\\Documents\\Creator\\FreeRTOS_49-4"
 6081      73657273 
 6081      5C587778 
 6081      34375C44 
 6081      6F63756D 
 6082 02b3 3278785C 		.ascii	"2xx\\UART_MessageBuffer_FreeRTOS10.cydsn\000"
 6082      55415254 
 6082      5F4D6573 
 6082      73616765 
 6082      42756666 
 6083              	.LASF17:
 6084 02db 666C6F61 		.ascii	"float\000"
 6084      7400
 6085              	.LASF99:
 6086 02e1 78546173 		.ascii	"xTaskNotifyWait\000"
 6086      6B4E6F74 
 6086      69667957 
 6086      61697400 
 6087              	.LASF79:
 6088 02f1 78546963 		.ascii	"xTicksToWait\000"
 6088      6B73546F 
 6088      57616974 
 6088      00
 6089              	.LASF8:
 6090 02fe 6C6F6E67 		.ascii	"long long int\000"
 6090      206C6F6E 
 6090      6720696E 
 6090      7400
ARM GAS  C:\Users\Xwx47\AppData\Local\Temp\ccZsRkco.s 			page 134


 6091              	.LASF56:
 6092 030c 78526571 		.ascii	"xRequiredSpace\000"
 6092      75697265 
 6092      64537061 
 6092      636500
 6093              	.LASF85:
 6094 031b 78537472 		.ascii	"xStreamBufferReceiveFromISR\000"
 6094      65616D42 
 6094      75666665 
 6094      72526563 
 6094      65697665 
 6095              	.LASF90:
 6096 0337 6D656D73 		.ascii	"memset\000"
 6096      657400
 6097              	.LASF87:
 6098 033e 78537472 		.ascii	"xStreamBufferIsFull\000"
 6098      65616D42 
 6098      75666665 
 6098      72497346 
 6098      756C6C00 
 6099              	.LASF4:
 6100 0352 6C6F6E67 		.ascii	"long int\000"
 6100      20696E74 
 6100      00
 6101              	.LASF75:
 6102 035b 78547269 		.ascii	"xTriggerLevel\000"
 6102      67676572 
 6102      4C657665 
 6102      6C00
 6103              	.LASF86:
 6104 0369 78537472 		.ascii	"xStreamBufferIsEmpty\000"
 6104      65616D42 
 6104      75666665 
 6104      72497345 
 6104      6D707479 
 6105              	.LASF5:
 6106 037e 5F5F7569 		.ascii	"__uint8_t\000"
 6106      6E74385F 
 6106      7400
 6107              	.LASF100:
 6108 0388 78546173 		.ascii	"xTaskCheckForTimeOut\000"
 6108      6B436865 
 6108      636B466F 
 6108      7254696D 
 6108      654F7574 
 6109              	.LASF70:
 6110 039d 70756341 		.ascii	"pucAllocatedMemory\000"
 6110      6C6C6F63 
 6110      61746564 
 6110      4D656D6F 
 6110      727900
 6111              	.LASF43:
 6112 03b0 70785374 		.ascii	"pxStreamBuffer\000"
 6112      7265616D 
 6112      42756666 
 6112      657200
 6113              	.LASF52:
ARM GAS  C:\Users\Xwx47\AppData\Local\Temp\ccZsRkco.s 			page 135


 6114 03bf 70727657 		.ascii	"prvWriteMessageToBuffer\000"
 6114      72697465 
 6114      4D657373 
 6114      61676554 
 6114      6F427566 
 6115              	.LASF64:
 6116 03d7 70765278 		.ascii	"pvRxData\000"
 6116      44617461 
 6116      00
 6117              	.LASF14:
 6118 03e0 6C6F6E67 		.ascii	"long double\000"
 6118      20646F75 
 6118      626C6500 
 6119              	.LASF36:
 6120 03ec 784C656E 		.ascii	"xLength\000"
 6120      67746800 
 6121              	.LASF1:
 6122 03f4 756E7369 		.ascii	"unsigned char\000"
 6122      676E6564 
 6122      20636861 
 6122      7200
 6123              	.LASF29:
 6124 0402 7854696D 		.ascii	"xTimeOnEntering\000"
 6124      654F6E45 
 6124      6E746572 
 6124      696E6700 
 6125              	.LASF44:
 6126 0412 78427566 		.ascii	"xBufferSizeBytes\000"
 6126      66657253 
 6126      697A6542 
 6126      79746573 
 6126      00
 6127              	.LASF28:
 6128 0423 784F7665 		.ascii	"xOverflowCount\000"
 6128      72666C6F 
 6128      77436F75 
 6128      6E7400
 6129              	.LASF74:
 6130 0432 78537472 		.ascii	"xStreamBufferSetTriggerLevel\000"
 6130      65616D42 
 6130      75666665 
 6130      72536574 
 6130      54726967 
 6131              	.LASF38:
 6132 044f 78546173 		.ascii	"xTaskWaitingToReceive\000"
 6132      6B576169 
 6132      74696E67 
 6132      546F5265 
 6132      63656976 
 6133              	.LASF0:
 6134 0465 7369676E 		.ascii	"signed char\000"
 6134      65642063 
 6134      68617200 
 6135              	.LASF76:
 6136 0471 78537472 		.ascii	"xStreamBufferSpacesAvailable\000"
 6136      65616D42 
 6136      75666665 
ARM GAS  C:\Users\Xwx47\AppData\Local\Temp\ccZsRkco.s 			page 136


 6136      72537061 
 6136      63657341 
 6137              	.LASF9:
 6138 048e 6C6F6E67 		.ascii	"long long unsigned int\000"
 6138      206C6F6E 
 6138      6720756E 
 6138      7369676E 
 6138      65642069 
 6139              	.LASF63:
 6140 04a5 70727652 		.ascii	"prvReadMessageFromBuffer\000"
 6140      6561644D 
 6140      65737361 
 6140      67654672 
 6140      6F6D4275 
 6141              	.LASF12:
 6142 04be 75696E74 		.ascii	"uint32_t\000"
 6142      33325F74 
 6142      00
 6143              	.LASF81:
 6144 04c7 78537472 		.ascii	"xStreamBufferSendFromISR\000"
 6144      65616D42 
 6144      75666665 
 6144      7253656E 
 6144      6446726F 
 6145              	.LASF10:
 6146 04e0 756E7369 		.ascii	"unsigned int\000"
 6146      676E6564 
 6146      20696E74 
 6146      00
 6147              	.LASF19:
 6148 04ed 42617365 		.ascii	"BaseType_t\000"
 6148      54797065 
 6148      5F7400
 6149              	.LASF41:
 6150 04f8 7563466C 		.ascii	"ucFlags\000"
 6150      61677300 
 6151              	.LASF78:
 6152 0500 78537472 		.ascii	"xStreamBufferSend\000"
 6152      65616D42 
 6152      75666665 
 6152      7253656E 
 6152      6400
 6153              	.LASF21:
 6154 0512 5469636B 		.ascii	"TickType_t\000"
 6154      54797065 
 6154      5F7400
 6155              	.LASF103:
 6156 051d 78546173 		.ascii	"xTaskResumeAll\000"
 6156      6B526573 
 6156      756D6541 
 6156      6C6C00
 6157              	.LASF3:
 6158 052c 73686F72 		.ascii	"short unsigned int\000"
 6158      7420756E 
 6158      7369676E 
 6158      65642069 
 6158      6E7400
ARM GAS  C:\Users\Xwx47\AppData\Local\Temp\ccZsRkco.s 			page 137


 6159              	.LASF95:
 6160 053f 76506F72 		.ascii	"vPortEnterCritical\000"
 6160      74456E74 
 6160      65724372 
 6160      69746963 
 6160      616C00
 6161              	.LASF16:
 6162 0552 63686172 		.ascii	"char\000"
 6162      00
 6163              	.LASF108:
 6164 0557 2E2E5C46 		.ascii	"..\\FreeRTOS10\\stream_buffer.c\000"
 6164      72656552 
 6164      544F5331 
 6164      305C7374 
 6164      7265616D 
 6165              	.LASF26:
 6166 0575 65536574 		.ascii	"eSetValueWithOverwrite\000"
 6166      56616C75 
 6166      65576974 
 6166      684F7665 
 6166      72777269 
 6167              	.LASF45:
 6168 058c 7849734D 		.ascii	"xIsMessageBuffer\000"
 6168      65737361 
 6168      67654275 
 6168      66666572 
 6168      00
 6169              	.LASF98:
 6170 059d 76506F72 		.ascii	"vPortExitCritical\000"
 6170      74457869 
 6170      74437269 
 6170      74696361 
 6170      6C00
 6171              	.LASF46:
 6172 05af 70727642 		.ascii	"prvBytesInBuffer\000"
 6172      79746573 
 6172      496E4275 
 6172      66666572 
 6172      00
 6173              	.LASF37:
 6174 05c0 78547269 		.ascii	"xTriggerLevelBytes\000"
 6174      67676572 
 6174      4C657665 
 6174      6C427974 
 6174      657300
 6175              	.LASF55:
 6176 05d3 78537061 		.ascii	"xSpace\000"
 6176      636500
 6177              	.LASF73:
 6178 05da 78537472 		.ascii	"xStreamBufferReset\000"
 6178      65616D42 
 6178      75666665 
 6178      72526573 
 6178      657400
 6179              	.LASF7:
 6180 05ed 6C6F6E67 		.ascii	"long unsigned int\000"
 6180      20756E73 
ARM GAS  C:\Users\Xwx47\AppData\Local\Temp\ccZsRkco.s 			page 138


 6180      69676E65 
 6180      6420696E 
 6180      7400
 6181              	.LASF66:
 6182 05ff 78427974 		.ascii	"xBytesToStoreMessageLength\000"
 6182      6573546F 
 6182      53746F72 
 6182      654D6573 
 6182      73616765 
 6183              	.LASF20:
 6184 061a 55426173 		.ascii	"UBaseType_t\000"
 6184      65547970 
 6184      655F7400 
 6185              	.LASF47:
 6186 0626 70727657 		.ascii	"prvWriteBytesToBuffer\000"
 6186      72697465 
 6186      42797465 
 6186      73546F42 
 6186      75666665 
 6187              	.LASF34:
 6188 063c 78546169 		.ascii	"xTail\000"
 6188      6C00
 6189              	.LASF88:
 6190 0642 78537472 		.ascii	"xStreamBufferSendCompletedFromISR\000"
 6190      65616D42 
 6190      75666665 
 6190      7253656E 
 6190      64436F6D 
 6191              	.LASF93:
 6192 0664 76506F72 		.ascii	"vPortFree\000"
 6192      74467265 
 6192      6500
 6193              	.LASF27:
 6194 066e 65536574 		.ascii	"eSetValueWithoutOverwrite\000"
 6194      56616C75 
 6194      65576974 
 6194      686F7574 
 6194      4F766572 
 6195              	.LASF104:
 6196 0688 756C5365 		.ascii	"ulSetInterruptMaskFromISR\000"
 6196      74496E74 
 6196      65727275 
 6196      70744D61 
 6196      736B4672 
 6197              	.LASF80:
 6198 06a2 7854696D 		.ascii	"xTimeOut\000"
 6198      654F7574 
 6198      00
 6199              	.LASF39:
 6200 06ab 78546173 		.ascii	"xTaskWaitingToSend\000"
 6200      6B576169 
 6200      74696E67 
 6200      546F5365 
 6200      6E6400
 6201              	.LASF31:
 6202 06be 53747265 		.ascii	"StreamBufferHandle_t\000"
 6202      616D4275 
ARM GAS  C:\Users\Xwx47\AppData\Local\Temp\ccZsRkco.s 			page 139


 6202      66666572 
 6202      48616E64 
 6202      6C655F74 
 6203              	.LASF11:
 6204 06d3 75696E74 		.ascii	"uint8_t\000"
 6204      385F7400 
 6205              	.LASF83:
 6206 06db 75785361 		.ascii	"uxSavedInterruptStatus\000"
 6206      76656449 
 6206      6E746572 
 6206      72757074 
 6206      53746174 
 6207              	.LASF58:
 6208 06f2 78526574 		.ascii	"xReturn\000"
 6208      75726E00 
 6209              	.LASF82:
 6210 06fa 70784869 		.ascii	"pxHigherPriorityTaskWoken\000"
 6210      67686572 
 6210      5072696F 
 6210      72697479 
 6210      5461736B 
 6211              	.LASF62:
 6212 0714 784E6578 		.ascii	"xNextTail\000"
 6212      74546169 
 6212      6C00
 6213              	.LASF35:
 6214 071e 78486561 		.ascii	"xHead\000"
 6214      6400
 6215              	.LASF18:
 6216 0724 646F7562 		.ascii	"double\000"
 6216      6C6500
 6217              	.LASF67:
 6218 072b 784F7269 		.ascii	"xOriginalTail\000"
 6218      67696E61 
 6218      6C546169 
 6218      6C00
 6219              	.LASF33:
 6220 0739 78535452 		.ascii	"xSTREAM_BUFFER\000"
 6220      45414D5F 
 6220      42554646 
 6220      455200
 6221              	.LASF110:
 6222 0748 70727649 		.ascii	"prvInitialiseNewStreamBuffer\000"
 6222      6E697469 
 6222      616C6973 
 6222      654E6577 
 6222      53747265 
 6223              	.LASF97:
 6224 0765 78546173 		.ascii	"xTaskGetCurrentTaskHandle\000"
 6224      6B476574 
 6224      43757272 
 6224      656E7454 
 6224      61736B48 
 6225              	.LASF48:
 6226 077f 70756344 		.ascii	"pucData\000"
 6226      61746100 
 6227              	.LASF77:
ARM GAS  C:\Users\Xwx47\AppData\Local\Temp\ccZsRkco.s 			page 140


 6228 0787 78537472 		.ascii	"xStreamBufferBytesAvailable\000"
 6228      65616D42 
 6228      75666665 
 6228      72427974 
 6228      65734176 
 6229              	.LASF53:
 6230 07a3 70765478 		.ascii	"pvTxData\000"
 6230      44617461 
 6230      00
 6231              	.LASF92:
 6232 07ac 7076506F 		.ascii	"pvPortMalloc\000"
 6232      72744D61 
 6232      6C6C6F63 
 6232      00
 6233              	.LASF101:
 6234 07b9 76546173 		.ascii	"vTaskSuspendAll\000"
 6234      6B537573 
 6234      70656E64 
 6234      416C6C00 
 6235              	.LASF25:
 6236 07c9 65496E63 		.ascii	"eIncrement\000"
 6236      72656D65 
 6236      6E7400
 6237              	.LASF42:
 6238 07d4 53747265 		.ascii	"StreamBuffer_t\000"
 6238      616D4275 
 6238      66666572 
 6238      5F7400
 6239              		.ident	"GCC: (GNU Tools for ARM Embedded Processors) 5.4.1 20160609 (release) [ARM/embedded-5-bran
