ARM GAS  C:\Users\Xwx47\AppData\Local\Temp\ccZsRkco.s 			page 1


   1              		.syntax unified
   2              		.cpu cortex-m0
   3              		.fpu softvfp
   4              		.eabi_attribute 20, 1
   5              		.eabi_attribute 21, 1
   6              		.eabi_attribute 23, 3
   7              		.eabi_attribute 24, 1
   8              		.eabi_attribute 25, 1
   9              		.eabi_attribute 26, 1
  10              		.eabi_attribute 30, 1
  11              		.eabi_attribute 34, 0
  12              		.eabi_attribute 18, 4
  13              		.thumb
  14              		.syntax unified
  15              		.file	"stream_buffer.c"
  16              		.text
  17              	.Ltext0:
  18              		.cfi_sections	.debug_frame
  19              		.section	.text.prvBytesInBuffer,"ax",%progbits
  20              		.align	2
  21              		.code	16
  22              		.thumb_func
  23              		.type	prvBytesInBuffer, %function
  24              	prvBytesInBuffer:
  25              	.LFB50:
  26              		.file 1 "..\\FreeRTOS10\\stream_buffer.c"
   1:..\FreeRTOS10/stream_buffer.c **** /*
   2:..\FreeRTOS10/stream_buffer.c ****  * FreeRTOS Kernel V10.0.0
   3:..\FreeRTOS10/stream_buffer.c ****  * Copyright (C) 2017 Amazon.com, Inc. or its affiliates.  All Rights Reserved.
   4:..\FreeRTOS10/stream_buffer.c ****  *
   5:..\FreeRTOS10/stream_buffer.c ****  * Permission is hereby granted, free of charge, to any person obtaining a copy of
   6:..\FreeRTOS10/stream_buffer.c ****  * this software and associated documentation files (the "Software"), to deal in
   7:..\FreeRTOS10/stream_buffer.c ****  * the Software without restriction, including without limitation the rights to
   8:..\FreeRTOS10/stream_buffer.c ****  * use, copy, modify, merge, publish, distribute, sublicense, and/or sell copies of
   9:..\FreeRTOS10/stream_buffer.c ****  * the Software, and to permit persons to whom the Software is furnished to do so,
  10:..\FreeRTOS10/stream_buffer.c ****  * subject to the following conditions:
  11:..\FreeRTOS10/stream_buffer.c ****  *
  12:..\FreeRTOS10/stream_buffer.c ****  * The above copyright notice and this permission notice shall be included in all
  13:..\FreeRTOS10/stream_buffer.c ****  * copies or substantial portions of the Software. If you wish to use our Amazon
  14:..\FreeRTOS10/stream_buffer.c ****  * FreeRTOS name, please do so in a fair use way that does not cause confusion.
  15:..\FreeRTOS10/stream_buffer.c ****  *
  16:..\FreeRTOS10/stream_buffer.c ****  * THE SOFTWARE IS PROVIDED "AS IS", WITHOUT WARRANTY OF ANY KIND, EXPRESS OR
  17:..\FreeRTOS10/stream_buffer.c ****  * IMPLIED, INCLUDING BUT NOT LIMITED TO THE WARRANTIES OF MERCHANTABILITY, FITNESS
  18:..\FreeRTOS10/stream_buffer.c ****  * FOR A PARTICULAR PURPOSE AND NONINFRINGEMENT. IN NO EVENT SHALL THE AUTHORS OR
  19:..\FreeRTOS10/stream_buffer.c ****  * COPYRIGHT HOLDERS BE LIABLE FOR ANY CLAIM, DAMAGES OR OTHER LIABILITY, WHETHER
  20:..\FreeRTOS10/stream_buffer.c ****  * IN AN ACTION OF CONTRACT, TORT OR OTHERWISE, ARISING FROM, OUT OF OR IN
  21:..\FreeRTOS10/stream_buffer.c ****  * CONNECTION WITH THE SOFTWARE OR THE USE OR OTHER DEALINGS IN THE SOFTWARE.
  22:..\FreeRTOS10/stream_buffer.c ****  *
  23:..\FreeRTOS10/stream_buffer.c ****  * http://www.FreeRTOS.org
  24:..\FreeRTOS10/stream_buffer.c ****  * http://aws.amazon.com/freertos
  25:..\FreeRTOS10/stream_buffer.c ****  *
  26:..\FreeRTOS10/stream_buffer.c ****  * 1 tab == 4 spaces!
  27:..\FreeRTOS10/stream_buffer.c ****  */
  28:..\FreeRTOS10/stream_buffer.c **** 
  29:..\FreeRTOS10/stream_buffer.c **** /* Standard includes. */
  30:..\FreeRTOS10/stream_buffer.c **** #include <stdint.h>
  31:..\FreeRTOS10/stream_buffer.c **** #include <string.h>
ARM GAS  C:\Users\Xwx47\AppData\Local\Temp\ccZsRkco.s 			page 2


  32:..\FreeRTOS10/stream_buffer.c **** 
  33:..\FreeRTOS10/stream_buffer.c **** /* Defining MPU_WRAPPERS_INCLUDED_FROM_API_FILE prevents task.h from redefining
  34:..\FreeRTOS10/stream_buffer.c **** all the API functions to use the MPU wrappers.  That should only be done when
  35:..\FreeRTOS10/stream_buffer.c **** task.h is included from an application file. */
  36:..\FreeRTOS10/stream_buffer.c **** #define MPU_WRAPPERS_INCLUDED_FROM_API_FILE
  37:..\FreeRTOS10/stream_buffer.c **** 
  38:..\FreeRTOS10/stream_buffer.c **** /* FreeRTOS includes. */
  39:..\FreeRTOS10/stream_buffer.c **** #include "FreeRTOS.h"
  40:..\FreeRTOS10/stream_buffer.c **** #include "task.h"
  41:..\FreeRTOS10/stream_buffer.c **** #include "stream_buffer.h"
  42:..\FreeRTOS10/stream_buffer.c **** 
  43:..\FreeRTOS10/stream_buffer.c **** /* Lint e961 and e750 are suppressed as a MISRA exception justified because the
  44:..\FreeRTOS10/stream_buffer.c **** MPU ports require MPU_WRAPPERS_INCLUDED_FROM_API_FILE to be defined for the
  45:..\FreeRTOS10/stream_buffer.c **** header files above, but not in this file, in order to generate the correct
  46:..\FreeRTOS10/stream_buffer.c **** privileged Vs unprivileged linkage and placement. */
  47:..\FreeRTOS10/stream_buffer.c **** #undef MPU_WRAPPERS_INCLUDED_FROM_API_FILE /*lint !e961 !e750. */
  48:..\FreeRTOS10/stream_buffer.c **** 
  49:..\FreeRTOS10/stream_buffer.c **** /* If the user has not provided application specific Rx notification macros,
  50:..\FreeRTOS10/stream_buffer.c **** or #defined the notification macros away, them provide default implementations
  51:..\FreeRTOS10/stream_buffer.c **** that uses task notifications. */
  52:..\FreeRTOS10/stream_buffer.c **** /*lint -save -e9026 Function like macros allowed and needed here so they can be overidden. */
  53:..\FreeRTOS10/stream_buffer.c **** #ifndef sbRECEIVE_COMPLETED
  54:..\FreeRTOS10/stream_buffer.c **** 	#define sbRECEIVE_COMPLETED( pxStreamBuffer )										\
  55:..\FreeRTOS10/stream_buffer.c **** 		vTaskSuspendAll();																\
  56:..\FreeRTOS10/stream_buffer.c **** 		{																				\
  57:..\FreeRTOS10/stream_buffer.c **** 			if( ( pxStreamBuffer )->xTaskWaitingToSend != NULL )						\
  58:..\FreeRTOS10/stream_buffer.c **** 			{																			\
  59:..\FreeRTOS10/stream_buffer.c **** 				( void ) xTaskNotify( ( pxStreamBuffer )->xTaskWaitingToSend,			\
  60:..\FreeRTOS10/stream_buffer.c **** 									  ( uint32_t ) 0,									\
  61:..\FreeRTOS10/stream_buffer.c **** 									  eNoAction );										\
  62:..\FreeRTOS10/stream_buffer.c **** 				( pxStreamBuffer )->xTaskWaitingToSend = NULL;							\
  63:..\FreeRTOS10/stream_buffer.c **** 			}																			\
  64:..\FreeRTOS10/stream_buffer.c **** 		}																				\
  65:..\FreeRTOS10/stream_buffer.c **** 		( void ) xTaskResumeAll();
  66:..\FreeRTOS10/stream_buffer.c **** #endif /* sbRECEIVE_COMPLETED */
  67:..\FreeRTOS10/stream_buffer.c **** 
  68:..\FreeRTOS10/stream_buffer.c **** #ifndef sbRECEIVE_COMPLETED_FROM_ISR
  69:..\FreeRTOS10/stream_buffer.c **** 	#define sbRECEIVE_COMPLETED_FROM_ISR( pxStreamBuffer,								\
  70:..\FreeRTOS10/stream_buffer.c **** 										  pxHigherPriorityTaskWoken )					\
  71:..\FreeRTOS10/stream_buffer.c **** 	{																					\
  72:..\FreeRTOS10/stream_buffer.c **** 	UBaseType_t uxSavedInterruptStatus;													\
  73:..\FreeRTOS10/stream_buffer.c **** 																						\
  74:..\FreeRTOS10/stream_buffer.c **** 		uxSavedInterruptStatus = ( UBaseType_t ) portSET_INTERRUPT_MASK_FROM_ISR();		\
  75:..\FreeRTOS10/stream_buffer.c **** 		{																				\
  76:..\FreeRTOS10/stream_buffer.c **** 			if( ( pxStreamBuffer )->xTaskWaitingToSend != NULL )						\
  77:..\FreeRTOS10/stream_buffer.c **** 			{																			\
  78:..\FreeRTOS10/stream_buffer.c **** 				( void ) xTaskNotifyFromISR( ( pxStreamBuffer )->xTaskWaitingToSend,	\
  79:..\FreeRTOS10/stream_buffer.c **** 											 ( uint32_t ) 0,							\
  80:..\FreeRTOS10/stream_buffer.c **** 											 eNoAction,									\
  81:..\FreeRTOS10/stream_buffer.c **** 											 pxHigherPriorityTaskWoken );				\
  82:..\FreeRTOS10/stream_buffer.c **** 				( pxStreamBuffer )->xTaskWaitingToSend = NULL;							\
  83:..\FreeRTOS10/stream_buffer.c **** 			}																			\
  84:..\FreeRTOS10/stream_buffer.c **** 		}																				\
  85:..\FreeRTOS10/stream_buffer.c **** 		portCLEAR_INTERRUPT_MASK_FROM_ISR( uxSavedInterruptStatus );					\
  86:..\FreeRTOS10/stream_buffer.c **** 	}
  87:..\FreeRTOS10/stream_buffer.c **** #endif /* sbRECEIVE_COMPLETED_FROM_ISR */
  88:..\FreeRTOS10/stream_buffer.c **** 
ARM GAS  C:\Users\Xwx47\AppData\Local\Temp\ccZsRkco.s 			page 3


  89:..\FreeRTOS10/stream_buffer.c **** /* If the user has not provided an application specific Tx notification macro,
  90:..\FreeRTOS10/stream_buffer.c **** or #defined the notification macro away, them provide a default implementation
  91:..\FreeRTOS10/stream_buffer.c **** that uses task notifications. */
  92:..\FreeRTOS10/stream_buffer.c **** #ifndef sbSEND_COMPLETED
  93:..\FreeRTOS10/stream_buffer.c **** 	#define sbSEND_COMPLETED( pxStreamBuffer )											\
  94:..\FreeRTOS10/stream_buffer.c **** 		vTaskSuspendAll();																\
  95:..\FreeRTOS10/stream_buffer.c **** 		{																				\
  96:..\FreeRTOS10/stream_buffer.c **** 			if( ( pxStreamBuffer )->xTaskWaitingToReceive != NULL )						\
  97:..\FreeRTOS10/stream_buffer.c **** 			{																			\
  98:..\FreeRTOS10/stream_buffer.c **** 				( void ) xTaskNotify( ( pxStreamBuffer )->xTaskWaitingToReceive,		\
  99:..\FreeRTOS10/stream_buffer.c **** 									  ( uint32_t ) 0,									\
 100:..\FreeRTOS10/stream_buffer.c **** 									  eNoAction );										\
 101:..\FreeRTOS10/stream_buffer.c **** 				( pxStreamBuffer )->xTaskWaitingToReceive = NULL;						\
 102:..\FreeRTOS10/stream_buffer.c **** 			}																			\
 103:..\FreeRTOS10/stream_buffer.c **** 		}																				\
 104:..\FreeRTOS10/stream_buffer.c **** 		( void ) xTaskResumeAll();
 105:..\FreeRTOS10/stream_buffer.c **** #endif /* sbSEND_COMPLETED */
 106:..\FreeRTOS10/stream_buffer.c **** 
 107:..\FreeRTOS10/stream_buffer.c **** #ifndef sbSEND_COMPLETE_FROM_ISR
 108:..\FreeRTOS10/stream_buffer.c **** 	#define sbSEND_COMPLETE_FROM_ISR( pxStreamBuffer, pxHigherPriorityTaskWoken )		\
 109:..\FreeRTOS10/stream_buffer.c **** 	{																					\
 110:..\FreeRTOS10/stream_buffer.c **** 	UBaseType_t uxSavedInterruptStatus;													\
 111:..\FreeRTOS10/stream_buffer.c **** 																						\
 112:..\FreeRTOS10/stream_buffer.c **** 		uxSavedInterruptStatus = ( UBaseType_t ) portSET_INTERRUPT_MASK_FROM_ISR();		\
 113:..\FreeRTOS10/stream_buffer.c **** 		{																				\
 114:..\FreeRTOS10/stream_buffer.c **** 			if( ( pxStreamBuffer )->xTaskWaitingToReceive != NULL )						\
 115:..\FreeRTOS10/stream_buffer.c **** 			{																			\
 116:..\FreeRTOS10/stream_buffer.c **** 				( void ) xTaskNotifyFromISR( ( pxStreamBuffer )->xTaskWaitingToReceive,	\
 117:..\FreeRTOS10/stream_buffer.c **** 											 ( uint32_t ) 0,							\
 118:..\FreeRTOS10/stream_buffer.c **** 											 eNoAction,									\
 119:..\FreeRTOS10/stream_buffer.c **** 											 pxHigherPriorityTaskWoken );				\
 120:..\FreeRTOS10/stream_buffer.c **** 				( pxStreamBuffer )->xTaskWaitingToReceive = NULL;						\
 121:..\FreeRTOS10/stream_buffer.c **** 			}																			\
 122:..\FreeRTOS10/stream_buffer.c **** 		}																				\
 123:..\FreeRTOS10/stream_buffer.c **** 		portCLEAR_INTERRUPT_MASK_FROM_ISR( uxSavedInterruptStatus );					\
 124:..\FreeRTOS10/stream_buffer.c **** 	}
 125:..\FreeRTOS10/stream_buffer.c **** #endif /* sbSEND_COMPLETE_FROM_ISR */
 126:..\FreeRTOS10/stream_buffer.c **** /*lint -restore (9026) */
 127:..\FreeRTOS10/stream_buffer.c **** 
 128:..\FreeRTOS10/stream_buffer.c **** /* The number of bytes used to hold the length of a message in the buffer. */
 129:..\FreeRTOS10/stream_buffer.c **** #define sbBYTES_TO_STORE_MESSAGE_LENGTH ( sizeof( size_t ) )
 130:..\FreeRTOS10/stream_buffer.c **** 
 131:..\FreeRTOS10/stream_buffer.c **** /* Bits stored in the ucFlags field of the stream buffer. */
 132:..\FreeRTOS10/stream_buffer.c **** #define sbFLAGS_IS_MESSAGE_BUFFER		( ( uint8_t ) 1 ) /* Set if the stream buffer was created as a m
 133:..\FreeRTOS10/stream_buffer.c **** #define sbFLAGS_IS_STATICALLY_ALLOCATED ( ( uint8_t ) 2 ) /* Set if the stream buffer was created u
 134:..\FreeRTOS10/stream_buffer.c **** 
 135:..\FreeRTOS10/stream_buffer.c **** /*-----------------------------------------------------------*/
 136:..\FreeRTOS10/stream_buffer.c **** 
 137:..\FreeRTOS10/stream_buffer.c **** /* Structure that hold state information on the buffer. */
 138:..\FreeRTOS10/stream_buffer.c **** typedef struct xSTREAM_BUFFER /*lint !e9058 Style convention uses tag. */
 139:..\FreeRTOS10/stream_buffer.c **** {
 140:..\FreeRTOS10/stream_buffer.c **** 	volatile size_t xTail;				/* Index to the next item to read within the buffer. */
 141:..\FreeRTOS10/stream_buffer.c **** 	volatile size_t xHead;				/* Index to the next item to write within the buffer. */
 142:..\FreeRTOS10/stream_buffer.c **** 	size_t xLength;						/* The length of the buffer pointed to by pucBuffer. */
 143:..\FreeRTOS10/stream_buffer.c **** 	size_t xTriggerLevelBytes;			/* The number of bytes that must be in the stream buffer before a tas
 144:..\FreeRTOS10/stream_buffer.c **** 	volatile TaskHandle_t xTaskWaitingToReceive; /* Holds the handle of a task waiting for data, or NU
 145:..\FreeRTOS10/stream_buffer.c **** 	volatile TaskHandle_t xTaskWaitingToSend;	/* Holds the handle of a task waiting to send data to a 
ARM GAS  C:\Users\Xwx47\AppData\Local\Temp\ccZsRkco.s 			page 4


 146:..\FreeRTOS10/stream_buffer.c **** 	uint8_t *pucBuffer;					/* Points to the buffer itself - that is - the RAM that stores the data pa
 147:..\FreeRTOS10/stream_buffer.c **** 	uint8_t ucFlags;
 148:..\FreeRTOS10/stream_buffer.c **** 
 149:..\FreeRTOS10/stream_buffer.c **** 	#if ( configUSE_TRACE_FACILITY == 1 )
 150:..\FreeRTOS10/stream_buffer.c **** 		UBaseType_t uxStreamBufferNumber;		/* Used for tracing purposes. */
 151:..\FreeRTOS10/stream_buffer.c **** 	#endif
 152:..\FreeRTOS10/stream_buffer.c **** } StreamBuffer_t;
 153:..\FreeRTOS10/stream_buffer.c **** 
 154:..\FreeRTOS10/stream_buffer.c **** /*
 155:..\FreeRTOS10/stream_buffer.c ****  * The number of bytes available to be read from the buffer.
 156:..\FreeRTOS10/stream_buffer.c ****  */
 157:..\FreeRTOS10/stream_buffer.c **** static size_t prvBytesInBuffer( const StreamBuffer_t * const pxStreamBuffer ) PRIVILEGED_FUNCTION;
 158:..\FreeRTOS10/stream_buffer.c **** 
 159:..\FreeRTOS10/stream_buffer.c **** /*
 160:..\FreeRTOS10/stream_buffer.c ****  * Add xCount bytes from pucData into the pxStreamBuffer message buffer.
 161:..\FreeRTOS10/stream_buffer.c ****  * Returns the number of bytes written, which will either equal xCount in the
 162:..\FreeRTOS10/stream_buffer.c ****  * success case, or 0 if there was not enough space in the buffer (in which case
 163:..\FreeRTOS10/stream_buffer.c ****  * no data is written into the buffer).
 164:..\FreeRTOS10/stream_buffer.c ****  */
 165:..\FreeRTOS10/stream_buffer.c **** static size_t prvWriteBytesToBuffer( StreamBuffer_t * const pxStreamBuffer, const uint8_t *pucData,
 166:..\FreeRTOS10/stream_buffer.c **** 
 167:..\FreeRTOS10/stream_buffer.c **** /*
 168:..\FreeRTOS10/stream_buffer.c ****  * If the stream buffer is being used as a message buffer, then reads an entire
 169:..\FreeRTOS10/stream_buffer.c ****  * message out of the buffer.  If the stream buffer is being used as a stream
 170:..\FreeRTOS10/stream_buffer.c ****  * buffer then read as many bytes as possible from the buffer.
 171:..\FreeRTOS10/stream_buffer.c ****  * prvReadBytesFromBuffer() is called to actually extract the bytes from the
 172:..\FreeRTOS10/stream_buffer.c ****  * buffer's data storage area.
 173:..\FreeRTOS10/stream_buffer.c ****  */
 174:..\FreeRTOS10/stream_buffer.c **** static size_t prvReadMessageFromBuffer( StreamBuffer_t *pxStreamBuffer,
 175:..\FreeRTOS10/stream_buffer.c **** 										void *pvRxData,
 176:..\FreeRTOS10/stream_buffer.c **** 										size_t xBufferLengthBytes,
 177:..\FreeRTOS10/stream_buffer.c **** 										size_t xBytesAvailable,
 178:..\FreeRTOS10/stream_buffer.c **** 										size_t xBytesToStoreMessageLength ) PRIVILEGED_FUNCTION;
 179:..\FreeRTOS10/stream_buffer.c **** 
 180:..\FreeRTOS10/stream_buffer.c **** /*
 181:..\FreeRTOS10/stream_buffer.c ****  * If the stream buffer is being used as a message buffer, then writes an entire
 182:..\FreeRTOS10/stream_buffer.c ****  * message to the buffer.  If the stream buffer is being used as a stream
 183:..\FreeRTOS10/stream_buffer.c ****  * buffer then write as many bytes as possible to the buffer.
 184:..\FreeRTOS10/stream_buffer.c ****  * prvWriteBytestoBuffer() is called to actually send the bytes to the buffer's
 185:..\FreeRTOS10/stream_buffer.c ****  * data storage area.
 186:..\FreeRTOS10/stream_buffer.c ****  */
 187:..\FreeRTOS10/stream_buffer.c **** static size_t prvWriteMessageToBuffer(  StreamBuffer_t * const pxStreamBuffer,
 188:..\FreeRTOS10/stream_buffer.c **** 										const void * pvTxData,
 189:..\FreeRTOS10/stream_buffer.c **** 										size_t xDataLengthBytes,
 190:..\FreeRTOS10/stream_buffer.c **** 										size_t xSpace,
 191:..\FreeRTOS10/stream_buffer.c **** 										size_t xRequiredSpace ) PRIVILEGED_FUNCTION;
 192:..\FreeRTOS10/stream_buffer.c **** 
 193:..\FreeRTOS10/stream_buffer.c **** /*
 194:..\FreeRTOS10/stream_buffer.c ****  * Read xMaxCount bytes from the pxStreamBuffer message buffer and write them
 195:..\FreeRTOS10/stream_buffer.c ****  * to pucData.
 196:..\FreeRTOS10/stream_buffer.c ****  */
 197:..\FreeRTOS10/stream_buffer.c **** static size_t prvReadBytesFromBuffer( StreamBuffer_t *pxStreamBuffer,
 198:..\FreeRTOS10/stream_buffer.c **** 									  uint8_t *pucData,
 199:..\FreeRTOS10/stream_buffer.c **** 									  size_t xMaxCount,
 200:..\FreeRTOS10/stream_buffer.c **** 									  size_t xBytesAvailable ); PRIVILEGED_FUNCTION
 201:..\FreeRTOS10/stream_buffer.c **** 
 202:..\FreeRTOS10/stream_buffer.c **** /*
ARM GAS  C:\Users\Xwx47\AppData\Local\Temp\ccZsRkco.s 			page 5


 203:..\FreeRTOS10/stream_buffer.c ****  * Called by both pxStreamBufferCreate() and pxStreamBufferCreateStatic() to
 204:..\FreeRTOS10/stream_buffer.c ****  * initialise the members of the newly created stream buffer structure.
 205:..\FreeRTOS10/stream_buffer.c ****  */
 206:..\FreeRTOS10/stream_buffer.c **** static void prvInitialiseNewStreamBuffer( StreamBuffer_t * const pxStreamBuffer,
 207:..\FreeRTOS10/stream_buffer.c **** 										  uint8_t * const pucBuffer,
 208:..\FreeRTOS10/stream_buffer.c **** 										  size_t xBufferSizeBytes,
 209:..\FreeRTOS10/stream_buffer.c **** 										  size_t xTriggerLevelBytes,
 210:..\FreeRTOS10/stream_buffer.c **** 										  BaseType_t xIsMessageBuffer ) PRIVILEGED_FUNCTION;
 211:..\FreeRTOS10/stream_buffer.c **** 
 212:..\FreeRTOS10/stream_buffer.c **** /*-----------------------------------------------------------*/
 213:..\FreeRTOS10/stream_buffer.c **** 
 214:..\FreeRTOS10/stream_buffer.c **** #if( configSUPPORT_DYNAMIC_ALLOCATION == 1 )
 215:..\FreeRTOS10/stream_buffer.c **** 
 216:..\FreeRTOS10/stream_buffer.c **** 	StreamBufferHandle_t xStreamBufferGenericCreate( size_t xBufferSizeBytes, size_t xTriggerLevelByte
 217:..\FreeRTOS10/stream_buffer.c **** 	{
 218:..\FreeRTOS10/stream_buffer.c **** 	uint8_t *pucAllocatedMemory;
 219:..\FreeRTOS10/stream_buffer.c **** 
 220:..\FreeRTOS10/stream_buffer.c **** 		/* In case the stream buffer is going to be used as a message buffer
 221:..\FreeRTOS10/stream_buffer.c **** 		(that is, it will hold discrete messages with a little meta data that
 222:..\FreeRTOS10/stream_buffer.c **** 		says how big the next message is) check the buffer will be large enough
 223:..\FreeRTOS10/stream_buffer.c **** 		to hold at least one message. */
 224:..\FreeRTOS10/stream_buffer.c **** 		configASSERT( xBufferSizeBytes > sbBYTES_TO_STORE_MESSAGE_LENGTH );
 225:..\FreeRTOS10/stream_buffer.c **** 		configASSERT( xTriggerLevelBytes <= xBufferSizeBytes );
 226:..\FreeRTOS10/stream_buffer.c **** 
 227:..\FreeRTOS10/stream_buffer.c **** 		/* A trigger level of 0 would cause a waiting task to unblock even when
 228:..\FreeRTOS10/stream_buffer.c **** 		the buffer was empty. */
 229:..\FreeRTOS10/stream_buffer.c **** 		if( xTriggerLevelBytes == ( size_t ) 0 )
 230:..\FreeRTOS10/stream_buffer.c **** 		{
 231:..\FreeRTOS10/stream_buffer.c **** 			xTriggerLevelBytes = ( size_t ) 1; /*lint !e9044 Parameter modified to ensure it doesn't have a 
 232:..\FreeRTOS10/stream_buffer.c **** 		}
 233:..\FreeRTOS10/stream_buffer.c **** 
 234:..\FreeRTOS10/stream_buffer.c **** 		/* A stream buffer requires a StreamBuffer_t structure and a buffer.
 235:..\FreeRTOS10/stream_buffer.c **** 		Both are allocated in a single call to pvPortMalloc().  The
 236:..\FreeRTOS10/stream_buffer.c **** 		StreamBuffer_t structure is placed at the start of the allocated memory
 237:..\FreeRTOS10/stream_buffer.c **** 		and the buffer follows immediately after.  The requested size is
 238:..\FreeRTOS10/stream_buffer.c **** 		incremented so the free space is returned as the user would expect -
 239:..\FreeRTOS10/stream_buffer.c **** 		this is a quirk of the implementation that means otherwise the free
 240:..\FreeRTOS10/stream_buffer.c **** 		space would be reported as one byte smaller than would be logically
 241:..\FreeRTOS10/stream_buffer.c **** 		expected. */
 242:..\FreeRTOS10/stream_buffer.c **** 		xBufferSizeBytes++;
 243:..\FreeRTOS10/stream_buffer.c **** 		pucAllocatedMemory = ( uint8_t * ) pvPortMalloc( xBufferSizeBytes + sizeof( StreamBuffer_t ) ); /
 244:..\FreeRTOS10/stream_buffer.c **** 
 245:..\FreeRTOS10/stream_buffer.c **** 		if( pucAllocatedMemory != NULL )
 246:..\FreeRTOS10/stream_buffer.c **** 		{
 247:..\FreeRTOS10/stream_buffer.c **** 			prvInitialiseNewStreamBuffer( ( StreamBuffer_t * ) pucAllocatedMemory, /* Structure at the start
 248:..\FreeRTOS10/stream_buffer.c **** 										   pucAllocatedMemory + sizeof( StreamBuffer_t ),  /* Storage area follows. */ /*lint !e9
 249:..\FreeRTOS10/stream_buffer.c **** 										   xBufferSizeBytes,
 250:..\FreeRTOS10/stream_buffer.c **** 										   xTriggerLevelBytes,
 251:..\FreeRTOS10/stream_buffer.c **** 										   xIsMessageBuffer );
 252:..\FreeRTOS10/stream_buffer.c **** 
 253:..\FreeRTOS10/stream_buffer.c **** 			traceSTREAM_BUFFER_CREATE( ( ( StreamBuffer_t * ) pucAllocatedMemory ), xIsMessageBuffer );
 254:..\FreeRTOS10/stream_buffer.c **** 		}
 255:..\FreeRTOS10/stream_buffer.c **** 		else
 256:..\FreeRTOS10/stream_buffer.c **** 		{
 257:..\FreeRTOS10/stream_buffer.c **** 			traceSTREAM_BUFFER_CREATE_FAILED( xIsMessageBuffer );
 258:..\FreeRTOS10/stream_buffer.c **** 		}
 259:..\FreeRTOS10/stream_buffer.c **** 
ARM GAS  C:\Users\Xwx47\AppData\Local\Temp\ccZsRkco.s 			page 6


 260:..\FreeRTOS10/stream_buffer.c **** 		return ( StreamBufferHandle_t * ) pucAllocatedMemory; /*lint !e9087 !e826 Safe cast as allocated 
 261:..\FreeRTOS10/stream_buffer.c **** 	}
 262:..\FreeRTOS10/stream_buffer.c **** 
 263:..\FreeRTOS10/stream_buffer.c **** #endif /* configSUPPORT_DYNAMIC_ALLOCATION */
 264:..\FreeRTOS10/stream_buffer.c **** /*-----------------------------------------------------------*/
 265:..\FreeRTOS10/stream_buffer.c **** 
 266:..\FreeRTOS10/stream_buffer.c **** #if( configSUPPORT_STATIC_ALLOCATION == 1 )
 267:..\FreeRTOS10/stream_buffer.c **** 
 268:..\FreeRTOS10/stream_buffer.c **** 	StreamBufferHandle_t xStreamBufferGenericCreateStatic( size_t xBufferSizeBytes,
 269:..\FreeRTOS10/stream_buffer.c **** 														   size_t xTriggerLevelBytes,
 270:..\FreeRTOS10/stream_buffer.c **** 														   BaseType_t xIsMessageBuffer,
 271:..\FreeRTOS10/stream_buffer.c **** 														   uint8_t * const pucStreamBufferStorageArea,
 272:..\FreeRTOS10/stream_buffer.c **** 														   StaticStreamBuffer_t * const pxStaticStreamBuffer )
 273:..\FreeRTOS10/stream_buffer.c **** 	{
 274:..\FreeRTOS10/stream_buffer.c **** 	StreamBuffer_t * const pxStreamBuffer = ( StreamBuffer_t * ) pxStaticStreamBuffer; /*lint !e740 !e
 275:..\FreeRTOS10/stream_buffer.c **** 	StreamBufferHandle_t xReturn;
 276:..\FreeRTOS10/stream_buffer.c **** 
 277:..\FreeRTOS10/stream_buffer.c **** 		configASSERT( pucStreamBufferStorageArea );
 278:..\FreeRTOS10/stream_buffer.c **** 		configASSERT( pxStaticStreamBuffer );
 279:..\FreeRTOS10/stream_buffer.c **** 		configASSERT( xTriggerLevelBytes <= xBufferSizeBytes );
 280:..\FreeRTOS10/stream_buffer.c **** 
 281:..\FreeRTOS10/stream_buffer.c **** 		/* A trigger level of 0 would cause a waiting task to unblock even when
 282:..\FreeRTOS10/stream_buffer.c **** 		the buffer was empty. */
 283:..\FreeRTOS10/stream_buffer.c **** 		if( xTriggerLevelBytes == ( size_t ) 0 )
 284:..\FreeRTOS10/stream_buffer.c **** 		{
 285:..\FreeRTOS10/stream_buffer.c **** 			xTriggerLevelBytes = ( size_t ) 1; /*lint !e9044 Function parameter deliberately modified to ens
 286:..\FreeRTOS10/stream_buffer.c **** 		}
 287:..\FreeRTOS10/stream_buffer.c **** 
 288:..\FreeRTOS10/stream_buffer.c **** 		/* In case the stream buffer is going to be used as a message buffer
 289:..\FreeRTOS10/stream_buffer.c **** 		(that is, it will hold discrete messages with a little meta data that
 290:..\FreeRTOS10/stream_buffer.c **** 		says how big the next message is) check the buffer will be large enough
 291:..\FreeRTOS10/stream_buffer.c **** 		to hold at least one message. */
 292:..\FreeRTOS10/stream_buffer.c **** 		configASSERT( xBufferSizeBytes > sbBYTES_TO_STORE_MESSAGE_LENGTH );
 293:..\FreeRTOS10/stream_buffer.c **** 
 294:..\FreeRTOS10/stream_buffer.c **** 		#if( configASSERT_DEFINED == 1 )
 295:..\FreeRTOS10/stream_buffer.c **** 		{
 296:..\FreeRTOS10/stream_buffer.c **** 			/* Sanity check that the size of the structure used to declare a
 297:..\FreeRTOS10/stream_buffer.c **** 			variable of type StaticStreamBuffer_t equals the size of the real
 298:..\FreeRTOS10/stream_buffer.c **** 			message buffer structure. */
 299:..\FreeRTOS10/stream_buffer.c **** 			volatile size_t xSize = sizeof( StaticStreamBuffer_t );
 300:..\FreeRTOS10/stream_buffer.c **** 			configASSERT( xSize == sizeof( StreamBuffer_t ) );
 301:..\FreeRTOS10/stream_buffer.c **** 		}
 302:..\FreeRTOS10/stream_buffer.c **** 		#endif /* configASSERT_DEFINED */
 303:..\FreeRTOS10/stream_buffer.c **** 
 304:..\FreeRTOS10/stream_buffer.c **** 		if( ( pucStreamBufferStorageArea != NULL ) && ( pxStaticStreamBuffer != NULL ) )
 305:..\FreeRTOS10/stream_buffer.c **** 		{
 306:..\FreeRTOS10/stream_buffer.c **** 			prvInitialiseNewStreamBuffer( pxStreamBuffer,
 307:..\FreeRTOS10/stream_buffer.c **** 										  pucStreamBufferStorageArea,
 308:..\FreeRTOS10/stream_buffer.c **** 										  xBufferSizeBytes,
 309:..\FreeRTOS10/stream_buffer.c **** 										  xTriggerLevelBytes,
 310:..\FreeRTOS10/stream_buffer.c **** 										  xIsMessageBuffer );
 311:..\FreeRTOS10/stream_buffer.c **** 
 312:..\FreeRTOS10/stream_buffer.c **** 			/* Remember this was statically allocated in case it is ever deleted
 313:..\FreeRTOS10/stream_buffer.c **** 			again. */
 314:..\FreeRTOS10/stream_buffer.c **** 			pxStreamBuffer->ucFlags |= sbFLAGS_IS_STATICALLY_ALLOCATED;
 315:..\FreeRTOS10/stream_buffer.c **** 
 316:..\FreeRTOS10/stream_buffer.c **** 			traceSTREAM_BUFFER_CREATE( pxStreamBuffer, xIsMessageBuffer );
ARM GAS  C:\Users\Xwx47\AppData\Local\Temp\ccZsRkco.s 			page 7


 317:..\FreeRTOS10/stream_buffer.c **** 
 318:..\FreeRTOS10/stream_buffer.c **** 			xReturn = ( StreamBufferHandle_t ) pxStaticStreamBuffer; /*lint !e9087 Data hiding requires cast
 319:..\FreeRTOS10/stream_buffer.c **** 		}
 320:..\FreeRTOS10/stream_buffer.c **** 		else
 321:..\FreeRTOS10/stream_buffer.c **** 		{
 322:..\FreeRTOS10/stream_buffer.c **** 			xReturn = NULL;
 323:..\FreeRTOS10/stream_buffer.c **** 			traceSTREAM_BUFFER_CREATE_STATIC_FAILED( xReturn, xIsMessageBuffer );
 324:..\FreeRTOS10/stream_buffer.c **** 		}
 325:..\FreeRTOS10/stream_buffer.c **** 
 326:..\FreeRTOS10/stream_buffer.c **** 		return xReturn;
 327:..\FreeRTOS10/stream_buffer.c **** 	}
 328:..\FreeRTOS10/stream_buffer.c **** 
 329:..\FreeRTOS10/stream_buffer.c **** #endif /* ( configSUPPORT_STATIC_ALLOCATION == 1 ) */
 330:..\FreeRTOS10/stream_buffer.c **** /*-----------------------------------------------------------*/
 331:..\FreeRTOS10/stream_buffer.c **** 
 332:..\FreeRTOS10/stream_buffer.c **** void vStreamBufferDelete( StreamBufferHandle_t xStreamBuffer )
 333:..\FreeRTOS10/stream_buffer.c **** {
 334:..\FreeRTOS10/stream_buffer.c **** StreamBuffer_t * pxStreamBuffer = ( StreamBuffer_t * ) xStreamBuffer; /*lint !e9087 !e9079 Safe cas
 335:..\FreeRTOS10/stream_buffer.c **** 
 336:..\FreeRTOS10/stream_buffer.c **** 	configASSERT( pxStreamBuffer );
 337:..\FreeRTOS10/stream_buffer.c **** 
 338:..\FreeRTOS10/stream_buffer.c **** 	traceSTREAM_BUFFER_DELETE( xStreamBuffer );
 339:..\FreeRTOS10/stream_buffer.c **** 
 340:..\FreeRTOS10/stream_buffer.c **** 	if( ( pxStreamBuffer->ucFlags & sbFLAGS_IS_STATICALLY_ALLOCATED ) == ( uint8_t ) pdFALSE )
 341:..\FreeRTOS10/stream_buffer.c **** 	{
 342:..\FreeRTOS10/stream_buffer.c **** 		#if( configSUPPORT_DYNAMIC_ALLOCATION == 1 )
 343:..\FreeRTOS10/stream_buffer.c **** 		{
 344:..\FreeRTOS10/stream_buffer.c **** 			/* Both the structure and the buffer were allocated using a single call
 345:..\FreeRTOS10/stream_buffer.c **** 			to pvPortMalloc(), hence only one call to vPortFree() is required. */
 346:..\FreeRTOS10/stream_buffer.c **** 			vPortFree( ( void * ) pxStreamBuffer ); /*lint !e9087 Standard free() semantics require void *, 
 347:..\FreeRTOS10/stream_buffer.c **** 		}
 348:..\FreeRTOS10/stream_buffer.c **** 		#else
 349:..\FreeRTOS10/stream_buffer.c **** 		{
 350:..\FreeRTOS10/stream_buffer.c **** 			/* Should not be possible to get here, ucFlags must be corrupt.
 351:..\FreeRTOS10/stream_buffer.c **** 			Force an assert. */
 352:..\FreeRTOS10/stream_buffer.c **** 			configASSERT( xStreamBuffer == ( StreamBufferHandle_t ) ~0 );
 353:..\FreeRTOS10/stream_buffer.c **** 		}
 354:..\FreeRTOS10/stream_buffer.c **** 		#endif
 355:..\FreeRTOS10/stream_buffer.c **** 	}
 356:..\FreeRTOS10/stream_buffer.c **** 	else
 357:..\FreeRTOS10/stream_buffer.c **** 	{
 358:..\FreeRTOS10/stream_buffer.c **** 		/* The structure and buffer were not allocated dynamically and cannot be
 359:..\FreeRTOS10/stream_buffer.c **** 		freed - just scrub the structure so future use will assert. */
 360:..\FreeRTOS10/stream_buffer.c **** 		memset( pxStreamBuffer, 0x00, sizeof( StreamBuffer_t ) );
 361:..\FreeRTOS10/stream_buffer.c **** 	}
 362:..\FreeRTOS10/stream_buffer.c **** }
 363:..\FreeRTOS10/stream_buffer.c **** /*-----------------------------------------------------------*/
 364:..\FreeRTOS10/stream_buffer.c **** 
 365:..\FreeRTOS10/stream_buffer.c **** BaseType_t xStreamBufferReset( StreamBufferHandle_t xStreamBuffer )
 366:..\FreeRTOS10/stream_buffer.c **** {
 367:..\FreeRTOS10/stream_buffer.c **** StreamBuffer_t * const pxStreamBuffer = ( StreamBuffer_t * ) xStreamBuffer; /*lint !e9087 !e9079 Sa
 368:..\FreeRTOS10/stream_buffer.c **** BaseType_t xReturn = pdFAIL, xIsMessageBuffer;
 369:..\FreeRTOS10/stream_buffer.c **** 
 370:..\FreeRTOS10/stream_buffer.c **** #if( configUSE_TRACE_FACILITY == 1 )
 371:..\FreeRTOS10/stream_buffer.c **** 	UBaseType_t uxStreamBufferNumber;
 372:..\FreeRTOS10/stream_buffer.c **** #endif
 373:..\FreeRTOS10/stream_buffer.c **** 
ARM GAS  C:\Users\Xwx47\AppData\Local\Temp\ccZsRkco.s 			page 8


 374:..\FreeRTOS10/stream_buffer.c **** 	configASSERT( pxStreamBuffer );
 375:..\FreeRTOS10/stream_buffer.c **** 
 376:..\FreeRTOS10/stream_buffer.c **** 	#if( configUSE_TRACE_FACILITY == 1 )
 377:..\FreeRTOS10/stream_buffer.c **** 	{
 378:..\FreeRTOS10/stream_buffer.c **** 		/* Store the stream buffer number so it can be restored after the
 379:..\FreeRTOS10/stream_buffer.c **** 		reset. */
 380:..\FreeRTOS10/stream_buffer.c **** 		uxStreamBufferNumber = pxStreamBuffer->uxStreamBufferNumber;
 381:..\FreeRTOS10/stream_buffer.c **** 	}
 382:..\FreeRTOS10/stream_buffer.c **** 	#endif
 383:..\FreeRTOS10/stream_buffer.c **** 
 384:..\FreeRTOS10/stream_buffer.c **** 	/* Can only reset a message buffer if there are no tasks blocked on it. */
 385:..\FreeRTOS10/stream_buffer.c **** 	if( pxStreamBuffer->xTaskWaitingToReceive == NULL )
 386:..\FreeRTOS10/stream_buffer.c **** 	{
 387:..\FreeRTOS10/stream_buffer.c **** 		if( pxStreamBuffer->xTaskWaitingToSend == NULL )
 388:..\FreeRTOS10/stream_buffer.c **** 		{
 389:..\FreeRTOS10/stream_buffer.c **** 			if( ( pxStreamBuffer->ucFlags & sbFLAGS_IS_MESSAGE_BUFFER ) != ( uint8_t ) 0 )
 390:..\FreeRTOS10/stream_buffer.c **** 			{
 391:..\FreeRTOS10/stream_buffer.c **** 				xIsMessageBuffer = pdTRUE;
 392:..\FreeRTOS10/stream_buffer.c **** 			}
 393:..\FreeRTOS10/stream_buffer.c **** 			else
 394:..\FreeRTOS10/stream_buffer.c **** 			{
 395:..\FreeRTOS10/stream_buffer.c **** 				xIsMessageBuffer = pdFALSE;
 396:..\FreeRTOS10/stream_buffer.c **** 			}
 397:..\FreeRTOS10/stream_buffer.c **** 
 398:..\FreeRTOS10/stream_buffer.c **** 			prvInitialiseNewStreamBuffer( pxStreamBuffer,
 399:..\FreeRTOS10/stream_buffer.c **** 										  pxStreamBuffer->pucBuffer,
 400:..\FreeRTOS10/stream_buffer.c **** 										  pxStreamBuffer->xLength,
 401:..\FreeRTOS10/stream_buffer.c **** 										  pxStreamBuffer->xTriggerLevelBytes,
 402:..\FreeRTOS10/stream_buffer.c **** 										  xIsMessageBuffer );
 403:..\FreeRTOS10/stream_buffer.c **** 			xReturn = pdPASS;
 404:..\FreeRTOS10/stream_buffer.c **** 
 405:..\FreeRTOS10/stream_buffer.c **** 			#if( configUSE_TRACE_FACILITY == 1 )
 406:..\FreeRTOS10/stream_buffer.c **** 			{
 407:..\FreeRTOS10/stream_buffer.c **** 				pxStreamBuffer->uxStreamBufferNumber = uxStreamBufferNumber;
 408:..\FreeRTOS10/stream_buffer.c **** 			}
 409:..\FreeRTOS10/stream_buffer.c **** 			#endif
 410:..\FreeRTOS10/stream_buffer.c **** 
 411:..\FreeRTOS10/stream_buffer.c **** 			traceSTREAM_BUFFER_RESET( xStreamBuffer );
 412:..\FreeRTOS10/stream_buffer.c **** 		}
 413:..\FreeRTOS10/stream_buffer.c **** 	}
 414:..\FreeRTOS10/stream_buffer.c **** 
 415:..\FreeRTOS10/stream_buffer.c **** 	return xReturn;
 416:..\FreeRTOS10/stream_buffer.c **** }
 417:..\FreeRTOS10/stream_buffer.c **** /*-----------------------------------------------------------*/
 418:..\FreeRTOS10/stream_buffer.c **** 
 419:..\FreeRTOS10/stream_buffer.c **** BaseType_t xStreamBufferSetTriggerLevel( StreamBufferHandle_t xStreamBuffer, size_t xTriggerLevel )
 420:..\FreeRTOS10/stream_buffer.c **** {
 421:..\FreeRTOS10/stream_buffer.c **** StreamBuffer_t * const pxStreamBuffer = ( StreamBuffer_t * ) xStreamBuffer; /*lint !e9087 !e9079 Sa
 422:..\FreeRTOS10/stream_buffer.c **** BaseType_t xReturn;
 423:..\FreeRTOS10/stream_buffer.c **** 
 424:..\FreeRTOS10/stream_buffer.c **** 	configASSERT( pxStreamBuffer );
 425:..\FreeRTOS10/stream_buffer.c **** 
 426:..\FreeRTOS10/stream_buffer.c **** 	/* It is not valid for the trigger level to be 0. */
 427:..\FreeRTOS10/stream_buffer.c **** 	if( xTriggerLevel == ( size_t ) 0 )
 428:..\FreeRTOS10/stream_buffer.c **** 	{
 429:..\FreeRTOS10/stream_buffer.c **** 		xTriggerLevel = ( size_t ) 1; /*lint !e9044 Parameter modified to ensure it doesn't have a danger
 430:..\FreeRTOS10/stream_buffer.c **** 	}
ARM GAS  C:\Users\Xwx47\AppData\Local\Temp\ccZsRkco.s 			page 9


 431:..\FreeRTOS10/stream_buffer.c **** 
 432:..\FreeRTOS10/stream_buffer.c **** 	/* The trigger level is the number of bytes that must be in the stream
 433:..\FreeRTOS10/stream_buffer.c **** 	buffer before a task that is waiting for data is unblocked. */
 434:..\FreeRTOS10/stream_buffer.c **** 	if( xTriggerLevel <= pxStreamBuffer->xLength )
 435:..\FreeRTOS10/stream_buffer.c **** 	{
 436:..\FreeRTOS10/stream_buffer.c **** 		pxStreamBuffer->xTriggerLevelBytes = xTriggerLevel;
 437:..\FreeRTOS10/stream_buffer.c **** 		xReturn = pdPASS;
 438:..\FreeRTOS10/stream_buffer.c **** 	}
 439:..\FreeRTOS10/stream_buffer.c **** 	else
 440:..\FreeRTOS10/stream_buffer.c **** 	{
 441:..\FreeRTOS10/stream_buffer.c **** 		xReturn = pdFALSE;
 442:..\FreeRTOS10/stream_buffer.c **** 	}
 443:..\FreeRTOS10/stream_buffer.c **** 
 444:..\FreeRTOS10/stream_buffer.c **** 	return xReturn;
 445:..\FreeRTOS10/stream_buffer.c **** }
 446:..\FreeRTOS10/stream_buffer.c **** /*-----------------------------------------------------------*/
 447:..\FreeRTOS10/stream_buffer.c **** 
 448:..\FreeRTOS10/stream_buffer.c **** size_t xStreamBufferSpacesAvailable( StreamBufferHandle_t xStreamBuffer )
 449:..\FreeRTOS10/stream_buffer.c **** {
 450:..\FreeRTOS10/stream_buffer.c **** const StreamBuffer_t * const pxStreamBuffer = ( StreamBuffer_t * ) xStreamBuffer; /*lint !e9087 !e9
 451:..\FreeRTOS10/stream_buffer.c **** size_t xSpace;
 452:..\FreeRTOS10/stream_buffer.c **** 
 453:..\FreeRTOS10/stream_buffer.c **** 	configASSERT( pxStreamBuffer );
 454:..\FreeRTOS10/stream_buffer.c **** 
 455:..\FreeRTOS10/stream_buffer.c **** 	xSpace = pxStreamBuffer->xLength + pxStreamBuffer->xTail;
 456:..\FreeRTOS10/stream_buffer.c **** 	xSpace -= pxStreamBuffer->xHead;
 457:..\FreeRTOS10/stream_buffer.c **** 	xSpace -= ( size_t ) 1;
 458:..\FreeRTOS10/stream_buffer.c **** 
 459:..\FreeRTOS10/stream_buffer.c **** 	if( xSpace >= pxStreamBuffer->xLength )
 460:..\FreeRTOS10/stream_buffer.c **** 	{
 461:..\FreeRTOS10/stream_buffer.c **** 		xSpace -= pxStreamBuffer->xLength;
 462:..\FreeRTOS10/stream_buffer.c **** 	}
 463:..\FreeRTOS10/stream_buffer.c **** 	else
 464:..\FreeRTOS10/stream_buffer.c **** 	{
 465:..\FreeRTOS10/stream_buffer.c **** 		mtCOVERAGE_TEST_MARKER();
 466:..\FreeRTOS10/stream_buffer.c **** 	}
 467:..\FreeRTOS10/stream_buffer.c **** 
 468:..\FreeRTOS10/stream_buffer.c **** 	return xSpace;
 469:..\FreeRTOS10/stream_buffer.c **** }
 470:..\FreeRTOS10/stream_buffer.c **** /*-----------------------------------------------------------*/
 471:..\FreeRTOS10/stream_buffer.c **** 
 472:..\FreeRTOS10/stream_buffer.c **** size_t xStreamBufferBytesAvailable( StreamBufferHandle_t xStreamBuffer )
 473:..\FreeRTOS10/stream_buffer.c **** {
 474:..\FreeRTOS10/stream_buffer.c **** const StreamBuffer_t * const pxStreamBuffer = ( StreamBuffer_t * ) xStreamBuffer; /*lint !e9087 !e9
 475:..\FreeRTOS10/stream_buffer.c **** size_t xReturn;
 476:..\FreeRTOS10/stream_buffer.c **** 
 477:..\FreeRTOS10/stream_buffer.c **** 	configASSERT( pxStreamBuffer );
 478:..\FreeRTOS10/stream_buffer.c **** 
 479:..\FreeRTOS10/stream_buffer.c **** 	xReturn = prvBytesInBuffer( pxStreamBuffer );
 480:..\FreeRTOS10/stream_buffer.c **** 	return xReturn;
 481:..\FreeRTOS10/stream_buffer.c **** }
 482:..\FreeRTOS10/stream_buffer.c **** /*-----------------------------------------------------------*/
 483:..\FreeRTOS10/stream_buffer.c **** 
 484:..\FreeRTOS10/stream_buffer.c **** size_t xStreamBufferSend( StreamBufferHandle_t xStreamBuffer,
 485:..\FreeRTOS10/stream_buffer.c **** 						  const void *pvTxData,
 486:..\FreeRTOS10/stream_buffer.c **** 						  size_t xDataLengthBytes,
 487:..\FreeRTOS10/stream_buffer.c **** 						  TickType_t xTicksToWait )
ARM GAS  C:\Users\Xwx47\AppData\Local\Temp\ccZsRkco.s 			page 10


 488:..\FreeRTOS10/stream_buffer.c **** {
 489:..\FreeRTOS10/stream_buffer.c **** StreamBuffer_t * const pxStreamBuffer = ( StreamBuffer_t * ) xStreamBuffer; /*lint !e9087 !e9079 Sa
 490:..\FreeRTOS10/stream_buffer.c **** size_t xReturn, xSpace = 0;
 491:..\FreeRTOS10/stream_buffer.c **** size_t xRequiredSpace = xDataLengthBytes;
 492:..\FreeRTOS10/stream_buffer.c **** TimeOut_t xTimeOut;
 493:..\FreeRTOS10/stream_buffer.c **** 
 494:..\FreeRTOS10/stream_buffer.c **** 	configASSERT( pvTxData );
 495:..\FreeRTOS10/stream_buffer.c **** 	configASSERT( pxStreamBuffer );
 496:..\FreeRTOS10/stream_buffer.c **** 
 497:..\FreeRTOS10/stream_buffer.c **** 	/* This send function is used to write to both message buffers and stream
 498:..\FreeRTOS10/stream_buffer.c **** 	buffers.  If this is a message buffer then the space needed must be
 499:..\FreeRTOS10/stream_buffer.c **** 	increased by the amount of bytes needed to store the length of the
 500:..\FreeRTOS10/stream_buffer.c **** 	message. */
 501:..\FreeRTOS10/stream_buffer.c **** 	if( ( pxStreamBuffer->ucFlags & sbFLAGS_IS_MESSAGE_BUFFER ) != ( uint8_t ) 0 )
 502:..\FreeRTOS10/stream_buffer.c **** 	{
 503:..\FreeRTOS10/stream_buffer.c **** 		xRequiredSpace += sbBYTES_TO_STORE_MESSAGE_LENGTH;
 504:..\FreeRTOS10/stream_buffer.c **** 	}
 505:..\FreeRTOS10/stream_buffer.c **** 	else
 506:..\FreeRTOS10/stream_buffer.c **** 	{
 507:..\FreeRTOS10/stream_buffer.c **** 		mtCOVERAGE_TEST_MARKER();
 508:..\FreeRTOS10/stream_buffer.c **** 	}
 509:..\FreeRTOS10/stream_buffer.c **** 
 510:..\FreeRTOS10/stream_buffer.c **** 	if( xTicksToWait != ( TickType_t ) 0 )
 511:..\FreeRTOS10/stream_buffer.c **** 	{
 512:..\FreeRTOS10/stream_buffer.c **** 		vTaskSetTimeOutState( &xTimeOut );
 513:..\FreeRTOS10/stream_buffer.c **** 
 514:..\FreeRTOS10/stream_buffer.c **** 		do
 515:..\FreeRTOS10/stream_buffer.c **** 		{
 516:..\FreeRTOS10/stream_buffer.c **** 			/* Wait until the required number of bytes are free in the message
 517:..\FreeRTOS10/stream_buffer.c **** 			buffer. */
 518:..\FreeRTOS10/stream_buffer.c **** 			taskENTER_CRITICAL();
 519:..\FreeRTOS10/stream_buffer.c **** 			{
 520:..\FreeRTOS10/stream_buffer.c **** 				xSpace = xStreamBufferSpacesAvailable( pxStreamBuffer );
 521:..\FreeRTOS10/stream_buffer.c **** 
 522:..\FreeRTOS10/stream_buffer.c **** 				if( xSpace < xRequiredSpace )
 523:..\FreeRTOS10/stream_buffer.c **** 				{
 524:..\FreeRTOS10/stream_buffer.c **** 					/* Clear notification state as going to wait for space. */
 525:..\FreeRTOS10/stream_buffer.c **** 					( void ) xTaskNotifyStateClear( NULL );
 526:..\FreeRTOS10/stream_buffer.c **** 
 527:..\FreeRTOS10/stream_buffer.c **** 					/* Should only be one writer. */
 528:..\FreeRTOS10/stream_buffer.c **** 					configASSERT( pxStreamBuffer->xTaskWaitingToSend == NULL );
 529:..\FreeRTOS10/stream_buffer.c **** 					pxStreamBuffer->xTaskWaitingToSend = xTaskGetCurrentTaskHandle();
 530:..\FreeRTOS10/stream_buffer.c **** 				}
 531:..\FreeRTOS10/stream_buffer.c **** 				else
 532:..\FreeRTOS10/stream_buffer.c **** 				{
 533:..\FreeRTOS10/stream_buffer.c **** 					taskEXIT_CRITICAL();
 534:..\FreeRTOS10/stream_buffer.c **** 					break;
 535:..\FreeRTOS10/stream_buffer.c **** 				}
 536:..\FreeRTOS10/stream_buffer.c **** 			}
 537:..\FreeRTOS10/stream_buffer.c **** 			taskEXIT_CRITICAL();
 538:..\FreeRTOS10/stream_buffer.c **** 
 539:..\FreeRTOS10/stream_buffer.c **** 			traceBLOCKING_ON_STREAM_BUFFER_SEND( xStreamBuffer );
 540:..\FreeRTOS10/stream_buffer.c **** 			( void ) xTaskNotifyWait( ( uint32_t ) 0, UINT32_MAX, NULL, xTicksToWait );
 541:..\FreeRTOS10/stream_buffer.c **** 			pxStreamBuffer->xTaskWaitingToSend = NULL;
 542:..\FreeRTOS10/stream_buffer.c **** 
 543:..\FreeRTOS10/stream_buffer.c **** 		} while( xTaskCheckForTimeOut( &xTimeOut, &xTicksToWait ) == pdFALSE );
 544:..\FreeRTOS10/stream_buffer.c **** 	}
ARM GAS  C:\Users\Xwx47\AppData\Local\Temp\ccZsRkco.s 			page 11


 545:..\FreeRTOS10/stream_buffer.c **** 	else
 546:..\FreeRTOS10/stream_buffer.c **** 	{
 547:..\FreeRTOS10/stream_buffer.c **** 		mtCOVERAGE_TEST_MARKER();
 548:..\FreeRTOS10/stream_buffer.c **** 	}
 549:..\FreeRTOS10/stream_buffer.c **** 
 550:..\FreeRTOS10/stream_buffer.c **** 	if( xSpace == ( size_t ) 0 )
 551:..\FreeRTOS10/stream_buffer.c **** 	{
 552:..\FreeRTOS10/stream_buffer.c **** 		xSpace = xStreamBufferSpacesAvailable( pxStreamBuffer );
 553:..\FreeRTOS10/stream_buffer.c **** 	}
 554:..\FreeRTOS10/stream_buffer.c **** 	else
 555:..\FreeRTOS10/stream_buffer.c **** 	{
 556:..\FreeRTOS10/stream_buffer.c **** 		mtCOVERAGE_TEST_MARKER();
 557:..\FreeRTOS10/stream_buffer.c **** 	}
 558:..\FreeRTOS10/stream_buffer.c **** 
 559:..\FreeRTOS10/stream_buffer.c **** 	xReturn = prvWriteMessageToBuffer( pxStreamBuffer, pvTxData, xDataLengthBytes, xSpace, xRequiredSp
 560:..\FreeRTOS10/stream_buffer.c **** 
 561:..\FreeRTOS10/stream_buffer.c **** 	if( xReturn > ( size_t ) 0 )
 562:..\FreeRTOS10/stream_buffer.c **** 	{
 563:..\FreeRTOS10/stream_buffer.c **** 		traceSTREAM_BUFFER_SEND( xStreamBuffer, xReturn );
 564:..\FreeRTOS10/stream_buffer.c **** 
 565:..\FreeRTOS10/stream_buffer.c **** 		/* Was a task waiting for the data? */
 566:..\FreeRTOS10/stream_buffer.c **** 		if( prvBytesInBuffer( pxStreamBuffer ) >= pxStreamBuffer->xTriggerLevelBytes )
 567:..\FreeRTOS10/stream_buffer.c **** 		{
 568:..\FreeRTOS10/stream_buffer.c **** 			sbSEND_COMPLETED( pxStreamBuffer );
 569:..\FreeRTOS10/stream_buffer.c **** 		}
 570:..\FreeRTOS10/stream_buffer.c **** 		else
 571:..\FreeRTOS10/stream_buffer.c **** 		{
 572:..\FreeRTOS10/stream_buffer.c **** 			mtCOVERAGE_TEST_MARKER();
 573:..\FreeRTOS10/stream_buffer.c **** 		}
 574:..\FreeRTOS10/stream_buffer.c **** 	}
 575:..\FreeRTOS10/stream_buffer.c **** 	else
 576:..\FreeRTOS10/stream_buffer.c **** 	{
 577:..\FreeRTOS10/stream_buffer.c **** 		mtCOVERAGE_TEST_MARKER();
 578:..\FreeRTOS10/stream_buffer.c **** 		traceSTREAM_BUFFER_SEND_FAILED( xStreamBuffer );
 579:..\FreeRTOS10/stream_buffer.c **** 	}
 580:..\FreeRTOS10/stream_buffer.c **** 
 581:..\FreeRTOS10/stream_buffer.c **** 	return xReturn;
 582:..\FreeRTOS10/stream_buffer.c **** }
 583:..\FreeRTOS10/stream_buffer.c **** /*-----------------------------------------------------------*/
 584:..\FreeRTOS10/stream_buffer.c **** 
 585:..\FreeRTOS10/stream_buffer.c **** size_t xStreamBufferSendFromISR( StreamBufferHandle_t xStreamBuffer,
 586:..\FreeRTOS10/stream_buffer.c **** 								 const void *pvTxData,
 587:..\FreeRTOS10/stream_buffer.c **** 								 size_t xDataLengthBytes,
 588:..\FreeRTOS10/stream_buffer.c **** 								 BaseType_t * const pxHigherPriorityTaskWoken )
 589:..\FreeRTOS10/stream_buffer.c **** {
 590:..\FreeRTOS10/stream_buffer.c **** StreamBuffer_t * const pxStreamBuffer = ( StreamBuffer_t * ) xStreamBuffer; /*lint !e9087 !e9079 Sa
 591:..\FreeRTOS10/stream_buffer.c **** size_t xReturn, xSpace;
 592:..\FreeRTOS10/stream_buffer.c **** size_t xRequiredSpace = xDataLengthBytes;
 593:..\FreeRTOS10/stream_buffer.c **** 
 594:..\FreeRTOS10/stream_buffer.c **** 	configASSERT( pvTxData );
 595:..\FreeRTOS10/stream_buffer.c **** 	configASSERT( pxStreamBuffer );
 596:..\FreeRTOS10/stream_buffer.c **** 
 597:..\FreeRTOS10/stream_buffer.c **** 	/* This send function is used to write to both message buffers and stream
 598:..\FreeRTOS10/stream_buffer.c **** 	buffers.  If this is a message buffer then the space needed must be
 599:..\FreeRTOS10/stream_buffer.c **** 	increased by the amount of bytes needed to store the length of the
 600:..\FreeRTOS10/stream_buffer.c **** 	message. */
 601:..\FreeRTOS10/stream_buffer.c **** 	if( ( pxStreamBuffer->ucFlags & sbFLAGS_IS_MESSAGE_BUFFER ) != ( uint8_t ) 0 )
ARM GAS  C:\Users\Xwx47\AppData\Local\Temp\ccZsRkco.s 			page 12


 602:..\FreeRTOS10/stream_buffer.c **** 	{
 603:..\FreeRTOS10/stream_buffer.c **** 		xRequiredSpace += sbBYTES_TO_STORE_MESSAGE_LENGTH;
 604:..\FreeRTOS10/stream_buffer.c **** 	}
 605:..\FreeRTOS10/stream_buffer.c **** 	else
 606:..\FreeRTOS10/stream_buffer.c **** 	{
 607:..\FreeRTOS10/stream_buffer.c **** 		mtCOVERAGE_TEST_MARKER();
 608:..\FreeRTOS10/stream_buffer.c **** 	}
 609:..\FreeRTOS10/stream_buffer.c **** 
 610:..\FreeRTOS10/stream_buffer.c **** 	xSpace = xStreamBufferSpacesAvailable( pxStreamBuffer );
 611:..\FreeRTOS10/stream_buffer.c **** 	xReturn = prvWriteMessageToBuffer( pxStreamBuffer, pvTxData, xDataLengthBytes, xSpace, xRequiredSp
 612:..\FreeRTOS10/stream_buffer.c **** 
 613:..\FreeRTOS10/stream_buffer.c **** 	if( xReturn > ( size_t ) 0 )
 614:..\FreeRTOS10/stream_buffer.c **** 	{
 615:..\FreeRTOS10/stream_buffer.c **** 		/* Was a task waiting for the data? */
 616:..\FreeRTOS10/stream_buffer.c **** 		if( prvBytesInBuffer( pxStreamBuffer ) >= pxStreamBuffer->xTriggerLevelBytes )
 617:..\FreeRTOS10/stream_buffer.c **** 		{
 618:..\FreeRTOS10/stream_buffer.c **** 			sbSEND_COMPLETE_FROM_ISR( pxStreamBuffer, pxHigherPriorityTaskWoken );
 619:..\FreeRTOS10/stream_buffer.c **** 		}
 620:..\FreeRTOS10/stream_buffer.c **** 		else
 621:..\FreeRTOS10/stream_buffer.c **** 		{
 622:..\FreeRTOS10/stream_buffer.c **** 			mtCOVERAGE_TEST_MARKER();
 623:..\FreeRTOS10/stream_buffer.c **** 		}
 624:..\FreeRTOS10/stream_buffer.c **** 	}
 625:..\FreeRTOS10/stream_buffer.c **** 	else
 626:..\FreeRTOS10/stream_buffer.c **** 	{
 627:..\FreeRTOS10/stream_buffer.c **** 		mtCOVERAGE_TEST_MARKER();
 628:..\FreeRTOS10/stream_buffer.c **** 	}
 629:..\FreeRTOS10/stream_buffer.c **** 
 630:..\FreeRTOS10/stream_buffer.c **** 	traceSTREAM_BUFFER_SEND_FROM_ISR( xStreamBuffer, xReturn );
 631:..\FreeRTOS10/stream_buffer.c **** 
 632:..\FreeRTOS10/stream_buffer.c **** 	return xReturn;
 633:..\FreeRTOS10/stream_buffer.c **** }
 634:..\FreeRTOS10/stream_buffer.c **** /*-----------------------------------------------------------*/
 635:..\FreeRTOS10/stream_buffer.c **** 
 636:..\FreeRTOS10/stream_buffer.c **** static size_t prvWriteMessageToBuffer( StreamBuffer_t * const pxStreamBuffer,
 637:..\FreeRTOS10/stream_buffer.c **** 									   const void * pvTxData,
 638:..\FreeRTOS10/stream_buffer.c **** 									   size_t xDataLengthBytes,
 639:..\FreeRTOS10/stream_buffer.c **** 									   size_t xSpace,
 640:..\FreeRTOS10/stream_buffer.c **** 									   size_t xRequiredSpace )
 641:..\FreeRTOS10/stream_buffer.c **** {
 642:..\FreeRTOS10/stream_buffer.c **** 	BaseType_t xShouldWrite;
 643:..\FreeRTOS10/stream_buffer.c **** 	size_t xReturn;
 644:..\FreeRTOS10/stream_buffer.c **** 
 645:..\FreeRTOS10/stream_buffer.c **** 	if( xSpace == ( size_t ) 0 )
 646:..\FreeRTOS10/stream_buffer.c **** 	{
 647:..\FreeRTOS10/stream_buffer.c **** 		/* Doesn't matter if this is a stream buffer or a message buffer, there
 648:..\FreeRTOS10/stream_buffer.c **** 		is no space to write. */
 649:..\FreeRTOS10/stream_buffer.c **** 		xShouldWrite = pdFALSE;
 650:..\FreeRTOS10/stream_buffer.c **** 	}
 651:..\FreeRTOS10/stream_buffer.c **** 	else if( ( pxStreamBuffer->ucFlags & sbFLAGS_IS_MESSAGE_BUFFER ) == ( uint8_t ) 0 )
 652:..\FreeRTOS10/stream_buffer.c **** 	{
 653:..\FreeRTOS10/stream_buffer.c **** 		/* This is a stream buffer, as opposed to a message buffer, so writing a
 654:..\FreeRTOS10/stream_buffer.c **** 		stream of bytes rather than discrete messages.  Write as many bytes as
 655:..\FreeRTOS10/stream_buffer.c **** 		possible. */
 656:..\FreeRTOS10/stream_buffer.c **** 		xShouldWrite = pdTRUE;
 657:..\FreeRTOS10/stream_buffer.c **** 		xDataLengthBytes = configMIN( xDataLengthBytes, xSpace ); /*lint !e9044 Function parameter modifi
 658:..\FreeRTOS10/stream_buffer.c **** 	}
ARM GAS  C:\Users\Xwx47\AppData\Local\Temp\ccZsRkco.s 			page 13


 659:..\FreeRTOS10/stream_buffer.c **** 	else if( xSpace >= xRequiredSpace )
 660:..\FreeRTOS10/stream_buffer.c **** 	{
 661:..\FreeRTOS10/stream_buffer.c **** 		/* This is a message buffer, as opposed to a stream buffer, and there
 662:..\FreeRTOS10/stream_buffer.c **** 		is enough space to write both the message length and the message itself
 663:..\FreeRTOS10/stream_buffer.c **** 		into the buffer.  Start by writing the length of the data, the data
 664:..\FreeRTOS10/stream_buffer.c **** 		itself will be written later in this function. */
 665:..\FreeRTOS10/stream_buffer.c **** 		xShouldWrite = pdTRUE;
 666:..\FreeRTOS10/stream_buffer.c **** 		( void ) prvWriteBytesToBuffer( pxStreamBuffer, ( const uint8_t * ) &( xDataLengthBytes ), sbBYTE
 667:..\FreeRTOS10/stream_buffer.c **** 	}
 668:..\FreeRTOS10/stream_buffer.c **** 	else
 669:..\FreeRTOS10/stream_buffer.c **** 	{
 670:..\FreeRTOS10/stream_buffer.c **** 		/* There is space available, but not enough space. */
 671:..\FreeRTOS10/stream_buffer.c **** 		xShouldWrite = pdFALSE;
 672:..\FreeRTOS10/stream_buffer.c **** 	}
 673:..\FreeRTOS10/stream_buffer.c **** 
 674:..\FreeRTOS10/stream_buffer.c **** 	if( xShouldWrite != pdFALSE )
 675:..\FreeRTOS10/stream_buffer.c **** 	{
 676:..\FreeRTOS10/stream_buffer.c **** 		/* Writes the data itself. */
 677:..\FreeRTOS10/stream_buffer.c **** 		xReturn = prvWriteBytesToBuffer( pxStreamBuffer, ( const uint8_t * ) pvTxData, xDataLengthBytes )
 678:..\FreeRTOS10/stream_buffer.c **** 	}
 679:..\FreeRTOS10/stream_buffer.c **** 	else
 680:..\FreeRTOS10/stream_buffer.c **** 	{
 681:..\FreeRTOS10/stream_buffer.c **** 		xReturn = 0;
 682:..\FreeRTOS10/stream_buffer.c **** 	}
 683:..\FreeRTOS10/stream_buffer.c **** 
 684:..\FreeRTOS10/stream_buffer.c **** 	return xReturn;
 685:..\FreeRTOS10/stream_buffer.c **** }
 686:..\FreeRTOS10/stream_buffer.c **** /*-----------------------------------------------------------*/
 687:..\FreeRTOS10/stream_buffer.c **** 
 688:..\FreeRTOS10/stream_buffer.c **** size_t xStreamBufferReceive( StreamBufferHandle_t xStreamBuffer,
 689:..\FreeRTOS10/stream_buffer.c **** 							 void *pvRxData,
 690:..\FreeRTOS10/stream_buffer.c **** 							 size_t xBufferLengthBytes,
 691:..\FreeRTOS10/stream_buffer.c **** 							 TickType_t xTicksToWait )
 692:..\FreeRTOS10/stream_buffer.c **** {
 693:..\FreeRTOS10/stream_buffer.c **** StreamBuffer_t * const pxStreamBuffer = ( StreamBuffer_t * ) xStreamBuffer; /*lint !e9087 !e9079 Sa
 694:..\FreeRTOS10/stream_buffer.c **** size_t xReceivedLength = 0, xBytesAvailable, xBytesToStoreMessageLength;
 695:..\FreeRTOS10/stream_buffer.c **** 
 696:..\FreeRTOS10/stream_buffer.c **** 	configASSERT( pvRxData );
 697:..\FreeRTOS10/stream_buffer.c **** 	configASSERT( pxStreamBuffer );
 698:..\FreeRTOS10/stream_buffer.c **** 
 699:..\FreeRTOS10/stream_buffer.c **** 	/* This receive function is used by both message buffers, which store
 700:..\FreeRTOS10/stream_buffer.c **** 	discrete messages, and stream buffers, which store a continuous stream of
 701:..\FreeRTOS10/stream_buffer.c **** 	bytes.  Discrete messages include an additional
 702:..\FreeRTOS10/stream_buffer.c **** 	sbBYTES_TO_STORE_MESSAGE_LENGTH bytes that hold the length of the
 703:..\FreeRTOS10/stream_buffer.c **** 	message. */
 704:..\FreeRTOS10/stream_buffer.c **** 	if( ( pxStreamBuffer->ucFlags & sbFLAGS_IS_MESSAGE_BUFFER ) != ( uint8_t ) 0 )
 705:..\FreeRTOS10/stream_buffer.c **** 	{
 706:..\FreeRTOS10/stream_buffer.c **** 		xBytesToStoreMessageLength = sbBYTES_TO_STORE_MESSAGE_LENGTH;
 707:..\FreeRTOS10/stream_buffer.c **** 	}
 708:..\FreeRTOS10/stream_buffer.c **** 	else
 709:..\FreeRTOS10/stream_buffer.c **** 	{
 710:..\FreeRTOS10/stream_buffer.c **** 		xBytesToStoreMessageLength = 0;
 711:..\FreeRTOS10/stream_buffer.c **** 	}
 712:..\FreeRTOS10/stream_buffer.c **** 
 713:..\FreeRTOS10/stream_buffer.c **** 	if( xTicksToWait != ( TickType_t ) 0 )
 714:..\FreeRTOS10/stream_buffer.c **** 	{
 715:..\FreeRTOS10/stream_buffer.c **** 		/* Checking if there is data and clearing the notification state must be
ARM GAS  C:\Users\Xwx47\AppData\Local\Temp\ccZsRkco.s 			page 14


 716:..\FreeRTOS10/stream_buffer.c **** 		performed atomically. */
 717:..\FreeRTOS10/stream_buffer.c **** 		taskENTER_CRITICAL();
 718:..\FreeRTOS10/stream_buffer.c **** 		{
 719:..\FreeRTOS10/stream_buffer.c **** 			xBytesAvailable = prvBytesInBuffer( pxStreamBuffer );
 720:..\FreeRTOS10/stream_buffer.c **** 
 721:..\FreeRTOS10/stream_buffer.c **** 			/* If this function was invoked by a message buffer read then
 722:..\FreeRTOS10/stream_buffer.c **** 			xBytesToStoreMessageLength holds the number of bytes used to hold
 723:..\FreeRTOS10/stream_buffer.c **** 			the length of the next discrete message.  If this function was
 724:..\FreeRTOS10/stream_buffer.c **** 			invoked by a stream buffer read then xBytesToStoreMessageLength will
 725:..\FreeRTOS10/stream_buffer.c **** 			be 0. */
 726:..\FreeRTOS10/stream_buffer.c **** 			if( xBytesAvailable <= xBytesToStoreMessageLength )
 727:..\FreeRTOS10/stream_buffer.c **** 			{
 728:..\FreeRTOS10/stream_buffer.c **** 				/* Clear notification state as going to wait for data. */
 729:..\FreeRTOS10/stream_buffer.c **** 				( void ) xTaskNotifyStateClear( NULL );
 730:..\FreeRTOS10/stream_buffer.c **** 
 731:..\FreeRTOS10/stream_buffer.c **** 				/* Should only be one reader. */
 732:..\FreeRTOS10/stream_buffer.c **** 				configASSERT( pxStreamBuffer->xTaskWaitingToReceive == NULL );
 733:..\FreeRTOS10/stream_buffer.c **** 				pxStreamBuffer->xTaskWaitingToReceive = xTaskGetCurrentTaskHandle();
 734:..\FreeRTOS10/stream_buffer.c **** 			}
 735:..\FreeRTOS10/stream_buffer.c **** 			else
 736:..\FreeRTOS10/stream_buffer.c **** 			{
 737:..\FreeRTOS10/stream_buffer.c **** 				mtCOVERAGE_TEST_MARKER();
 738:..\FreeRTOS10/stream_buffer.c **** 			}
 739:..\FreeRTOS10/stream_buffer.c **** 		}
 740:..\FreeRTOS10/stream_buffer.c **** 		taskEXIT_CRITICAL();
 741:..\FreeRTOS10/stream_buffer.c **** 
 742:..\FreeRTOS10/stream_buffer.c **** 		if( xBytesAvailable <= xBytesToStoreMessageLength )
 743:..\FreeRTOS10/stream_buffer.c **** 		{
 744:..\FreeRTOS10/stream_buffer.c **** 			/* Wait for data to be available. */
 745:..\FreeRTOS10/stream_buffer.c **** 			traceBLOCKING_ON_STREAM_BUFFER_RECEIVE( xStreamBuffer );
 746:..\FreeRTOS10/stream_buffer.c **** 			( void ) xTaskNotifyWait( ( uint32_t ) 0, UINT32_MAX, NULL, xTicksToWait );
 747:..\FreeRTOS10/stream_buffer.c **** 			pxStreamBuffer->xTaskWaitingToReceive = NULL;
 748:..\FreeRTOS10/stream_buffer.c **** 
 749:..\FreeRTOS10/stream_buffer.c **** 			/* Recheck the data available after blocking. */
 750:..\FreeRTOS10/stream_buffer.c **** 			xBytesAvailable = prvBytesInBuffer( pxStreamBuffer );
 751:..\FreeRTOS10/stream_buffer.c **** 		}
 752:..\FreeRTOS10/stream_buffer.c **** 		else
 753:..\FreeRTOS10/stream_buffer.c **** 		{
 754:..\FreeRTOS10/stream_buffer.c **** 			mtCOVERAGE_TEST_MARKER();
 755:..\FreeRTOS10/stream_buffer.c **** 		}
 756:..\FreeRTOS10/stream_buffer.c **** 	}
 757:..\FreeRTOS10/stream_buffer.c **** 	else
 758:..\FreeRTOS10/stream_buffer.c **** 	{
 759:..\FreeRTOS10/stream_buffer.c **** 		xBytesAvailable = prvBytesInBuffer( pxStreamBuffer );
 760:..\FreeRTOS10/stream_buffer.c **** 	}
 761:..\FreeRTOS10/stream_buffer.c **** 
 762:..\FreeRTOS10/stream_buffer.c **** 	/* Whether receiving a discrete message (where xBytesToStoreMessageLength
 763:..\FreeRTOS10/stream_buffer.c **** 	holds the number of bytes used to store the message length) or a stream of
 764:..\FreeRTOS10/stream_buffer.c **** 	bytes (where xBytesToStoreMessageLength is zero), the number of bytes
 765:..\FreeRTOS10/stream_buffer.c **** 	available must be greater than xBytesToStoreMessageLength to be able to
 766:..\FreeRTOS10/stream_buffer.c **** 	read bytes from the buffer. */
 767:..\FreeRTOS10/stream_buffer.c **** 	if( xBytesAvailable > xBytesToStoreMessageLength )
 768:..\FreeRTOS10/stream_buffer.c **** 	{
 769:..\FreeRTOS10/stream_buffer.c **** 		xReceivedLength = prvReadMessageFromBuffer( pxStreamBuffer, pvRxData, xBufferLengthBytes, xBytesA
 770:..\FreeRTOS10/stream_buffer.c **** 
 771:..\FreeRTOS10/stream_buffer.c **** 		/* Was a task waiting for space in the buffer? */
 772:..\FreeRTOS10/stream_buffer.c **** 		if( xReceivedLength != ( size_t ) 0 )
ARM GAS  C:\Users\Xwx47\AppData\Local\Temp\ccZsRkco.s 			page 15


 773:..\FreeRTOS10/stream_buffer.c **** 		{
 774:..\FreeRTOS10/stream_buffer.c **** 			traceSTREAM_BUFFER_RECEIVE( xStreamBuffer, xReceivedLength );
 775:..\FreeRTOS10/stream_buffer.c **** 			sbRECEIVE_COMPLETED( pxStreamBuffer );
 776:..\FreeRTOS10/stream_buffer.c **** 		}
 777:..\FreeRTOS10/stream_buffer.c **** 		else
 778:..\FreeRTOS10/stream_buffer.c **** 		{
 779:..\FreeRTOS10/stream_buffer.c **** 			mtCOVERAGE_TEST_MARKER();
 780:..\FreeRTOS10/stream_buffer.c **** 		}
 781:..\FreeRTOS10/stream_buffer.c **** 	}
 782:..\FreeRTOS10/stream_buffer.c **** 	else
 783:..\FreeRTOS10/stream_buffer.c **** 	{
 784:..\FreeRTOS10/stream_buffer.c **** 		traceSTREAM_BUFFER_RECEIVE_FAILED( xStreamBuffer );
 785:..\FreeRTOS10/stream_buffer.c **** 		mtCOVERAGE_TEST_MARKER();
 786:..\FreeRTOS10/stream_buffer.c **** 	}
 787:..\FreeRTOS10/stream_buffer.c **** 
 788:..\FreeRTOS10/stream_buffer.c **** 	return xReceivedLength;
 789:..\FreeRTOS10/stream_buffer.c **** }
 790:..\FreeRTOS10/stream_buffer.c **** /*-----------------------------------------------------------*/
 791:..\FreeRTOS10/stream_buffer.c **** 
 792:..\FreeRTOS10/stream_buffer.c **** size_t xStreamBufferReceiveFromISR( StreamBufferHandle_t xStreamBuffer,
 793:..\FreeRTOS10/stream_buffer.c **** 									void *pvRxData,
 794:..\FreeRTOS10/stream_buffer.c **** 									size_t xBufferLengthBytes,
 795:..\FreeRTOS10/stream_buffer.c **** 									BaseType_t * const pxHigherPriorityTaskWoken )
 796:..\FreeRTOS10/stream_buffer.c **** {
 797:..\FreeRTOS10/stream_buffer.c **** StreamBuffer_t * const pxStreamBuffer = ( StreamBuffer_t * ) xStreamBuffer; /*lint !e9087 !e9079 Sa
 798:..\FreeRTOS10/stream_buffer.c **** size_t xReceivedLength = 0, xBytesAvailable, xBytesToStoreMessageLength;
 799:..\FreeRTOS10/stream_buffer.c **** 
 800:..\FreeRTOS10/stream_buffer.c **** 	configASSERT( pvRxData );
 801:..\FreeRTOS10/stream_buffer.c **** 	configASSERT( pxStreamBuffer );
 802:..\FreeRTOS10/stream_buffer.c **** 
 803:..\FreeRTOS10/stream_buffer.c **** 	/* This receive function is used by both message buffers, which store
 804:..\FreeRTOS10/stream_buffer.c **** 	discrete messages, and stream buffers, which store a continuous stream of
 805:..\FreeRTOS10/stream_buffer.c **** 	bytes.  Discrete messages include an additional
 806:..\FreeRTOS10/stream_buffer.c **** 	sbBYTES_TO_STORE_MESSAGE_LENGTH bytes that hold the length of the
 807:..\FreeRTOS10/stream_buffer.c **** 	message. */
 808:..\FreeRTOS10/stream_buffer.c **** 	if( ( pxStreamBuffer->ucFlags & sbFLAGS_IS_MESSAGE_BUFFER ) != ( uint8_t ) 0 )
 809:..\FreeRTOS10/stream_buffer.c **** 	{
 810:..\FreeRTOS10/stream_buffer.c **** 		xBytesToStoreMessageLength = sbBYTES_TO_STORE_MESSAGE_LENGTH;
 811:..\FreeRTOS10/stream_buffer.c **** 	}
 812:..\FreeRTOS10/stream_buffer.c **** 	else
 813:..\FreeRTOS10/stream_buffer.c **** 	{
 814:..\FreeRTOS10/stream_buffer.c **** 		xBytesToStoreMessageLength = 0;
 815:..\FreeRTOS10/stream_buffer.c **** 	}
 816:..\FreeRTOS10/stream_buffer.c **** 
 817:..\FreeRTOS10/stream_buffer.c **** 	xBytesAvailable = prvBytesInBuffer( pxStreamBuffer );
 818:..\FreeRTOS10/stream_buffer.c **** 
 819:..\FreeRTOS10/stream_buffer.c **** 	/* Whether receiving a discrete message (where xBytesToStoreMessageLength
 820:..\FreeRTOS10/stream_buffer.c **** 	holds the number of bytes used to store the message length) or a stream of
 821:..\FreeRTOS10/stream_buffer.c **** 	bytes (where xBytesToStoreMessageLength is zero), the number of bytes
 822:..\FreeRTOS10/stream_buffer.c **** 	available must be greater than xBytesToStoreMessageLength to be able to
 823:..\FreeRTOS10/stream_buffer.c **** 	read bytes from the buffer. */
 824:..\FreeRTOS10/stream_buffer.c **** 	if( xBytesAvailable > xBytesToStoreMessageLength )
 825:..\FreeRTOS10/stream_buffer.c **** 	{
 826:..\FreeRTOS10/stream_buffer.c **** 		xReceivedLength = prvReadMessageFromBuffer( pxStreamBuffer, pvRxData, xBufferLengthBytes, xBytesA
 827:..\FreeRTOS10/stream_buffer.c **** 
 828:..\FreeRTOS10/stream_buffer.c **** 		/* Was a task waiting for space in the buffer? */
 829:..\FreeRTOS10/stream_buffer.c **** 		if( xReceivedLength != ( size_t ) 0 )
ARM GAS  C:\Users\Xwx47\AppData\Local\Temp\ccZsRkco.s 			page 16


 830:..\FreeRTOS10/stream_buffer.c **** 		{
 831:..\FreeRTOS10/stream_buffer.c **** 			sbRECEIVE_COMPLETED_FROM_ISR( pxStreamBuffer, pxHigherPriorityTaskWoken );
 832:..\FreeRTOS10/stream_buffer.c **** 		}
 833:..\FreeRTOS10/stream_buffer.c **** 		else
 834:..\FreeRTOS10/stream_buffer.c **** 		{
 835:..\FreeRTOS10/stream_buffer.c **** 			mtCOVERAGE_TEST_MARKER();
 836:..\FreeRTOS10/stream_buffer.c **** 		}
 837:..\FreeRTOS10/stream_buffer.c **** 	}
 838:..\FreeRTOS10/stream_buffer.c **** 	else
 839:..\FreeRTOS10/stream_buffer.c **** 	{
 840:..\FreeRTOS10/stream_buffer.c **** 		mtCOVERAGE_TEST_MARKER();
 841:..\FreeRTOS10/stream_buffer.c **** 	}
 842:..\FreeRTOS10/stream_buffer.c **** 
 843:..\FreeRTOS10/stream_buffer.c **** 	traceSTREAM_BUFFER_RECEIVE_FROM_ISR( xStreamBuffer, xReceivedLength );
 844:..\FreeRTOS10/stream_buffer.c **** 
 845:..\FreeRTOS10/stream_buffer.c **** 	return xReceivedLength;
 846:..\FreeRTOS10/stream_buffer.c **** }
 847:..\FreeRTOS10/stream_buffer.c **** /*-----------------------------------------------------------*/
 848:..\FreeRTOS10/stream_buffer.c **** 
 849:..\FreeRTOS10/stream_buffer.c **** static size_t prvReadMessageFromBuffer( StreamBuffer_t *pxStreamBuffer,
 850:..\FreeRTOS10/stream_buffer.c **** 										void *pvRxData,
 851:..\FreeRTOS10/stream_buffer.c **** 										size_t xBufferLengthBytes,
 852:..\FreeRTOS10/stream_buffer.c **** 										size_t xBytesAvailable,
 853:..\FreeRTOS10/stream_buffer.c **** 										size_t xBytesToStoreMessageLength )
 854:..\FreeRTOS10/stream_buffer.c **** {
 855:..\FreeRTOS10/stream_buffer.c **** size_t xOriginalTail, xReceivedLength, xNextMessageLength;
 856:..\FreeRTOS10/stream_buffer.c **** 
 857:..\FreeRTOS10/stream_buffer.c **** 	if( xBytesToStoreMessageLength != ( size_t ) 0 )
 858:..\FreeRTOS10/stream_buffer.c **** 	{
 859:..\FreeRTOS10/stream_buffer.c **** 		/* A discrete message is being received.  First receive the length
 860:..\FreeRTOS10/stream_buffer.c **** 		of the message.  A copy of the tail is stored so the buffer can be
 861:..\FreeRTOS10/stream_buffer.c **** 		returned to its prior state if the length of the message is too
 862:..\FreeRTOS10/stream_buffer.c **** 		large for the provided buffer. */
 863:..\FreeRTOS10/stream_buffer.c **** 		xOriginalTail = pxStreamBuffer->xTail;
 864:..\FreeRTOS10/stream_buffer.c **** 		( void ) prvReadBytesFromBuffer( pxStreamBuffer, ( uint8_t * ) &xNextMessageLength, xBytesToStore
 865:..\FreeRTOS10/stream_buffer.c **** 
 866:..\FreeRTOS10/stream_buffer.c **** 		/* Reduce the number of bytes available by the number of bytes just
 867:..\FreeRTOS10/stream_buffer.c **** 		read out. */
 868:..\FreeRTOS10/stream_buffer.c **** 		xBytesAvailable -= xBytesToStoreMessageLength;
 869:..\FreeRTOS10/stream_buffer.c **** 
 870:..\FreeRTOS10/stream_buffer.c **** 		/* Check there is enough space in the buffer provided by the
 871:..\FreeRTOS10/stream_buffer.c **** 		user. */
 872:..\FreeRTOS10/stream_buffer.c **** 		if( xNextMessageLength > xBufferLengthBytes )
 873:..\FreeRTOS10/stream_buffer.c **** 		{
 874:..\FreeRTOS10/stream_buffer.c **** 			/* The user has provided insufficient space to read the message
 875:..\FreeRTOS10/stream_buffer.c **** 			so return the buffer to its previous state (so the length of
 876:..\FreeRTOS10/stream_buffer.c **** 			the message is in the buffer again). */
 877:..\FreeRTOS10/stream_buffer.c **** 			pxStreamBuffer->xTail = xOriginalTail;
 878:..\FreeRTOS10/stream_buffer.c **** 			xNextMessageLength = 0;
 879:..\FreeRTOS10/stream_buffer.c **** 		}
 880:..\FreeRTOS10/stream_buffer.c **** 		else
 881:..\FreeRTOS10/stream_buffer.c **** 		{
 882:..\FreeRTOS10/stream_buffer.c **** 			mtCOVERAGE_TEST_MARKER();
 883:..\FreeRTOS10/stream_buffer.c **** 		}
 884:..\FreeRTOS10/stream_buffer.c **** 	}
 885:..\FreeRTOS10/stream_buffer.c **** 	else
 886:..\FreeRTOS10/stream_buffer.c **** 	{
ARM GAS  C:\Users\Xwx47\AppData\Local\Temp\ccZsRkco.s 			page 17


 887:..\FreeRTOS10/stream_buffer.c **** 		/* A stream of bytes is being received (as opposed to a discrete
 888:..\FreeRTOS10/stream_buffer.c **** 		message), so read as many bytes as possible. */
 889:..\FreeRTOS10/stream_buffer.c **** 		xNextMessageLength = xBufferLengthBytes;
 890:..\FreeRTOS10/stream_buffer.c **** 	}
 891:..\FreeRTOS10/stream_buffer.c **** 
 892:..\FreeRTOS10/stream_buffer.c **** 	/* Read the actual data. */
 893:..\FreeRTOS10/stream_buffer.c **** 	xReceivedLength = prvReadBytesFromBuffer( pxStreamBuffer, ( uint8_t * ) pvRxData, xNextMessageLeng
 894:..\FreeRTOS10/stream_buffer.c **** 
 895:..\FreeRTOS10/stream_buffer.c **** 	return xReceivedLength;
 896:..\FreeRTOS10/stream_buffer.c **** }
 897:..\FreeRTOS10/stream_buffer.c **** /*-----------------------------------------------------------*/
 898:..\FreeRTOS10/stream_buffer.c **** 
 899:..\FreeRTOS10/stream_buffer.c **** BaseType_t xStreamBufferIsEmpty( StreamBufferHandle_t xStreamBuffer )
 900:..\FreeRTOS10/stream_buffer.c **** {
 901:..\FreeRTOS10/stream_buffer.c **** const StreamBuffer_t * const pxStreamBuffer = ( StreamBuffer_t * ) xStreamBuffer; /*lint !e9087 !e9
 902:..\FreeRTOS10/stream_buffer.c **** BaseType_t xReturn;
 903:..\FreeRTOS10/stream_buffer.c **** size_t xTail;
 904:..\FreeRTOS10/stream_buffer.c **** 
 905:..\FreeRTOS10/stream_buffer.c **** 	configASSERT( pxStreamBuffer );
 906:..\FreeRTOS10/stream_buffer.c **** 
 907:..\FreeRTOS10/stream_buffer.c **** 	/* True if no bytes are available. */
 908:..\FreeRTOS10/stream_buffer.c **** 	xTail = pxStreamBuffer->xTail;
 909:..\FreeRTOS10/stream_buffer.c **** 	if( pxStreamBuffer->xHead == xTail )
 910:..\FreeRTOS10/stream_buffer.c **** 	{
 911:..\FreeRTOS10/stream_buffer.c **** 		xReturn = pdTRUE;
 912:..\FreeRTOS10/stream_buffer.c **** 	}
 913:..\FreeRTOS10/stream_buffer.c **** 	else
 914:..\FreeRTOS10/stream_buffer.c **** 	{
 915:..\FreeRTOS10/stream_buffer.c **** 		xReturn = pdFALSE;
 916:..\FreeRTOS10/stream_buffer.c **** 	}
 917:..\FreeRTOS10/stream_buffer.c **** 
 918:..\FreeRTOS10/stream_buffer.c **** 	return xReturn;
 919:..\FreeRTOS10/stream_buffer.c **** }
 920:..\FreeRTOS10/stream_buffer.c **** /*-----------------------------------------------------------*/
 921:..\FreeRTOS10/stream_buffer.c **** 
 922:..\FreeRTOS10/stream_buffer.c **** BaseType_t xStreamBufferIsFull( StreamBufferHandle_t xStreamBuffer )
 923:..\FreeRTOS10/stream_buffer.c **** {
 924:..\FreeRTOS10/stream_buffer.c **** BaseType_t xReturn;
 925:..\FreeRTOS10/stream_buffer.c **** size_t xBytesToStoreMessageLength;
 926:..\FreeRTOS10/stream_buffer.c **** const StreamBuffer_t * const pxStreamBuffer = ( StreamBuffer_t * ) xStreamBuffer; /*lint !e9087 !e9
 927:..\FreeRTOS10/stream_buffer.c **** 
 928:..\FreeRTOS10/stream_buffer.c **** 	configASSERT( pxStreamBuffer );
 929:..\FreeRTOS10/stream_buffer.c **** 
 930:..\FreeRTOS10/stream_buffer.c **** 	/* This generic version of the receive function is used by both message
 931:..\FreeRTOS10/stream_buffer.c **** 	buffers, which store discrete messages, and stream buffers, which store a
 932:..\FreeRTOS10/stream_buffer.c **** 	continuous stream of bytes.  Discrete messages include an additional
 933:..\FreeRTOS10/stream_buffer.c **** 	sbBYTES_TO_STORE_MESSAGE_LENGTH bytes that hold the length of the message. */
 934:..\FreeRTOS10/stream_buffer.c **** 	if( ( pxStreamBuffer->ucFlags & sbFLAGS_IS_MESSAGE_BUFFER ) != ( uint8_t ) 0 )
 935:..\FreeRTOS10/stream_buffer.c **** 	{
 936:..\FreeRTOS10/stream_buffer.c **** 		xBytesToStoreMessageLength = sbBYTES_TO_STORE_MESSAGE_LENGTH;
 937:..\FreeRTOS10/stream_buffer.c **** 	}
 938:..\FreeRTOS10/stream_buffer.c **** 	else
 939:..\FreeRTOS10/stream_buffer.c **** 	{
 940:..\FreeRTOS10/stream_buffer.c **** 		xBytesToStoreMessageLength = 0;
 941:..\FreeRTOS10/stream_buffer.c **** 	}
 942:..\FreeRTOS10/stream_buffer.c **** 
 943:..\FreeRTOS10/stream_buffer.c **** 	/* True if the available space equals zero. */
ARM GAS  C:\Users\Xwx47\AppData\Local\Temp\ccZsRkco.s 			page 18


 944:..\FreeRTOS10/stream_buffer.c **** 	if( xStreamBufferSpacesAvailable( xStreamBuffer ) <= xBytesToStoreMessageLength )
 945:..\FreeRTOS10/stream_buffer.c **** 	{
 946:..\FreeRTOS10/stream_buffer.c **** 		xReturn = pdTRUE;
 947:..\FreeRTOS10/stream_buffer.c **** 	}
 948:..\FreeRTOS10/stream_buffer.c **** 	else
 949:..\FreeRTOS10/stream_buffer.c **** 	{
 950:..\FreeRTOS10/stream_buffer.c **** 		xReturn = pdFALSE;
 951:..\FreeRTOS10/stream_buffer.c **** 	}
 952:..\FreeRTOS10/stream_buffer.c **** 
 953:..\FreeRTOS10/stream_buffer.c **** 	return xReturn;
 954:..\FreeRTOS10/stream_buffer.c **** }
 955:..\FreeRTOS10/stream_buffer.c **** /*-----------------------------------------------------------*/
 956:..\FreeRTOS10/stream_buffer.c **** 
 957:..\FreeRTOS10/stream_buffer.c **** BaseType_t xStreamBufferSendCompletedFromISR( StreamBufferHandle_t xStreamBuffer, BaseType_t *pxHig
 958:..\FreeRTOS10/stream_buffer.c **** {
 959:..\FreeRTOS10/stream_buffer.c **** StreamBuffer_t * const pxStreamBuffer = ( StreamBuffer_t * ) xStreamBuffer; /*lint !e9087 !e9079 Sa
 960:..\FreeRTOS10/stream_buffer.c **** BaseType_t xReturn;
 961:..\FreeRTOS10/stream_buffer.c **** UBaseType_t uxSavedInterruptStatus;
 962:..\FreeRTOS10/stream_buffer.c **** 
 963:..\FreeRTOS10/stream_buffer.c **** 	configASSERT( pxStreamBuffer );
 964:..\FreeRTOS10/stream_buffer.c **** 
 965:..\FreeRTOS10/stream_buffer.c **** 	uxSavedInterruptStatus = ( UBaseType_t ) portSET_INTERRUPT_MASK_FROM_ISR();
 966:..\FreeRTOS10/stream_buffer.c **** 	{
 967:..\FreeRTOS10/stream_buffer.c **** 		if( ( pxStreamBuffer )->xTaskWaitingToReceive != NULL )
 968:..\FreeRTOS10/stream_buffer.c **** 		{
 969:..\FreeRTOS10/stream_buffer.c **** 			( void ) xTaskNotifyFromISR( ( pxStreamBuffer )->xTaskWaitingToReceive,
 970:..\FreeRTOS10/stream_buffer.c **** 										 ( uint32_t ) 0,
 971:..\FreeRTOS10/stream_buffer.c **** 										 eNoAction,
 972:..\FreeRTOS10/stream_buffer.c **** 										 pxHigherPriorityTaskWoken );
 973:..\FreeRTOS10/stream_buffer.c **** 			( pxStreamBuffer )->xTaskWaitingToReceive = NULL;
 974:..\FreeRTOS10/stream_buffer.c **** 			xReturn = pdTRUE;
 975:..\FreeRTOS10/stream_buffer.c **** 		}
 976:..\FreeRTOS10/stream_buffer.c **** 		else
 977:..\FreeRTOS10/stream_buffer.c **** 		{
 978:..\FreeRTOS10/stream_buffer.c **** 			xReturn = pdFALSE;
 979:..\FreeRTOS10/stream_buffer.c **** 		}
 980:..\FreeRTOS10/stream_buffer.c **** 	}
 981:..\FreeRTOS10/stream_buffer.c **** 	portCLEAR_INTERRUPT_MASK_FROM_ISR( uxSavedInterruptStatus );
 982:..\FreeRTOS10/stream_buffer.c **** 
 983:..\FreeRTOS10/stream_buffer.c **** 	return xReturn;
 984:..\FreeRTOS10/stream_buffer.c **** }
 985:..\FreeRTOS10/stream_buffer.c **** /*-----------------------------------------------------------*/
 986:..\FreeRTOS10/stream_buffer.c **** 
 987:..\FreeRTOS10/stream_buffer.c **** BaseType_t xStreamBufferReceiveCompletedFromISR( StreamBufferHandle_t xStreamBuffer, BaseType_t *px
 988:..\FreeRTOS10/stream_buffer.c **** {
 989:..\FreeRTOS10/stream_buffer.c **** StreamBuffer_t * const pxStreamBuffer = ( StreamBuffer_t * ) xStreamBuffer; /*lint !e9087 !e9079 Sa
 990:..\FreeRTOS10/stream_buffer.c **** BaseType_t xReturn;
 991:..\FreeRTOS10/stream_buffer.c **** UBaseType_t uxSavedInterruptStatus;
 992:..\FreeRTOS10/stream_buffer.c **** 
 993:..\FreeRTOS10/stream_buffer.c **** 	configASSERT( pxStreamBuffer );
 994:..\FreeRTOS10/stream_buffer.c **** 
 995:..\FreeRTOS10/stream_buffer.c **** 	uxSavedInterruptStatus = ( UBaseType_t ) portSET_INTERRUPT_MASK_FROM_ISR();
 996:..\FreeRTOS10/stream_buffer.c **** 	{
 997:..\FreeRTOS10/stream_buffer.c **** 		if( ( pxStreamBuffer )->xTaskWaitingToSend != NULL )
 998:..\FreeRTOS10/stream_buffer.c **** 		{
 999:..\FreeRTOS10/stream_buffer.c **** 			( void ) xTaskNotifyFromISR( ( pxStreamBuffer )->xTaskWaitingToSend,
1000:..\FreeRTOS10/stream_buffer.c **** 										 ( uint32_t ) 0,
ARM GAS  C:\Users\Xwx47\AppData\Local\Temp\ccZsRkco.s 			page 19


1001:..\FreeRTOS10/stream_buffer.c **** 										 eNoAction,
1002:..\FreeRTOS10/stream_buffer.c **** 										 pxHigherPriorityTaskWoken );
1003:..\FreeRTOS10/stream_buffer.c **** 			( pxStreamBuffer )->xTaskWaitingToSend = NULL;
1004:..\FreeRTOS10/stream_buffer.c **** 			xReturn = pdTRUE;
1005:..\FreeRTOS10/stream_buffer.c **** 		}
1006:..\FreeRTOS10/stream_buffer.c **** 		else
1007:..\FreeRTOS10/stream_buffer.c **** 		{
1008:..\FreeRTOS10/stream_buffer.c **** 			xReturn = pdFALSE;
1009:..\FreeRTOS10/stream_buffer.c **** 		}
1010:..\FreeRTOS10/stream_buffer.c **** 	}
1011:..\FreeRTOS10/stream_buffer.c **** 	portCLEAR_INTERRUPT_MASK_FROM_ISR( uxSavedInterruptStatus );
1012:..\FreeRTOS10/stream_buffer.c **** 
1013:..\FreeRTOS10/stream_buffer.c **** 	return xReturn;
1014:..\FreeRTOS10/stream_buffer.c **** }
1015:..\FreeRTOS10/stream_buffer.c **** /*-----------------------------------------------------------*/
1016:..\FreeRTOS10/stream_buffer.c **** 
1017:..\FreeRTOS10/stream_buffer.c **** static size_t prvWriteBytesToBuffer( StreamBuffer_t * const pxStreamBuffer, const uint8_t *pucData,
1018:..\FreeRTOS10/stream_buffer.c **** {
1019:..\FreeRTOS10/stream_buffer.c **** size_t xNextHead, xFirstLength;
1020:..\FreeRTOS10/stream_buffer.c **** 
1021:..\FreeRTOS10/stream_buffer.c **** 	configASSERT( xCount > ( size_t ) 0 );
1022:..\FreeRTOS10/stream_buffer.c **** 
1023:..\FreeRTOS10/stream_buffer.c **** 	xNextHead = pxStreamBuffer->xHead;
1024:..\FreeRTOS10/stream_buffer.c **** 
1025:..\FreeRTOS10/stream_buffer.c **** 	/* Calculate the number of bytes that can be added in the first write -
1026:..\FreeRTOS10/stream_buffer.c **** 	which may be less than the total number of bytes that need to be added if
1027:..\FreeRTOS10/stream_buffer.c **** 	the buffer will wrap back to the beginning. */
1028:..\FreeRTOS10/stream_buffer.c **** 	xFirstLength = configMIN( pxStreamBuffer->xLength - xNextHead, xCount );
1029:..\FreeRTOS10/stream_buffer.c **** 
1030:..\FreeRTOS10/stream_buffer.c **** 	/* Write as many bytes as can be written in the first write. */
1031:..\FreeRTOS10/stream_buffer.c **** 	configASSERT( ( xNextHead + xFirstLength ) <= pxStreamBuffer->xLength );
1032:..\FreeRTOS10/stream_buffer.c **** 	memcpy( ( void* ) ( &( pxStreamBuffer->pucBuffer[ xNextHead ] ) ), ( const void * ) pucData, xFirs
1033:..\FreeRTOS10/stream_buffer.c **** 
1034:..\FreeRTOS10/stream_buffer.c **** 	/* If the number of bytes written was less than the number that could be
1035:..\FreeRTOS10/stream_buffer.c **** 	written in the first write... */
1036:..\FreeRTOS10/stream_buffer.c **** 	if( xCount > xFirstLength )
1037:..\FreeRTOS10/stream_buffer.c **** 	{
1038:..\FreeRTOS10/stream_buffer.c **** 		/* ...then write the remaining bytes to the start of the buffer. */
1039:..\FreeRTOS10/stream_buffer.c **** 		configASSERT( ( xCount - xFirstLength ) <= pxStreamBuffer->xLength );
1040:..\FreeRTOS10/stream_buffer.c **** 		memcpy( ( void * ) pxStreamBuffer->pucBuffer, ( const void * ) &( pucData[ xFirstLength ] ), xCou
1041:..\FreeRTOS10/stream_buffer.c **** 	}
1042:..\FreeRTOS10/stream_buffer.c **** 	else
1043:..\FreeRTOS10/stream_buffer.c **** 	{
1044:..\FreeRTOS10/stream_buffer.c **** 		mtCOVERAGE_TEST_MARKER();
1045:..\FreeRTOS10/stream_buffer.c **** 	}
1046:..\FreeRTOS10/stream_buffer.c **** 
1047:..\FreeRTOS10/stream_buffer.c **** 	xNextHead += xCount;
1048:..\FreeRTOS10/stream_buffer.c **** 	if( xNextHead >= pxStreamBuffer->xLength )
1049:..\FreeRTOS10/stream_buffer.c **** 	{
1050:..\FreeRTOS10/stream_buffer.c **** 		xNextHead -= pxStreamBuffer->xLength;
1051:..\FreeRTOS10/stream_buffer.c **** 	}
1052:..\FreeRTOS10/stream_buffer.c **** 	else
1053:..\FreeRTOS10/stream_buffer.c **** 	{
1054:..\FreeRTOS10/stream_buffer.c **** 		mtCOVERAGE_TEST_MARKER();
1055:..\FreeRTOS10/stream_buffer.c **** 	}
1056:..\FreeRTOS10/stream_buffer.c **** 
1057:..\FreeRTOS10/stream_buffer.c **** 	pxStreamBuffer->xHead = xNextHead;
ARM GAS  C:\Users\Xwx47\AppData\Local\Temp\ccZsRkco.s 			page 20


1058:..\FreeRTOS10/stream_buffer.c **** 
1059:..\FreeRTOS10/stream_buffer.c **** 	return xCount;
1060:..\FreeRTOS10/stream_buffer.c **** }
1061:..\FreeRTOS10/stream_buffer.c **** /*-----------------------------------------------------------*/
1062:..\FreeRTOS10/stream_buffer.c **** 
1063:..\FreeRTOS10/stream_buffer.c **** static size_t prvReadBytesFromBuffer( StreamBuffer_t *pxStreamBuffer, uint8_t *pucData, size_t xMax
1064:..\FreeRTOS10/stream_buffer.c **** {
1065:..\FreeRTOS10/stream_buffer.c **** size_t xCount, xFirstLength, xNextTail;
1066:..\FreeRTOS10/stream_buffer.c **** 
1067:..\FreeRTOS10/stream_buffer.c **** 	/* Use the minimum of the wanted bytes and the available bytes. */
1068:..\FreeRTOS10/stream_buffer.c **** 	xCount = configMIN( xBytesAvailable, xMaxCount );
1069:..\FreeRTOS10/stream_buffer.c **** 
1070:..\FreeRTOS10/stream_buffer.c **** 	if( xCount > ( size_t ) 0 )
1071:..\FreeRTOS10/stream_buffer.c **** 	{
1072:..\FreeRTOS10/stream_buffer.c **** 		xNextTail = pxStreamBuffer->xTail;
1073:..\FreeRTOS10/stream_buffer.c **** 
1074:..\FreeRTOS10/stream_buffer.c **** 		/* Calculate the number of bytes that can be read - which may be
1075:..\FreeRTOS10/stream_buffer.c **** 		less than the number wanted if the data wraps around to the start of
1076:..\FreeRTOS10/stream_buffer.c **** 		the buffer. */
1077:..\FreeRTOS10/stream_buffer.c **** 		xFirstLength = configMIN( pxStreamBuffer->xLength - xNextTail, xCount );
1078:..\FreeRTOS10/stream_buffer.c **** 
1079:..\FreeRTOS10/stream_buffer.c **** 		/* Obtain the number of bytes it is possible to obtain in the first
1080:..\FreeRTOS10/stream_buffer.c **** 		read.  Asserts check bounds of read and write. */
1081:..\FreeRTOS10/stream_buffer.c **** 		configASSERT( xFirstLength <= xMaxCount );
1082:..\FreeRTOS10/stream_buffer.c **** 		configASSERT( ( xNextTail + xFirstLength ) <= pxStreamBuffer->xLength );
1083:..\FreeRTOS10/stream_buffer.c **** 		memcpy( ( void * ) pucData, ( const void * ) &( pxStreamBuffer->pucBuffer[ xNextTail ] ), xFirstL
1084:..\FreeRTOS10/stream_buffer.c **** 
1085:..\FreeRTOS10/stream_buffer.c **** 		/* If the total number of wanted bytes is greater than the number
1086:..\FreeRTOS10/stream_buffer.c **** 		that could be read in the first read... */
1087:..\FreeRTOS10/stream_buffer.c **** 		if( xCount > xFirstLength )
1088:..\FreeRTOS10/stream_buffer.c **** 		{
1089:..\FreeRTOS10/stream_buffer.c **** 			/*...then read the remaining bytes from the start of the buffer. */
1090:..\FreeRTOS10/stream_buffer.c **** 			configASSERT( xCount <= xMaxCount );
1091:..\FreeRTOS10/stream_buffer.c **** 			memcpy( ( void * ) &( pucData[ xFirstLength ] ), ( void * ) ( pxStreamBuffer->pucBuffer ), xCoun
1092:..\FreeRTOS10/stream_buffer.c **** 		}
1093:..\FreeRTOS10/stream_buffer.c **** 		else
1094:..\FreeRTOS10/stream_buffer.c **** 		{
1095:..\FreeRTOS10/stream_buffer.c **** 			mtCOVERAGE_TEST_MARKER();
1096:..\FreeRTOS10/stream_buffer.c **** 		}
1097:..\FreeRTOS10/stream_buffer.c **** 
1098:..\FreeRTOS10/stream_buffer.c **** 		/* Move the tail pointer to effectively remove the data read from
1099:..\FreeRTOS10/stream_buffer.c **** 		the buffer. */
1100:..\FreeRTOS10/stream_buffer.c **** 		xNextTail += xCount;
1101:..\FreeRTOS10/stream_buffer.c **** 
1102:..\FreeRTOS10/stream_buffer.c **** 		if( xNextTail >= pxStreamBuffer->xLength )
1103:..\FreeRTOS10/stream_buffer.c **** 		{
1104:..\FreeRTOS10/stream_buffer.c **** 			xNextTail -= pxStreamBuffer->xLength;
1105:..\FreeRTOS10/stream_buffer.c **** 		}
1106:..\FreeRTOS10/stream_buffer.c **** 
1107:..\FreeRTOS10/stream_buffer.c **** 		pxStreamBuffer->xTail = xNextTail;
1108:..\FreeRTOS10/stream_buffer.c **** 	}
1109:..\FreeRTOS10/stream_buffer.c **** 	else
1110:..\FreeRTOS10/stream_buffer.c **** 	{
1111:..\FreeRTOS10/stream_buffer.c **** 		mtCOVERAGE_TEST_MARKER();
1112:..\FreeRTOS10/stream_buffer.c **** 	}
1113:..\FreeRTOS10/stream_buffer.c **** 
1114:..\FreeRTOS10/stream_buffer.c **** 	return xCount;
ARM GAS  C:\Users\Xwx47\AppData\Local\Temp\ccZsRkco.s 			page 21


1115:..\FreeRTOS10/stream_buffer.c **** }
1116:..\FreeRTOS10/stream_buffer.c **** /*-----------------------------------------------------------*/
1117:..\FreeRTOS10/stream_buffer.c **** 
1118:..\FreeRTOS10/stream_buffer.c **** static size_t prvBytesInBuffer( const StreamBuffer_t * const pxStreamBuffer )
1119:..\FreeRTOS10/stream_buffer.c **** {
  27              		.loc 1 1119 0
  28              		.cfi_startproc
  29              		@ args = 0, pretend = 0, frame = 0
  30              		@ frame_needed = 0, uses_anonymous_args = 0
  31              		@ link register save eliminated.
  32              	.LVL0:
1120:..\FreeRTOS10/stream_buffer.c **** /* Returns the distance between xTail and xHead. */
1121:..\FreeRTOS10/stream_buffer.c **** size_t xCount;
1122:..\FreeRTOS10/stream_buffer.c **** 
1123:..\FreeRTOS10/stream_buffer.c **** 	xCount = pxStreamBuffer->xLength + pxStreamBuffer->xHead;
  33              		.loc 1 1123 0
  34 0000 8268     		ldr	r2, [r0, #8]
  35 0002 4368     		ldr	r3, [r0, #4]
  36 0004 D318     		adds	r3, r2, r3
  37              	.LVL1:
1124:..\FreeRTOS10/stream_buffer.c **** 	xCount -= pxStreamBuffer->xTail;
  38              		.loc 1 1124 0
  39 0006 0068     		ldr	r0, [r0]
  40              	.LVL2:
  41 0008 181A     		subs	r0, r3, r0
  42              	.LVL3:
1125:..\FreeRTOS10/stream_buffer.c **** 	if ( xCount >= pxStreamBuffer->xLength )
  43              		.loc 1 1125 0
  44 000a 8242     		cmp	r2, r0
  45 000c 00D8     		bhi	.L2
1126:..\FreeRTOS10/stream_buffer.c **** 	{
1127:..\FreeRTOS10/stream_buffer.c **** 		xCount -= pxStreamBuffer->xLength;
  46              		.loc 1 1127 0
  47 000e 801A     		subs	r0, r0, r2
  48              	.LVL4:
  49              	.L2:
1128:..\FreeRTOS10/stream_buffer.c **** 	}
1129:..\FreeRTOS10/stream_buffer.c **** 	else
1130:..\FreeRTOS10/stream_buffer.c **** 	{
1131:..\FreeRTOS10/stream_buffer.c **** 		mtCOVERAGE_TEST_MARKER();
1132:..\FreeRTOS10/stream_buffer.c **** 	}
1133:..\FreeRTOS10/stream_buffer.c **** 
1134:..\FreeRTOS10/stream_buffer.c **** 	return xCount;
1135:..\FreeRTOS10/stream_buffer.c **** }
  50              		.loc 1 1135 0
  51              		@ sp needed
  52 0010 7047     		bx	lr
  53              		.cfi_endproc
  54              	.LFE50:
  55              		.size	prvBytesInBuffer, .-prvBytesInBuffer
  56 0012 C046     		.section	.text.prvInitialiseNewStreamBuffer,"ax",%progbits
  57              		.align	2
  58              		.code	16
  59              		.thumb_func
  60              		.type	prvInitialiseNewStreamBuffer, %function
  61              	prvInitialiseNewStreamBuffer:
  62              	.LFB51:
ARM GAS  C:\Users\Xwx47\AppData\Local\Temp\ccZsRkco.s 			page 22


1136:..\FreeRTOS10/stream_buffer.c **** /*-----------------------------------------------------------*/
1137:..\FreeRTOS10/stream_buffer.c **** 
1138:..\FreeRTOS10/stream_buffer.c **** static void prvInitialiseNewStreamBuffer( StreamBuffer_t * const pxStreamBuffer,
1139:..\FreeRTOS10/stream_buffer.c **** 										  uint8_t * const pucBuffer,
1140:..\FreeRTOS10/stream_buffer.c **** 										  size_t xBufferSizeBytes,
1141:..\FreeRTOS10/stream_buffer.c **** 										  size_t xTriggerLevelBytes,
1142:..\FreeRTOS10/stream_buffer.c **** 										  BaseType_t xIsMessageBuffer )
1143:..\FreeRTOS10/stream_buffer.c **** {
  63              		.loc 1 1143 0
  64              		.cfi_startproc
  65              		@ args = 4, pretend = 0, frame = 0
  66              		@ frame_needed = 0, uses_anonymous_args = 0
  67              	.LVL5:
  68 0000 F8B5     		push	{r3, r4, r5, r6, r7, lr}
  69              		.cfi_def_cfa_offset 24
  70              		.cfi_offset 3, -24
  71              		.cfi_offset 4, -20
  72              		.cfi_offset 5, -16
  73              		.cfi_offset 6, -12
  74              		.cfi_offset 7, -8
  75              		.cfi_offset 14, -4
  76 0002 0400     		movs	r4, r0
  77 0004 0F00     		movs	r7, r1
  78 0006 1600     		movs	r6, r2
  79 0008 1D00     		movs	r5, r3
1144:..\FreeRTOS10/stream_buffer.c **** 	/* Assert here is deliberately writing to the entire buffer to ensure it can
1145:..\FreeRTOS10/stream_buffer.c **** 	be written to without generating exceptions, and is setting the buffer to a
1146:..\FreeRTOS10/stream_buffer.c **** 	known value to assist in development/debugging. */
1147:..\FreeRTOS10/stream_buffer.c **** 	#if( configASSERT_DEFINED == 1 )
1148:..\FreeRTOS10/stream_buffer.c **** 	{
1149:..\FreeRTOS10/stream_buffer.c **** 		/* The value written just has to be identifiable when looking at the
1150:..\FreeRTOS10/stream_buffer.c **** 		memory.  Don't use 0xA5 as that is the stack fill value and could
1151:..\FreeRTOS10/stream_buffer.c **** 		result in confusion as to what is actually being observed. */
1152:..\FreeRTOS10/stream_buffer.c **** 		const BaseType_t xWriteValue = 0x55;
1153:..\FreeRTOS10/stream_buffer.c **** 		configASSERT( memset( pucBuffer, ( int ) xWriteValue, xBufferSizeBytes ) == pucBuffer );
1154:..\FreeRTOS10/stream_buffer.c **** 	}
1155:..\FreeRTOS10/stream_buffer.c **** 	#endif
1156:..\FreeRTOS10/stream_buffer.c **** 
1157:..\FreeRTOS10/stream_buffer.c **** 	memset( ( void * ) pxStreamBuffer, 0x00, sizeof( StreamBuffer_t ) ); /*lint !e9087 memset() requir
  80              		.loc 1 1157 0
  81 000a 2022     		movs	r2, #32
  82              	.LVL6:
  83 000c 0021     		movs	r1, #0
  84              	.LVL7:
  85 000e FFF7FEFF 		bl	memset
  86              	.LVL8:
1158:..\FreeRTOS10/stream_buffer.c **** 	pxStreamBuffer->pucBuffer = pucBuffer;
  87              		.loc 1 1158 0
  88 0012 A761     		str	r7, [r4, #24]
1159:..\FreeRTOS10/stream_buffer.c **** 	pxStreamBuffer->xLength = xBufferSizeBytes;
  89              		.loc 1 1159 0
  90 0014 A660     		str	r6, [r4, #8]
1160:..\FreeRTOS10/stream_buffer.c **** 	pxStreamBuffer->xTriggerLevelBytes = xTriggerLevelBytes;
  91              		.loc 1 1160 0
  92 0016 E560     		str	r5, [r4, #12]
1161:..\FreeRTOS10/stream_buffer.c **** 
1162:..\FreeRTOS10/stream_buffer.c **** 	if( xIsMessageBuffer != pdFALSE )
ARM GAS  C:\Users\Xwx47\AppData\Local\Temp\ccZsRkco.s 			page 23


  93              		.loc 1 1162 0
  94 0018 069B     		ldr	r3, [sp, #24]
  95 001a 002B     		cmp	r3, #0
  96 001c 03D0     		beq	.L3
1163:..\FreeRTOS10/stream_buffer.c **** 	{
1164:..\FreeRTOS10/stream_buffer.c **** 		pxStreamBuffer->ucFlags |= sbFLAGS_IS_MESSAGE_BUFFER;
  97              		.loc 1 1164 0
  98 001e 227F     		ldrb	r2, [r4, #28]
  99 0020 0123     		movs	r3, #1
 100 0022 1343     		orrs	r3, r2
 101 0024 2377     		strb	r3, [r4, #28]
 102              	.L3:
1165:..\FreeRTOS10/stream_buffer.c **** 	}
1166:..\FreeRTOS10/stream_buffer.c **** }
 103              		.loc 1 1166 0
 104              		@ sp needed
 105              	.LVL9:
 106              	.LVL10:
 107              	.LVL11:
 108              	.LVL12:
 109 0026 F8BD     		pop	{r3, r4, r5, r6, r7, pc}
 110              		.cfi_endproc
 111              	.LFE51:
 112              		.size	prvInitialiseNewStreamBuffer, .-prvInitialiseNewStreamBuffer
 113              		.section	.text.prvWriteBytesToBuffer,"ax",%progbits
 114              		.align	2
 115              		.code	16
 116              		.thumb_func
 117              		.type	prvWriteBytesToBuffer, %function
 118              	prvWriteBytesToBuffer:
 119              	.LFB48:
1018:..\FreeRTOS10/stream_buffer.c **** size_t xNextHead, xFirstLength;
 120              		.loc 1 1018 0
 121              		.cfi_startproc
 122              		@ args = 0, pretend = 0, frame = 8
 123              		@ frame_needed = 0, uses_anonymous_args = 0
 124              	.LVL13:
 125 0000 F0B5     		push	{r4, r5, r6, r7, lr}
 126              		.cfi_def_cfa_offset 20
 127              		.cfi_offset 4, -20
 128              		.cfi_offset 5, -16
 129              		.cfi_offset 6, -12
 130              		.cfi_offset 7, -8
 131              		.cfi_offset 14, -4
 132 0002 83B0     		sub	sp, sp, #12
 133              		.cfi_def_cfa_offset 32
 134 0004 0600     		movs	r6, r0
 135 0006 0191     		str	r1, [sp, #4]
 136 0008 1700     		movs	r7, r2
1023:..\FreeRTOS10/stream_buffer.c **** 
 137              		.loc 1 1023 0
 138 000a 4468     		ldr	r4, [r0, #4]
 139              	.LVL14:
1028:..\FreeRTOS10/stream_buffer.c **** 
 140              		.loc 1 1028 0
 141 000c 8368     		ldr	r3, [r0, #8]
 142 000e 1D1B     		subs	r5, r3, r4
ARM GAS  C:\Users\Xwx47\AppData\Local\Temp\ccZsRkco.s 			page 24


 143 0010 9542     		cmp	r5, r2
 144 0012 00D9     		bls	.L6
 145 0014 1500     		movs	r5, r2
 146              	.L6:
 147              	.LVL15:
1032:..\FreeRTOS10/stream_buffer.c **** 
 148              		.loc 1 1032 0
 149 0016 B369     		ldr	r3, [r6, #24]
 150 0018 1819     		adds	r0, r3, r4
 151              	.LVL16:
 152 001a 2A00     		movs	r2, r5
 153              	.LVL17:
 154 001c 0199     		ldr	r1, [sp, #4]
 155              	.LVL18:
 156 001e FFF7FEFF 		bl	memcpy
 157              	.LVL19:
1036:..\FreeRTOS10/stream_buffer.c **** 	{
 158              		.loc 1 1036 0
 159 0022 AF42     		cmp	r7, r5
 160 0024 05D9     		bls	.L7
1040:..\FreeRTOS10/stream_buffer.c **** 	}
 161              		.loc 1 1040 0
 162 0026 7A1B     		subs	r2, r7, r5
 163 0028 019B     		ldr	r3, [sp, #4]
 164 002a 5919     		adds	r1, r3, r5
 165 002c B069     		ldr	r0, [r6, #24]
 166 002e FFF7FEFF 		bl	memcpy
 167              	.LVL20:
 168              	.L7:
1047:..\FreeRTOS10/stream_buffer.c **** 	if( xNextHead >= pxStreamBuffer->xLength )
 169              		.loc 1 1047 0
 170 0032 E319     		adds	r3, r4, r7
 171              	.LVL21:
1048:..\FreeRTOS10/stream_buffer.c **** 	{
 172              		.loc 1 1048 0
 173 0034 B268     		ldr	r2, [r6, #8]
 174 0036 9342     		cmp	r3, r2
 175 0038 00D3     		bcc	.L8
1050:..\FreeRTOS10/stream_buffer.c **** 	}
 176              		.loc 1 1050 0
 177 003a 9B1A     		subs	r3, r3, r2
 178              	.LVL22:
 179              	.L8:
1057:..\FreeRTOS10/stream_buffer.c **** 
 180              		.loc 1 1057 0
 181 003c 7360     		str	r3, [r6, #4]
1060:..\FreeRTOS10/stream_buffer.c **** /*-----------------------------------------------------------*/
 182              		.loc 1 1060 0
 183 003e 3800     		movs	r0, r7
 184 0040 03B0     		add	sp, sp, #12
 185              		@ sp needed
 186              	.LVL23:
 187              	.LVL24:
 188              	.LVL25:
 189 0042 F0BD     		pop	{r4, r5, r6, r7, pc}
 190              		.cfi_endproc
 191              	.LFE48:
ARM GAS  C:\Users\Xwx47\AppData\Local\Temp\ccZsRkco.s 			page 25


 192              		.size	prvWriteBytesToBuffer, .-prvWriteBytesToBuffer
 193              		.section	.text.prvWriteMessageToBuffer,"ax",%progbits
 194              		.align	2
 195              		.code	16
 196              		.thumb_func
 197              		.type	prvWriteMessageToBuffer, %function
 198              	prvWriteMessageToBuffer:
 199              	.LFB40:
 641:..\FreeRTOS10/stream_buffer.c **** 	BaseType_t xShouldWrite;
 200              		.loc 1 641 0
 201              		.cfi_startproc
 202              		@ args = 4, pretend = 0, frame = 8
 203              		@ frame_needed = 0, uses_anonymous_args = 0
 204              	.LVL26:
 205 0000 30B5     		push	{r4, r5, lr}
 206              		.cfi_def_cfa_offset 12
 207              		.cfi_offset 4, -12
 208              		.cfi_offset 5, -8
 209              		.cfi_offset 14, -4
 210 0002 83B0     		sub	sp, sp, #12
 211              		.cfi_def_cfa_offset 24
 212 0004 0400     		movs	r4, r0
 213 0006 0D00     		movs	r5, r1
 214 0008 0192     		str	r2, [sp, #4]
 645:..\FreeRTOS10/stream_buffer.c **** 	{
 215              		.loc 1 645 0
 216 000a 002B     		cmp	r3, #0
 217 000c 12D0     		beq	.L14
 651:..\FreeRTOS10/stream_buffer.c **** 	{
 218              		.loc 1 651 0
 219 000e 027F     		ldrb	r2, [r0, #28]
 220              	.LVL27:
 221 0010 D207     		lsls	r2, r2, #31
 222 0012 06D4     		bmi	.L11
 223              	.LVL28:
 657:..\FreeRTOS10/stream_buffer.c **** 	}
 224              		.loc 1 657 0
 225 0014 019A     		ldr	r2, [sp, #4]
 226 0016 9A42     		cmp	r2, r3
 227 0018 00D9     		bls	.L12
 228 001a 1A00     		movs	r2, r3
 229              	.L12:
 230 001c 0192     		str	r2, [sp, #4]
 231              	.LVL29:
 656:..\FreeRTOS10/stream_buffer.c **** 		xDataLengthBytes = configMIN( xDataLengthBytes, xSpace ); /*lint !e9044 Function parameter modifi
 232              		.loc 1 656 0
 233 001e 0123     		movs	r3, #1
 234              	.LVL30:
 235 0020 0BE0     		b	.L10
 236              	.LVL31:
 237              	.L11:
 659:..\FreeRTOS10/stream_buffer.c **** 	{
 238              		.loc 1 659 0
 239 0022 069A     		ldr	r2, [sp, #24]
 240 0024 9342     		cmp	r3, r2
 241 0026 07D3     		bcc	.L15
 242              	.LVL32:
ARM GAS  C:\Users\Xwx47\AppData\Local\Temp\ccZsRkco.s 			page 26


 666:..\FreeRTOS10/stream_buffer.c **** 	}
 243              		.loc 1 666 0
 244 0028 0422     		movs	r2, #4
 245 002a 01A9     		add	r1, sp, #4
 246              	.LVL33:
 247 002c FFF7FEFF 		bl	prvWriteBytesToBuffer
 248              	.LVL34:
 665:..\FreeRTOS10/stream_buffer.c **** 		( void ) prvWriteBytesToBuffer( pxStreamBuffer, ( const uint8_t * ) &( xDataLengthBytes ), sbBYTE
 249              		.loc 1 665 0
 250 0030 0123     		movs	r3, #1
 251 0032 02E0     		b	.L10
 252              	.LVL35:
 253              	.L14:
 649:..\FreeRTOS10/stream_buffer.c **** 	}
 254              		.loc 1 649 0
 255 0034 0023     		movs	r3, #0
 256              	.LVL36:
 257 0036 00E0     		b	.L10
 258              	.LVL37:
 259              	.L15:
 671:..\FreeRTOS10/stream_buffer.c **** 	}
 260              		.loc 1 671 0
 261 0038 0023     		movs	r3, #0
 262              	.LVL38:
 263              	.L10:
 674:..\FreeRTOS10/stream_buffer.c **** 	{
 264              		.loc 1 674 0
 265 003a 002B     		cmp	r3, #0
 266 003c 05D0     		beq	.L16
 677:..\FreeRTOS10/stream_buffer.c **** 	}
 267              		.loc 1 677 0
 268 003e 019A     		ldr	r2, [sp, #4]
 269 0040 2900     		movs	r1, r5
 270 0042 2000     		movs	r0, r4
 271 0044 FFF7FEFF 		bl	prvWriteBytesToBuffer
 272              	.LVL39:
 273 0048 00E0     		b	.L13
 274              	.LVL40:
 275              	.L16:
 681:..\FreeRTOS10/stream_buffer.c **** 	}
 276              		.loc 1 681 0
 277 004a 0020     		movs	r0, #0
 278              	.LVL41:
 279              	.L13:
 685:..\FreeRTOS10/stream_buffer.c **** /*-----------------------------------------------------------*/
 280              		.loc 1 685 0
 281 004c 03B0     		add	sp, sp, #12
 282              		@ sp needed
 283              	.LVL42:
 284              	.LVL43:
 285 004e 30BD     		pop	{r4, r5, pc}
 286              		.cfi_endproc
 287              	.LFE40:
 288              		.size	prvWriteMessageToBuffer, .-prvWriteMessageToBuffer
 289              		.section	.text.prvReadBytesFromBuffer,"ax",%progbits
 290              		.align	2
 291              		.code	16
ARM GAS  C:\Users\Xwx47\AppData\Local\Temp\ccZsRkco.s 			page 27


 292              		.thumb_func
 293              		.type	prvReadBytesFromBuffer, %function
 294              	prvReadBytesFromBuffer:
 295              	.LFB49:
1064:..\FreeRTOS10/stream_buffer.c **** size_t xCount, xFirstLength, xNextTail;
 296              		.loc 1 1064 0
 297              		.cfi_startproc
 298              		@ args = 0, pretend = 0, frame = 8
 299              		@ frame_needed = 0, uses_anonymous_args = 0
 300              	.LVL44:
 301 0000 F0B5     		push	{r4, r5, r6, r7, lr}
 302              		.cfi_def_cfa_offset 20
 303              		.cfi_offset 4, -20
 304              		.cfi_offset 5, -16
 305              		.cfi_offset 6, -12
 306              		.cfi_offset 7, -8
 307              		.cfi_offset 14, -4
 308 0002 83B0     		sub	sp, sp, #12
 309              		.cfi_def_cfa_offset 32
 310 0004 0600     		movs	r6, r0
 311 0006 0191     		str	r1, [sp, #4]
1068:..\FreeRTOS10/stream_buffer.c **** 
 312              		.loc 1 1068 0
 313 0008 1400     		movs	r4, r2
 314 000a 9A42     		cmp	r2, r3
 315 000c 00D9     		bls	.L18
 316 000e 1C00     		movs	r4, r3
 317              	.L18:
 318              	.LVL45:
1070:..\FreeRTOS10/stream_buffer.c **** 	{
 319              		.loc 1 1070 0
 320 0010 002C     		cmp	r4, #0
 321 0012 1AD0     		beq	.L19
1072:..\FreeRTOS10/stream_buffer.c **** 
 322              		.loc 1 1072 0
 323 0014 3568     		ldr	r5, [r6]
 324              	.LVL46:
1077:..\FreeRTOS10/stream_buffer.c **** 
 325              		.loc 1 1077 0
 326 0016 B368     		ldr	r3, [r6, #8]
 327              	.LVL47:
 328 0018 5B1B     		subs	r3, r3, r5
 329 001a 2700     		movs	r7, r4
 330 001c 9C42     		cmp	r4, r3
 331 001e 00D9     		bls	.L20
 332 0020 1F00     		movs	r7, r3
 333              	.L20:
 334              	.LVL48:
1083:..\FreeRTOS10/stream_buffer.c **** 
 335              		.loc 1 1083 0
 336 0022 B369     		ldr	r3, [r6, #24]
 337 0024 5919     		adds	r1, r3, r5
 338              	.LVL49:
 339 0026 3A00     		movs	r2, r7
 340              	.LVL50:
 341 0028 0198     		ldr	r0, [sp, #4]
 342              	.LVL51:
ARM GAS  C:\Users\Xwx47\AppData\Local\Temp\ccZsRkco.s 			page 28


 343 002a FFF7FEFF 		bl	memcpy
 344              	.LVL52:
1087:..\FreeRTOS10/stream_buffer.c **** 		{
 345              		.loc 1 1087 0
 346 002e BC42     		cmp	r4, r7
 347 0030 05D9     		bls	.L21
1091:..\FreeRTOS10/stream_buffer.c **** 		}
 348              		.loc 1 1091 0
 349 0032 019B     		ldr	r3, [sp, #4]
 350 0034 D819     		adds	r0, r3, r7
 351 0036 E21B     		subs	r2, r4, r7
 352 0038 B169     		ldr	r1, [r6, #24]
 353 003a FFF7FEFF 		bl	memcpy
 354              	.LVL53:
 355              	.L21:
1100:..\FreeRTOS10/stream_buffer.c **** 
 356              		.loc 1 1100 0
 357 003e 6519     		adds	r5, r4, r5
 358              	.LVL54:
1102:..\FreeRTOS10/stream_buffer.c **** 		{
 359              		.loc 1 1102 0
 360 0040 B368     		ldr	r3, [r6, #8]
 361 0042 9D42     		cmp	r5, r3
 362 0044 00D3     		bcc	.L22
1104:..\FreeRTOS10/stream_buffer.c **** 		}
 363              		.loc 1 1104 0
 364 0046 ED1A     		subs	r5, r5, r3
 365              	.LVL55:
 366              	.L22:
1107:..\FreeRTOS10/stream_buffer.c **** 	}
 367              		.loc 1 1107 0
 368 0048 3560     		str	r5, [r6]
 369              	.LVL56:
 370              	.L19:
1115:..\FreeRTOS10/stream_buffer.c **** /*-----------------------------------------------------------*/
 371              		.loc 1 1115 0
 372 004a 2000     		movs	r0, r4
 373 004c 03B0     		add	sp, sp, #12
 374              		@ sp needed
 375              	.LVL57:
 376              	.LVL58:
 377 004e F0BD     		pop	{r4, r5, r6, r7, pc}
 378              		.cfi_endproc
 379              	.LFE49:
 380              		.size	prvReadBytesFromBuffer, .-prvReadBytesFromBuffer
 381              		.section	.text.prvReadMessageFromBuffer,"ax",%progbits
 382              		.align	2
 383              		.code	16
 384              		.thumb_func
 385              		.type	prvReadMessageFromBuffer, %function
 386              	prvReadMessageFromBuffer:
 387              	.LFB43:
 854:..\FreeRTOS10/stream_buffer.c **** size_t xOriginalTail, xReceivedLength, xNextMessageLength;
 388              		.loc 1 854 0
 389              		.cfi_startproc
 390              		@ args = 4, pretend = 0, frame = 8
 391              		@ frame_needed = 0, uses_anonymous_args = 0
ARM GAS  C:\Users\Xwx47\AppData\Local\Temp\ccZsRkco.s 			page 29


 392              	.LVL59:
 393 0000 F0B5     		push	{r4, r5, r6, r7, lr}
 394              		.cfi_def_cfa_offset 20
 395              		.cfi_offset 4, -20
 396              		.cfi_offset 5, -16
 397              		.cfi_offset 6, -12
 398              		.cfi_offset 7, -8
 399              		.cfi_offset 14, -4
 400 0002 4746     		mov	r7, r8
 401 0004 80B4     		push	{r7}
 402              		.cfi_def_cfa_offset 24
 403              		.cfi_offset 8, -24
 404 0006 82B0     		sub	sp, sp, #8
 405              		.cfi_def_cfa_offset 32
 406 0008 0500     		movs	r5, r0
 407 000a 0E00     		movs	r6, r1
 408 000c 1700     		movs	r7, r2
 409 000e 1C00     		movs	r4, r3
 857:..\FreeRTOS10/stream_buffer.c **** 	{
 410              		.loc 1 857 0
 411 0010 089B     		ldr	r3, [sp, #32]
 412              	.LVL60:
 413 0012 002B     		cmp	r3, #0
 414 0014 10D0     		beq	.L24
 863:..\FreeRTOS10/stream_buffer.c **** 		( void ) prvReadBytesFromBuffer( pxStreamBuffer, ( uint8_t * ) &xNextMessageLength, xBytesToStore
 415              		.loc 1 863 0
 416 0016 0368     		ldr	r3, [r0]
 417 0018 9846     		mov	r8, r3
 418              	.LVL61:
 864:..\FreeRTOS10/stream_buffer.c **** 
 419              		.loc 1 864 0
 420 001a 2300     		movs	r3, r4
 421              	.LVL62:
 422 001c 089A     		ldr	r2, [sp, #32]
 423              	.LVL63:
 424 001e 01A9     		add	r1, sp, #4
 425              	.LVL64:
 426 0020 FFF7FEFF 		bl	prvReadBytesFromBuffer
 427              	.LVL65:
 868:..\FreeRTOS10/stream_buffer.c **** 
 428              		.loc 1 868 0
 429 0024 089B     		ldr	r3, [sp, #32]
 430 0026 E41A     		subs	r4, r4, r3
 431              	.LVL66:
 872:..\FreeRTOS10/stream_buffer.c **** 		{
 432              		.loc 1 872 0
 433 0028 019B     		ldr	r3, [sp, #4]
 434 002a BB42     		cmp	r3, r7
 435 002c 05D9     		bls	.L25
 877:..\FreeRTOS10/stream_buffer.c **** 			xNextMessageLength = 0;
 436              		.loc 1 877 0
 437 002e 4346     		mov	r3, r8
 438 0030 2B60     		str	r3, [r5]
 878:..\FreeRTOS10/stream_buffer.c **** 		}
 439              		.loc 1 878 0
 440 0032 0023     		movs	r3, #0
 441 0034 0193     		str	r3, [sp, #4]
ARM GAS  C:\Users\Xwx47\AppData\Local\Temp\ccZsRkco.s 			page 30


 442 0036 00E0     		b	.L25
 443              	.LVL67:
 444              	.L24:
 889:..\FreeRTOS10/stream_buffer.c **** 	}
 445              		.loc 1 889 0
 446 0038 0192     		str	r2, [sp, #4]
 447              	.LVL68:
 448              	.L25:
 893:..\FreeRTOS10/stream_buffer.c **** 
 449              		.loc 1 893 0
 450 003a 2300     		movs	r3, r4
 451 003c 019A     		ldr	r2, [sp, #4]
 452 003e 3100     		movs	r1, r6
 453 0040 2800     		movs	r0, r5
 454 0042 FFF7FEFF 		bl	prvReadBytesFromBuffer
 455              	.LVL69:
 896:..\FreeRTOS10/stream_buffer.c **** /*-----------------------------------------------------------*/
 456              		.loc 1 896 0
 457 0046 02B0     		add	sp, sp, #8
 458              		@ sp needed
 459              	.LVL70:
 460              	.LVL71:
 461              	.LVL72:
 462              	.LVL73:
 463 0048 04BC     		pop	{r2}
 464 004a 9046     		mov	r8, r2
 465 004c F0BD     		pop	{r4, r5, r6, r7, pc}
 466              		.cfi_endproc
 467              	.LFE43:
 468              		.size	prvReadMessageFromBuffer, .-prvReadMessageFromBuffer
 469 004e C046     		.section	.text.xStreamBufferGenericCreate,"ax",%progbits
 470              		.align	2
 471              		.global	xStreamBufferGenericCreate
 472              		.code	16
 473              		.thumb_func
 474              		.type	xStreamBufferGenericCreate, %function
 475              	xStreamBufferGenericCreate:
 476              	.LFB32:
 217:..\FreeRTOS10/stream_buffer.c **** 	uint8_t *pucAllocatedMemory;
 477              		.loc 1 217 0
 478              		.cfi_startproc
 479              		@ args = 0, pretend = 0, frame = 0
 480              		@ frame_needed = 0, uses_anonymous_args = 0
 481              	.LVL74:
 482 0000 F0B5     		push	{r4, r5, r6, r7, lr}
 483              		.cfi_def_cfa_offset 20
 484              		.cfi_offset 4, -20
 485              		.cfi_offset 5, -16
 486              		.cfi_offset 6, -12
 487              		.cfi_offset 7, -8
 488              		.cfi_offset 14, -4
 489 0002 83B0     		sub	sp, sp, #12
 490              		.cfi_def_cfa_offset 32
 491 0004 0D00     		movs	r5, r1
 492 0006 1700     		movs	r7, r2
 229:..\FreeRTOS10/stream_buffer.c **** 		{
 493              		.loc 1 229 0
ARM GAS  C:\Users\Xwx47\AppData\Local\Temp\ccZsRkco.s 			page 31


 494 0008 0029     		cmp	r1, #0
 495 000a 00D1     		bne	.L27
 231:..\FreeRTOS10/stream_buffer.c **** 		}
 496              		.loc 1 231 0
 497 000c 0135     		adds	r5, r5, #1
 498              	.L27:
 499              	.LVL75:
 242:..\FreeRTOS10/stream_buffer.c **** 		pucAllocatedMemory = ( uint8_t * ) pvPortMalloc( xBufferSizeBytes + sizeof( StreamBuffer_t ) ); /
 500              		.loc 1 242 0
 501 000e 461C     		adds	r6, r0, #1
 502              	.LVL76:
 243:..\FreeRTOS10/stream_buffer.c **** 
 503              		.loc 1 243 0
 504 0010 2130     		adds	r0, r0, #33
 505 0012 FFF7FEFF 		bl	pvPortMalloc
 506              	.LVL77:
 507 0016 041E     		subs	r4, r0, #0
 508              	.LVL78:
 245:..\FreeRTOS10/stream_buffer.c **** 		{
 509              		.loc 1 245 0
 510 0018 06D0     		beq	.L28
 247:..\FreeRTOS10/stream_buffer.c **** 										   pucAllocatedMemory + sizeof( StreamBuffer_t ),  /* Storage area follows. */ /*lint !e9
 511              		.loc 1 247 0
 512 001a 0100     		movs	r1, r0
 513 001c 2031     		adds	r1, r1, #32
 514 001e 0097     		str	r7, [sp]
 515 0020 2B00     		movs	r3, r5
 516 0022 3200     		movs	r2, r6
 517 0024 FFF7FEFF 		bl	prvInitialiseNewStreamBuffer
 518              	.LVL79:
 519              	.L28:
 261:..\FreeRTOS10/stream_buffer.c **** 
 520              		.loc 1 261 0
 521 0028 2000     		movs	r0, r4
 522 002a 03B0     		add	sp, sp, #12
 523              		@ sp needed
 524              	.LVL80:
 525              	.LVL81:
 526              	.LVL82:
 527              	.LVL83:
 528 002c F0BD     		pop	{r4, r5, r6, r7, pc}
 529              		.cfi_endproc
 530              	.LFE32:
 531              		.size	xStreamBufferGenericCreate, .-xStreamBufferGenericCreate
 532 002e C046     		.section	.text.vStreamBufferDelete,"ax",%progbits
 533              		.align	2
 534              		.global	vStreamBufferDelete
 535              		.code	16
 536              		.thumb_func
 537              		.type	vStreamBufferDelete, %function
 538              	vStreamBufferDelete:
 539              	.LFB33:
 333:..\FreeRTOS10/stream_buffer.c **** StreamBuffer_t * pxStreamBuffer = ( StreamBuffer_t * ) xStreamBuffer; /*lint !e9087 !e9079 Safe cas
 540              		.loc 1 333 0
 541              		.cfi_startproc
 542              		@ args = 0, pretend = 0, frame = 0
 543              		@ frame_needed = 0, uses_anonymous_args = 0
ARM GAS  C:\Users\Xwx47\AppData\Local\Temp\ccZsRkco.s 			page 32


 544              	.LVL84:
 545 0000 10B5     		push	{r4, lr}
 546              		.cfi_def_cfa_offset 8
 547              		.cfi_offset 4, -8
 548              		.cfi_offset 14, -4
 549              	.LVL85:
 340:..\FreeRTOS10/stream_buffer.c **** 	{
 550              		.loc 1 340 0
 551 0002 037F     		ldrb	r3, [r0, #28]
 552 0004 9B07     		lsls	r3, r3, #30
 553 0006 02D4     		bmi	.L31
 346:..\FreeRTOS10/stream_buffer.c **** 		}
 554              		.loc 1 346 0
 555 0008 FFF7FEFF 		bl	vPortFree
 556              	.LVL86:
 557 000c 03E0     		b	.L30
 558              	.LVL87:
 559              	.L31:
 360:..\FreeRTOS10/stream_buffer.c **** 	}
 560              		.loc 1 360 0
 561 000e 2022     		movs	r2, #32
 562 0010 0021     		movs	r1, #0
 563 0012 FFF7FEFF 		bl	memset
 564              	.LVL88:
 565              	.L30:
 362:..\FreeRTOS10/stream_buffer.c **** /*-----------------------------------------------------------*/
 566              		.loc 1 362 0
 567              		@ sp needed
 568 0016 10BD     		pop	{r4, pc}
 569              		.cfi_endproc
 570              	.LFE33:
 571              		.size	vStreamBufferDelete, .-vStreamBufferDelete
 572              		.section	.text.xStreamBufferReset,"ax",%progbits
 573              		.align	2
 574              		.global	xStreamBufferReset
 575              		.code	16
 576              		.thumb_func
 577              		.type	xStreamBufferReset, %function
 578              	xStreamBufferReset:
 579              	.LFB34:
 366:..\FreeRTOS10/stream_buffer.c **** StreamBuffer_t * const pxStreamBuffer = ( StreamBuffer_t * ) xStreamBuffer; /*lint !e9087 !e9079 Sa
 580              		.loc 1 366 0
 581              		.cfi_startproc
 582              		@ args = 0, pretend = 0, frame = 0
 583              		@ frame_needed = 0, uses_anonymous_args = 0
 584              	.LVL89:
 585 0000 00B5     		push	{lr}
 586              		.cfi_def_cfa_offset 4
 587              		.cfi_offset 14, -4
 588 0002 83B0     		sub	sp, sp, #12
 589              		.cfi_def_cfa_offset 16
 590              	.LVL90:
 385:..\FreeRTOS10/stream_buffer.c **** 	{
 591              		.loc 1 385 0
 592 0004 0369     		ldr	r3, [r0, #16]
 593 0006 002B     		cmp	r3, #0
 594 0008 10D1     		bne	.L36
ARM GAS  C:\Users\Xwx47\AppData\Local\Temp\ccZsRkco.s 			page 33


 387:..\FreeRTOS10/stream_buffer.c **** 		{
 595              		.loc 1 387 0
 596 000a 4369     		ldr	r3, [r0, #20]
 597 000c 002B     		cmp	r3, #0
 598 000e 0FD1     		bne	.L37
 389:..\FreeRTOS10/stream_buffer.c **** 			{
 599              		.loc 1 389 0
 600 0010 037F     		ldrb	r3, [r0, #28]
 601 0012 DB07     		lsls	r3, r3, #31
 602 0014 01D5     		bpl	.L38
 391:..\FreeRTOS10/stream_buffer.c **** 			}
 603              		.loc 1 391 0
 604 0016 0123     		movs	r3, #1
 605 0018 00E0     		b	.L35
 606              	.L38:
 395:..\FreeRTOS10/stream_buffer.c **** 			}
 607              		.loc 1 395 0
 608 001a 0023     		movs	r3, #0
 609              	.L35:
 610              	.LVL91:
 398:..\FreeRTOS10/stream_buffer.c **** 										  pxStreamBuffer->pucBuffer,
 611              		.loc 1 398 0
 612 001c 0093     		str	r3, [sp]
 613 001e C368     		ldr	r3, [r0, #12]
 614              	.LVL92:
 615 0020 8268     		ldr	r2, [r0, #8]
 616 0022 8169     		ldr	r1, [r0, #24]
 617 0024 FFF7FEFF 		bl	prvInitialiseNewStreamBuffer
 618              	.LVL93:
 403:..\FreeRTOS10/stream_buffer.c **** 
 619              		.loc 1 403 0
 620 0028 0120     		movs	r0, #1
 621 002a 02E0     		b	.L34
 622              	.LVL94:
 623              	.L36:
 368:..\FreeRTOS10/stream_buffer.c **** 
 624              		.loc 1 368 0
 625 002c 0020     		movs	r0, #0
 626              	.LVL95:
 627 002e 00E0     		b	.L34
 628              	.LVL96:
 629              	.L37:
 630 0030 0020     		movs	r0, #0
 631              	.LVL97:
 632              	.L34:
 416:..\FreeRTOS10/stream_buffer.c **** /*-----------------------------------------------------------*/
 633              		.loc 1 416 0
 634 0032 03B0     		add	sp, sp, #12
 635              		@ sp needed
 636 0034 00BD     		pop	{pc}
 637              		.cfi_endproc
 638              	.LFE34:
 639              		.size	xStreamBufferReset, .-xStreamBufferReset
 640 0036 C046     		.section	.text.xStreamBufferSetTriggerLevel,"ax",%progbits
 641              		.align	2
 642              		.global	xStreamBufferSetTriggerLevel
 643              		.code	16
ARM GAS  C:\Users\Xwx47\AppData\Local\Temp\ccZsRkco.s 			page 34


 644              		.thumb_func
 645              		.type	xStreamBufferSetTriggerLevel, %function
 646              	xStreamBufferSetTriggerLevel:
 647              	.LFB35:
 420:..\FreeRTOS10/stream_buffer.c **** StreamBuffer_t * const pxStreamBuffer = ( StreamBuffer_t * ) xStreamBuffer; /*lint !e9087 !e9079 Sa
 648              		.loc 1 420 0
 649              		.cfi_startproc
 650              		@ args = 0, pretend = 0, frame = 0
 651              		@ frame_needed = 0, uses_anonymous_args = 0
 652              		@ link register save eliminated.
 653              	.LVL98:
 427:..\FreeRTOS10/stream_buffer.c **** 	{
 654              		.loc 1 427 0
 655 0000 0029     		cmp	r1, #0
 656 0002 00D1     		bne	.L40
 429:..\FreeRTOS10/stream_buffer.c **** 	}
 657              		.loc 1 429 0
 658 0004 0131     		adds	r1, r1, #1
 659              	.LVL99:
 660              	.L40:
 434:..\FreeRTOS10/stream_buffer.c **** 	{
 661              		.loc 1 434 0
 662 0006 8368     		ldr	r3, [r0, #8]
 663 0008 9942     		cmp	r1, r3
 664 000a 02D8     		bhi	.L43
 436:..\FreeRTOS10/stream_buffer.c **** 		xReturn = pdPASS;
 665              		.loc 1 436 0
 666 000c C160     		str	r1, [r0, #12]
 667              	.LVL100:
 437:..\FreeRTOS10/stream_buffer.c **** 	}
 668              		.loc 1 437 0
 669 000e 0120     		movs	r0, #1
 670              	.LVL101:
 671 0010 00E0     		b	.L41
 672              	.LVL102:
 673              	.L43:
 441:..\FreeRTOS10/stream_buffer.c **** 	}
 674              		.loc 1 441 0
 675 0012 0020     		movs	r0, #0
 676              	.LVL103:
 677              	.L41:
 445:..\FreeRTOS10/stream_buffer.c **** /*-----------------------------------------------------------*/
 678              		.loc 1 445 0
 679              		@ sp needed
 680 0014 7047     		bx	lr
 681              		.cfi_endproc
 682              	.LFE35:
 683              		.size	xStreamBufferSetTriggerLevel, .-xStreamBufferSetTriggerLevel
 684 0016 C046     		.section	.text.xStreamBufferSpacesAvailable,"ax",%progbits
 685              		.align	2
 686              		.global	xStreamBufferSpacesAvailable
 687              		.code	16
 688              		.thumb_func
 689              		.type	xStreamBufferSpacesAvailable, %function
 690              	xStreamBufferSpacesAvailable:
 691              	.LFB36:
 449:..\FreeRTOS10/stream_buffer.c **** const StreamBuffer_t * const pxStreamBuffer = ( StreamBuffer_t * ) xStreamBuffer; /*lint !e9087 !e9
ARM GAS  C:\Users\Xwx47\AppData\Local\Temp\ccZsRkco.s 			page 35


 692              		.loc 1 449 0
 693              		.cfi_startproc
 694              		@ args = 0, pretend = 0, frame = 0
 695              		@ frame_needed = 0, uses_anonymous_args = 0
 696              		@ link register save eliminated.
 697              	.LVL104:
 455:..\FreeRTOS10/stream_buffer.c **** 	xSpace -= pxStreamBuffer->xHead;
 698              		.loc 1 455 0
 699 0000 8268     		ldr	r2, [r0, #8]
 700 0002 0368     		ldr	r3, [r0]
 701 0004 D318     		adds	r3, r2, r3
 702              	.LVL105:
 456:..\FreeRTOS10/stream_buffer.c **** 	xSpace -= ( size_t ) 1;
 703              		.loc 1 456 0
 704 0006 4068     		ldr	r0, [r0, #4]
 705              	.LVL106:
 706 0008 181A     		subs	r0, r3, r0
 707              	.LVL107:
 457:..\FreeRTOS10/stream_buffer.c **** 
 708              		.loc 1 457 0
 709 000a 0138     		subs	r0, r0, #1
 710              	.LVL108:
 459:..\FreeRTOS10/stream_buffer.c **** 	{
 711              		.loc 1 459 0
 712 000c 8242     		cmp	r2, r0
 713 000e 00D8     		bhi	.L45
 461:..\FreeRTOS10/stream_buffer.c **** 	}
 714              		.loc 1 461 0
 715 0010 801A     		subs	r0, r0, r2
 716              	.LVL109:
 717              	.L45:
 469:..\FreeRTOS10/stream_buffer.c **** /*-----------------------------------------------------------*/
 718              		.loc 1 469 0
 719              		@ sp needed
 720 0012 7047     		bx	lr
 721              		.cfi_endproc
 722              	.LFE36:
 723              		.size	xStreamBufferSpacesAvailable, .-xStreamBufferSpacesAvailable
 724              		.section	.text.xStreamBufferBytesAvailable,"ax",%progbits
 725              		.align	2
 726              		.global	xStreamBufferBytesAvailable
 727              		.code	16
 728              		.thumb_func
 729              		.type	xStreamBufferBytesAvailable, %function
 730              	xStreamBufferBytesAvailable:
 731              	.LFB37:
 473:..\FreeRTOS10/stream_buffer.c **** const StreamBuffer_t * const pxStreamBuffer = ( StreamBuffer_t * ) xStreamBuffer; /*lint !e9087 !e9
 732              		.loc 1 473 0
 733              		.cfi_startproc
 734              		@ args = 0, pretend = 0, frame = 0
 735              		@ frame_needed = 0, uses_anonymous_args = 0
 736              	.LVL110:
 737 0000 10B5     		push	{r4, lr}
 738              		.cfi_def_cfa_offset 8
 739              		.cfi_offset 4, -8
 740              		.cfi_offset 14, -4
 741              	.LVL111:
ARM GAS  C:\Users\Xwx47\AppData\Local\Temp\ccZsRkco.s 			page 36


 479:..\FreeRTOS10/stream_buffer.c **** 	return xReturn;
 742              		.loc 1 479 0
 743 0002 FFF7FEFF 		bl	prvBytesInBuffer
 744              	.LVL112:
 481:..\FreeRTOS10/stream_buffer.c **** /*-----------------------------------------------------------*/
 745              		.loc 1 481 0
 746              		@ sp needed
 747 0006 10BD     		pop	{r4, pc}
 748              		.cfi_endproc
 749              	.LFE37:
 750              		.size	xStreamBufferBytesAvailable, .-xStreamBufferBytesAvailable
 751              		.section	.text.xStreamBufferSend,"ax",%progbits
 752              		.align	2
 753              		.global	xStreamBufferSend
 754              		.code	16
 755              		.thumb_func
 756              		.type	xStreamBufferSend, %function
 757              	xStreamBufferSend:
 758              	.LFB38:
 488:..\FreeRTOS10/stream_buffer.c **** StreamBuffer_t * const pxStreamBuffer = ( StreamBuffer_t * ) xStreamBuffer; /*lint !e9087 !e9079 Sa
 759              		.loc 1 488 0
 760              		.cfi_startproc
 761              		@ args = 0, pretend = 0, frame = 16
 762              		@ frame_needed = 0, uses_anonymous_args = 0
 763              	.LVL113:
 764 0000 F0B5     		push	{r4, r5, r6, r7, lr}
 765              		.cfi_def_cfa_offset 20
 766              		.cfi_offset 4, -20
 767              		.cfi_offset 5, -16
 768              		.cfi_offset 6, -12
 769              		.cfi_offset 7, -8
 770              		.cfi_offset 14, -4
 771 0002 87B0     		sub	sp, sp, #28
 772              		.cfi_def_cfa_offset 48
 773 0004 0400     		movs	r4, r0
 774 0006 0291     		str	r1, [sp, #8]
 775 0008 1600     		movs	r6, r2
 776 000a 0393     		str	r3, [sp, #12]
 777              	.LVL114:
 501:..\FreeRTOS10/stream_buffer.c **** 	{
 778              		.loc 1 501 0
 779 000c 037F     		ldrb	r3, [r0, #28]
 780              	.LVL115:
 781 000e DB07     		lsls	r3, r3, #31
 782 0010 01D5     		bpl	.L55
 503:..\FreeRTOS10/stream_buffer.c **** 	}
 783              		.loc 1 503 0
 784 0012 171D     		adds	r7, r2, #4
 785              	.LVL116:
 786 0014 00E0     		b	.L48
 787              	.LVL117:
 788              	.L55:
 491:..\FreeRTOS10/stream_buffer.c **** TimeOut_t xTimeOut;
 789              		.loc 1 491 0
 790 0016 1700     		movs	r7, r2
 791              	.LVL118:
 792              	.L48:
ARM GAS  C:\Users\Xwx47\AppData\Local\Temp\ccZsRkco.s 			page 37


 510:..\FreeRTOS10/stream_buffer.c **** 	{
 793              		.loc 1 510 0
 794 0018 039B     		ldr	r3, [sp, #12]
 795 001a 002B     		cmp	r3, #0
 796 001c 25D0     		beq	.L56
 512:..\FreeRTOS10/stream_buffer.c **** 
 797              		.loc 1 512 0
 798 001e 04A8     		add	r0, sp, #16
 799              	.LVL119:
 800 0020 FFF7FEFF 		bl	vTaskSetTimeOutState
 801              	.LVL120:
 802              	.L51:
 518:..\FreeRTOS10/stream_buffer.c **** 			{
 803              		.loc 1 518 0
 804 0024 FFF7FEFF 		bl	vPortEnterCritical
 805              	.LVL121:
 520:..\FreeRTOS10/stream_buffer.c **** 
 806              		.loc 1 520 0
 807 0028 2000     		movs	r0, r4
 808 002a FFF7FEFF 		bl	xStreamBufferSpacesAvailable
 809              	.LVL122:
 810 002e 0500     		movs	r5, r0
 811              	.LVL123:
 522:..\FreeRTOS10/stream_buffer.c **** 				{
 812              		.loc 1 522 0
 813 0030 8742     		cmp	r7, r0
 814 0032 17D9     		bls	.L50
 525:..\FreeRTOS10/stream_buffer.c **** 
 815              		.loc 1 525 0
 816 0034 0020     		movs	r0, #0
 817              	.LVL124:
 818 0036 FFF7FEFF 		bl	xTaskNotifyStateClear
 819              	.LVL125:
 529:..\FreeRTOS10/stream_buffer.c **** 				}
 820              		.loc 1 529 0
 821 003a FFF7FEFF 		bl	xTaskGetCurrentTaskHandle
 822              	.LVL126:
 823 003e 6061     		str	r0, [r4, #20]
 537:..\FreeRTOS10/stream_buffer.c **** 
 824              		.loc 1 537 0
 825 0040 FFF7FEFF 		bl	vPortExitCritical
 826              	.LVL127:
 540:..\FreeRTOS10/stream_buffer.c **** 			pxStreamBuffer->xTaskWaitingToSend = NULL;
 827              		.loc 1 540 0
 828 0044 039B     		ldr	r3, [sp, #12]
 829 0046 0022     		movs	r2, #0
 830 0048 0121     		movs	r1, #1
 831 004a 4942     		rsbs	r1, r1, #0
 832 004c 0020     		movs	r0, #0
 833 004e FFF7FEFF 		bl	xTaskNotifyWait
 834              	.LVL128:
 541:..\FreeRTOS10/stream_buffer.c **** 
 835              		.loc 1 541 0
 836 0052 0023     		movs	r3, #0
 837 0054 6361     		str	r3, [r4, #20]
 543:..\FreeRTOS10/stream_buffer.c **** 	}
 838              		.loc 1 543 0
ARM GAS  C:\Users\Xwx47\AppData\Local\Temp\ccZsRkco.s 			page 38


 839 0056 03A9     		add	r1, sp, #12
 840              	.LVL129:
 841 0058 04A8     		add	r0, sp, #16
 842 005a FFF7FEFF 		bl	xTaskCheckForTimeOut
 843              	.LVL130:
 844 005e 0028     		cmp	r0, #0
 845 0060 E0D0     		beq	.L51
 846 0062 03E0     		b	.L49
 847              	.LVL131:
 848              	.L50:
 533:..\FreeRTOS10/stream_buffer.c **** 					break;
 849              		.loc 1 533 0
 850 0064 FFF7FEFF 		bl	vPortExitCritical
 851              	.LVL132:
 534:..\FreeRTOS10/stream_buffer.c **** 				}
 852              		.loc 1 534 0
 853 0068 00E0     		b	.L49
 854              	.LVL133:
 855              	.L56:
 490:..\FreeRTOS10/stream_buffer.c **** size_t xRequiredSpace = xDataLengthBytes;
 856              		.loc 1 490 0
 857 006a 0025     		movs	r5, #0
 858              	.LVL134:
 859              	.L49:
 550:..\FreeRTOS10/stream_buffer.c **** 	{
 860              		.loc 1 550 0
 861 006c 002D     		cmp	r5, #0
 862 006e 03D1     		bne	.L52
 552:..\FreeRTOS10/stream_buffer.c **** 	}
 863              		.loc 1 552 0
 864 0070 2000     		movs	r0, r4
 865 0072 FFF7FEFF 		bl	xStreamBufferSpacesAvailable
 866              	.LVL135:
 867 0076 0500     		movs	r5, r0
 868              	.LVL136:
 869              	.L52:
 559:..\FreeRTOS10/stream_buffer.c **** 
 870              		.loc 1 559 0
 871 0078 0097     		str	r7, [sp]
 872 007a 2B00     		movs	r3, r5
 873 007c 3200     		movs	r2, r6
 874 007e 0299     		ldr	r1, [sp, #8]
 875 0080 2000     		movs	r0, r4
 876 0082 FFF7FEFF 		bl	prvWriteMessageToBuffer
 877              	.LVL137:
 878 0086 051E     		subs	r5, r0, #0
 879              	.LVL138:
 561:..\FreeRTOS10/stream_buffer.c **** 	{
 880              		.loc 1 561 0
 881 0088 14D0     		beq	.L53
 566:..\FreeRTOS10/stream_buffer.c **** 		{
 882              		.loc 1 566 0
 883 008a 2000     		movs	r0, r4
 884              	.LVL139:
 885 008c FFF7FEFF 		bl	prvBytesInBuffer
 886              	.LVL140:
 887 0090 E368     		ldr	r3, [r4, #12]
ARM GAS  C:\Users\Xwx47\AppData\Local\Temp\ccZsRkco.s 			page 39


 888 0092 9842     		cmp	r0, r3
 889 0094 0ED3     		bcc	.L53
 568:..\FreeRTOS10/stream_buffer.c **** 		}
 890              		.loc 1 568 0
 891 0096 FFF7FEFF 		bl	vTaskSuspendAll
 892              	.LVL141:
 893 009a 2369     		ldr	r3, [r4, #16]
 894 009c 002B     		cmp	r3, #0
 895 009e 07D0     		beq	.L54
 568:..\FreeRTOS10/stream_buffer.c **** 		}
 896              		.loc 1 568 0 is_stmt 0 discriminator 1
 897 00a0 2069     		ldr	r0, [r4, #16]
 898 00a2 0023     		movs	r3, #0
 899 00a4 0022     		movs	r2, #0
 900 00a6 0021     		movs	r1, #0
 901 00a8 FFF7FEFF 		bl	xTaskGenericNotify
 902              	.LVL142:
 903 00ac 0023     		movs	r3, #0
 904 00ae 2361     		str	r3, [r4, #16]
 905              	.L54:
 568:..\FreeRTOS10/stream_buffer.c **** 		}
 906              		.loc 1 568 0 discriminator 3
 907 00b0 FFF7FEFF 		bl	xTaskResumeAll
 908              	.LVL143:
 909              	.L53:
 582:..\FreeRTOS10/stream_buffer.c **** /*-----------------------------------------------------------*/
 910              		.loc 1 582 0 is_stmt 1
 911 00b4 2800     		movs	r0, r5
 912 00b6 07B0     		add	sp, sp, #28
 913              		@ sp needed
 914              	.LVL144:
 915              	.LVL145:
 916              	.LVL146:
 917              	.LVL147:
 918 00b8 F0BD     		pop	{r4, r5, r6, r7, pc}
 919              		.cfi_endproc
 920              	.LFE38:
 921              		.size	xStreamBufferSend, .-xStreamBufferSend
 922 00ba C046     		.section	.text.xStreamBufferSendFromISR,"ax",%progbits
 923              		.align	2
 924              		.global	xStreamBufferSendFromISR
 925              		.code	16
 926              		.thumb_func
 927              		.type	xStreamBufferSendFromISR, %function
 928              	xStreamBufferSendFromISR:
 929              	.LFB39:
 589:..\FreeRTOS10/stream_buffer.c **** StreamBuffer_t * const pxStreamBuffer = ( StreamBuffer_t * ) xStreamBuffer; /*lint !e9087 !e9079 Sa
 930              		.loc 1 589 0
 931              		.cfi_startproc
 932              		@ args = 0, pretend = 0, frame = 8
 933              		@ frame_needed = 0, uses_anonymous_args = 0
 934              	.LVL148:
 935 0000 F0B5     		push	{r4, r5, r6, r7, lr}
 936              		.cfi_def_cfa_offset 20
 937              		.cfi_offset 4, -20
 938              		.cfi_offset 5, -16
 939              		.cfi_offset 6, -12
ARM GAS  C:\Users\Xwx47\AppData\Local\Temp\ccZsRkco.s 			page 40


 940              		.cfi_offset 7, -8
 941              		.cfi_offset 14, -4
 942 0002 85B0     		sub	sp, sp, #20
 943              		.cfi_def_cfa_offset 40
 944 0004 0400     		movs	r4, r0
 945 0006 0F00     		movs	r7, r1
 946 0008 1500     		movs	r5, r2
 947 000a 0393     		str	r3, [sp, #12]
 948              	.LVL149:
 601:..\FreeRTOS10/stream_buffer.c **** 	{
 949              		.loc 1 601 0
 950 000c 037F     		ldrb	r3, [r0, #28]
 951              	.LVL150:
 952 000e DB07     		lsls	r3, r3, #31
 953 0010 01D5     		bpl	.L61
 603:..\FreeRTOS10/stream_buffer.c **** 	}
 954              		.loc 1 603 0
 955 0012 161D     		adds	r6, r2, #4
 956              	.LVL151:
 957 0014 00E0     		b	.L58
 958              	.LVL152:
 959              	.L61:
 592:..\FreeRTOS10/stream_buffer.c **** 
 960              		.loc 1 592 0
 961 0016 1600     		movs	r6, r2
 962              	.LVL153:
 963              	.L58:
 610:..\FreeRTOS10/stream_buffer.c **** 	xReturn = prvWriteMessageToBuffer( pxStreamBuffer, pvTxData, xDataLengthBytes, xSpace, xRequiredSp
 964              		.loc 1 610 0
 965 0018 2000     		movs	r0, r4
 966              	.LVL154:
 967 001a FFF7FEFF 		bl	xStreamBufferSpacesAvailable
 968              	.LVL155:
 969 001e 0300     		movs	r3, r0
 970              	.LVL156:
 611:..\FreeRTOS10/stream_buffer.c **** 
 971              		.loc 1 611 0
 972 0020 0096     		str	r6, [sp]
 973 0022 2A00     		movs	r2, r5
 974 0024 3900     		movs	r1, r7
 975 0026 2000     		movs	r0, r4
 976              	.LVL157:
 977 0028 FFF7FEFF 		bl	prvWriteMessageToBuffer
 978              	.LVL158:
 979 002c 051E     		subs	r5, r0, #0
 980              	.LVL159:
 613:..\FreeRTOS10/stream_buffer.c **** 	{
 981              		.loc 1 613 0
 982 002e 18D0     		beq	.L59
 616:..\FreeRTOS10/stream_buffer.c **** 		{
 983              		.loc 1 616 0
 984 0030 2000     		movs	r0, r4
 985              	.LVL160:
 986 0032 FFF7FEFF 		bl	prvBytesInBuffer
 987              	.LVL161:
 988 0036 E368     		ldr	r3, [r4, #12]
 989 0038 9842     		cmp	r0, r3
ARM GAS  C:\Users\Xwx47\AppData\Local\Temp\ccZsRkco.s 			page 41


 990 003a 12D3     		bcc	.L59
 991              	.LBB2:
 618:..\FreeRTOS10/stream_buffer.c **** 		}
 992              		.loc 1 618 0
 993 003c FFF7FEFF 		bl	ulSetInterruptMaskFromISR
 994              	.LVL162:
 995 0040 0700     		movs	r7, r0
 996              	.LVL163:
 997 0042 2369     		ldr	r3, [r4, #16]
 998 0044 002B     		cmp	r3, #0
 999 0046 09D0     		beq	.L60
 618:..\FreeRTOS10/stream_buffer.c **** 		}
 1000              		.loc 1 618 0 is_stmt 0 discriminator 1
 1001 0048 2069     		ldr	r0, [r4, #16]
 1002              	.LVL164:
 1003 004a 039B     		ldr	r3, [sp, #12]
 1004 004c 0093     		str	r3, [sp]
 1005 004e 0023     		movs	r3, #0
 1006 0050 0022     		movs	r2, #0
 1007 0052 0021     		movs	r1, #0
 1008 0054 FFF7FEFF 		bl	xTaskGenericNotifyFromISR
 1009              	.LVL165:
 1010 0058 0023     		movs	r3, #0
 1011 005a 2361     		str	r3, [r4, #16]
 1012              	.L60:
 618:..\FreeRTOS10/stream_buffer.c **** 		}
 1013              		.loc 1 618 0 discriminator 3
 1014 005c 3800     		movs	r0, r7
 1015 005e FFF7FEFF 		bl	vClearInterruptMaskFromISR
 1016              	.LVL166:
 1017              	.L59:
 1018              	.LBE2:
 633:..\FreeRTOS10/stream_buffer.c **** /*-----------------------------------------------------------*/
 1019              		.loc 1 633 0 is_stmt 1
 1020 0062 2800     		movs	r0, r5
 1021 0064 05B0     		add	sp, sp, #20
 1022              		@ sp needed
 1023              	.LVL167:
 1024              	.LVL168:
 1025              	.LVL169:
 1026 0066 F0BD     		pop	{r4, r5, r6, r7, pc}
 1027              		.cfi_endproc
 1028              	.LFE39:
 1029              		.size	xStreamBufferSendFromISR, .-xStreamBufferSendFromISR
 1030              		.section	.text.xStreamBufferReceive,"ax",%progbits
 1031              		.align	2
 1032              		.global	xStreamBufferReceive
 1033              		.code	16
 1034              		.thumb_func
 1035              		.type	xStreamBufferReceive, %function
 1036              	xStreamBufferReceive:
 1037              	.LFB41:
 692:..\FreeRTOS10/stream_buffer.c **** StreamBuffer_t * const pxStreamBuffer = ( StreamBuffer_t * ) xStreamBuffer; /*lint !e9087 !e9079 Sa
 1038              		.loc 1 692 0
 1039              		.cfi_startproc
 1040              		@ args = 0, pretend = 0, frame = 8
 1041              		@ frame_needed = 0, uses_anonymous_args = 0
ARM GAS  C:\Users\Xwx47\AppData\Local\Temp\ccZsRkco.s 			page 42


 1042              	.LVL170:
 1043 0000 F0B5     		push	{r4, r5, r6, r7, lr}
 1044              		.cfi_def_cfa_offset 20
 1045              		.cfi_offset 4, -20
 1046              		.cfi_offset 5, -16
 1047              		.cfi_offset 6, -12
 1048              		.cfi_offset 7, -8
 1049              		.cfi_offset 14, -4
 1050 0002 85B0     		sub	sp, sp, #20
 1051              		.cfi_def_cfa_offset 40
 1052 0004 0400     		movs	r4, r0
 1053 0006 0291     		str	r1, [sp, #8]
 1054 0008 0392     		str	r2, [sp, #12]
 1055 000a 1F00     		movs	r7, r3
 1056              	.LVL171:
 704:..\FreeRTOS10/stream_buffer.c **** 	{
 1057              		.loc 1 704 0
 1058 000c 037F     		ldrb	r3, [r0, #28]
 1059              	.LVL172:
 1060 000e DB07     		lsls	r3, r3, #31
 1061 0010 01D5     		bpl	.L69
 706:..\FreeRTOS10/stream_buffer.c **** 	}
 1062              		.loc 1 706 0
 1063 0012 0426     		movs	r6, #4
 1064 0014 00E0     		b	.L63
 1065              	.L69:
 710:..\FreeRTOS10/stream_buffer.c **** 	}
 1066              		.loc 1 710 0
 1067 0016 0026     		movs	r6, #0
 1068              	.L63:
 1069              	.LVL173:
 713:..\FreeRTOS10/stream_buffer.c **** 	{
 1070              		.loc 1 713 0
 1071 0018 002F     		cmp	r7, #0
 1072 001a 1FD0     		beq	.L64
 717:..\FreeRTOS10/stream_buffer.c **** 		{
 1073              		.loc 1 717 0
 1074 001c FFF7FEFF 		bl	vPortEnterCritical
 1075              	.LVL174:
 719:..\FreeRTOS10/stream_buffer.c **** 
 1076              		.loc 1 719 0
 1077 0020 2000     		movs	r0, r4
 1078 0022 FFF7FEFF 		bl	prvBytesInBuffer
 1079              	.LVL175:
 1080 0026 0500     		movs	r5, r0
 1081              	.LVL176:
 726:..\FreeRTOS10/stream_buffer.c **** 			{
 1082              		.loc 1 726 0
 1083 0028 8642     		cmp	r6, r0
 1084 002a 05D3     		bcc	.L65
 729:..\FreeRTOS10/stream_buffer.c **** 
 1085              		.loc 1 729 0
 1086 002c 0020     		movs	r0, #0
 1087              	.LVL177:
 1088 002e FFF7FEFF 		bl	xTaskNotifyStateClear
 1089              	.LVL178:
 733:..\FreeRTOS10/stream_buffer.c **** 			}
ARM GAS  C:\Users\Xwx47\AppData\Local\Temp\ccZsRkco.s 			page 43


 1090              		.loc 1 733 0
 1091 0032 FFF7FEFF 		bl	xTaskGetCurrentTaskHandle
 1092              	.LVL179:
 1093 0036 2061     		str	r0, [r4, #16]
 1094              	.L65:
 740:..\FreeRTOS10/stream_buffer.c **** 
 1095              		.loc 1 740 0
 1096 0038 FFF7FEFF 		bl	vPortExitCritical
 1097              	.LVL180:
 742:..\FreeRTOS10/stream_buffer.c **** 		{
 1098              		.loc 1 742 0
 1099 003c AE42     		cmp	r6, r5
 1100 003e 11D3     		bcc	.L66
 746:..\FreeRTOS10/stream_buffer.c **** 			pxStreamBuffer->xTaskWaitingToReceive = NULL;
 1101              		.loc 1 746 0
 1102 0040 3B00     		movs	r3, r7
 1103 0042 0022     		movs	r2, #0
 1104 0044 0121     		movs	r1, #1
 1105 0046 4942     		rsbs	r1, r1, #0
 1106 0048 0020     		movs	r0, #0
 1107 004a FFF7FEFF 		bl	xTaskNotifyWait
 1108              	.LVL181:
 747:..\FreeRTOS10/stream_buffer.c **** 
 1109              		.loc 1 747 0
 1110 004e 0023     		movs	r3, #0
 1111 0050 2361     		str	r3, [r4, #16]
 750:..\FreeRTOS10/stream_buffer.c **** 		}
 1112              		.loc 1 750 0
 1113 0052 2000     		movs	r0, r4
 1114 0054 FFF7FEFF 		bl	prvBytesInBuffer
 1115              	.LVL182:
 1116 0058 0500     		movs	r5, r0
 1117              	.LVL183:
 1118 005a 03E0     		b	.L66
 1119              	.LVL184:
 1120              	.L64:
 759:..\FreeRTOS10/stream_buffer.c **** 	}
 1121              		.loc 1 759 0
 1122 005c 2000     		movs	r0, r4
 1123              	.LVL185:
 1124 005e FFF7FEFF 		bl	prvBytesInBuffer
 1125              	.LVL186:
 1126 0062 0500     		movs	r5, r0
 1127              	.LVL187:
 1128              	.L66:
 767:..\FreeRTOS10/stream_buffer.c **** 	{
 1129              		.loc 1 767 0
 1130 0064 B542     		cmp	r5, r6
 1131 0066 18D9     		bls	.L70
 769:..\FreeRTOS10/stream_buffer.c **** 
 1132              		.loc 1 769 0
 1133 0068 0096     		str	r6, [sp]
 1134 006a 2B00     		movs	r3, r5
 1135 006c 039A     		ldr	r2, [sp, #12]
 1136 006e 0299     		ldr	r1, [sp, #8]
 1137 0070 2000     		movs	r0, r4
 1138 0072 FFF7FEFF 		bl	prvReadMessageFromBuffer
ARM GAS  C:\Users\Xwx47\AppData\Local\Temp\ccZsRkco.s 			page 44


 1139              	.LVL188:
 1140 0076 051E     		subs	r5, r0, #0
 1141              	.LVL189:
 772:..\FreeRTOS10/stream_buffer.c **** 		{
 1142              		.loc 1 772 0
 1143 0078 10D0     		beq	.L67
 775:..\FreeRTOS10/stream_buffer.c **** 		}
 1144              		.loc 1 775 0
 1145 007a FFF7FEFF 		bl	vTaskSuspendAll
 1146              	.LVL190:
 1147 007e 6369     		ldr	r3, [r4, #20]
 1148 0080 002B     		cmp	r3, #0
 1149 0082 07D0     		beq	.L68
 775:..\FreeRTOS10/stream_buffer.c **** 		}
 1150              		.loc 1 775 0 is_stmt 0 discriminator 1
 1151 0084 6069     		ldr	r0, [r4, #20]
 1152 0086 0023     		movs	r3, #0
 1153 0088 0022     		movs	r2, #0
 1154 008a 0021     		movs	r1, #0
 1155 008c FFF7FEFF 		bl	xTaskGenericNotify
 1156              	.LVL191:
 1157 0090 0023     		movs	r3, #0
 1158 0092 6361     		str	r3, [r4, #20]
 1159              	.L68:
 775:..\FreeRTOS10/stream_buffer.c **** 		}
 1160              		.loc 1 775 0 discriminator 3
 1161 0094 FFF7FEFF 		bl	xTaskResumeAll
 1162              	.LVL192:
 1163 0098 00E0     		b	.L67
 1164              	.LVL193:
 1165              	.L70:
 694:..\FreeRTOS10/stream_buffer.c **** 
 1166              		.loc 1 694 0 is_stmt 1
 1167 009a 0025     		movs	r5, #0
 1168              	.LVL194:
 1169              	.L67:
 789:..\FreeRTOS10/stream_buffer.c **** /*-----------------------------------------------------------*/
 1170              		.loc 1 789 0
 1171 009c 2800     		movs	r0, r5
 1172 009e 05B0     		add	sp, sp, #20
 1173              		@ sp needed
 1174              	.LVL195:
 1175              	.LVL196:
 1176              	.LVL197:
 1177              	.LVL198:
 1178 00a0 F0BD     		pop	{r4, r5, r6, r7, pc}
 1179              		.cfi_endproc
 1180              	.LFE41:
 1181              		.size	xStreamBufferReceive, .-xStreamBufferReceive
 1182 00a2 C046     		.section	.text.xStreamBufferReceiveFromISR,"ax",%progbits
 1183              		.align	2
 1184              		.global	xStreamBufferReceiveFromISR
 1185              		.code	16
 1186              		.thumb_func
 1187              		.type	xStreamBufferReceiveFromISR, %function
 1188              	xStreamBufferReceiveFromISR:
 1189              	.LFB42:
ARM GAS  C:\Users\Xwx47\AppData\Local\Temp\ccZsRkco.s 			page 45


 796:..\FreeRTOS10/stream_buffer.c **** StreamBuffer_t * const pxStreamBuffer = ( StreamBuffer_t * ) xStreamBuffer; /*lint !e9087 !e9079 Sa
 1190              		.loc 1 796 0
 1191              		.cfi_startproc
 1192              		@ args = 0, pretend = 0, frame = 8
 1193              		@ frame_needed = 0, uses_anonymous_args = 0
 1194              	.LVL199:
 1195 0000 F0B5     		push	{r4, r5, r6, r7, lr}
 1196              		.cfi_def_cfa_offset 20
 1197              		.cfi_offset 4, -20
 1198              		.cfi_offset 5, -16
 1199              		.cfi_offset 6, -12
 1200              		.cfi_offset 7, -8
 1201              		.cfi_offset 14, -4
 1202 0002 85B0     		sub	sp, sp, #20
 1203              		.cfi_def_cfa_offset 40
 1204 0004 0400     		movs	r4, r0
 1205 0006 0391     		str	r1, [sp, #12]
 1206 0008 1600     		movs	r6, r2
 1207 000a 1F00     		movs	r7, r3
 1208              	.LVL200:
 808:..\FreeRTOS10/stream_buffer.c **** 	{
 1209              		.loc 1 808 0
 1210 000c 037F     		ldrb	r3, [r0, #28]
 1211              	.LVL201:
 1212 000e DB07     		lsls	r3, r3, #31
 1213 0010 01D5     		bpl	.L75
 810:..\FreeRTOS10/stream_buffer.c **** 	}
 1214              		.loc 1 810 0
 1215 0012 0425     		movs	r5, #4
 1216 0014 00E0     		b	.L72
 1217              	.L75:
 814:..\FreeRTOS10/stream_buffer.c **** 	}
 1218              		.loc 1 814 0
 1219 0016 0025     		movs	r5, #0
 1220              	.L72:
 1221              	.LVL202:
 817:..\FreeRTOS10/stream_buffer.c **** 
 1222              		.loc 1 817 0
 1223 0018 2000     		movs	r0, r4
 1224              	.LVL203:
 1225 001a FFF7FEFF 		bl	prvBytesInBuffer
 1226              	.LVL204:
 824:..\FreeRTOS10/stream_buffer.c **** 	{
 1227              		.loc 1 824 0
 1228 001e 8542     		cmp	r5, r0
 1229 0020 1BD2     		bcs	.L76
 826:..\FreeRTOS10/stream_buffer.c **** 
 1230              		.loc 1 826 0
 1231 0022 0095     		str	r5, [sp]
 1232 0024 0300     		movs	r3, r0
 1233 0026 3200     		movs	r2, r6
 1234 0028 0399     		ldr	r1, [sp, #12]
 1235 002a 2000     		movs	r0, r4
 1236              	.LVL205:
 1237 002c FFF7FEFF 		bl	prvReadMessageFromBuffer
 1238              	.LVL206:
 1239 0030 051E     		subs	r5, r0, #0
ARM GAS  C:\Users\Xwx47\AppData\Local\Temp\ccZsRkco.s 			page 46


 1240              	.LVL207:
 829:..\FreeRTOS10/stream_buffer.c **** 		{
 1241              		.loc 1 829 0
 1242 0032 13D0     		beq	.L73
 1243              	.LBB3:
 831:..\FreeRTOS10/stream_buffer.c **** 		}
 1244              		.loc 1 831 0
 1245 0034 FFF7FEFF 		bl	ulSetInterruptMaskFromISR
 1246              	.LVL208:
 1247 0038 0600     		movs	r6, r0
 1248              	.LVL209:
 1249 003a 6369     		ldr	r3, [r4, #20]
 1250 003c 002B     		cmp	r3, #0
 1251 003e 08D0     		beq	.L74
 831:..\FreeRTOS10/stream_buffer.c **** 		}
 1252              		.loc 1 831 0 is_stmt 0 discriminator 1
 1253 0040 6069     		ldr	r0, [r4, #20]
 1254              	.LVL210:
 1255 0042 0097     		str	r7, [sp]
 1256 0044 0023     		movs	r3, #0
 1257 0046 0022     		movs	r2, #0
 1258 0048 0021     		movs	r1, #0
 1259 004a FFF7FEFF 		bl	xTaskGenericNotifyFromISR
 1260              	.LVL211:
 1261 004e 0023     		movs	r3, #0
 1262 0050 6361     		str	r3, [r4, #20]
 1263              	.L74:
 831:..\FreeRTOS10/stream_buffer.c **** 		}
 1264              		.loc 1 831 0 discriminator 3
 1265 0052 3000     		movs	r0, r6
 1266 0054 FFF7FEFF 		bl	vClearInterruptMaskFromISR
 1267              	.LVL212:
 1268              	.LBE3:
 1269 0058 00E0     		b	.L73
 1270              	.LVL213:
 1271              	.L76:
 798:..\FreeRTOS10/stream_buffer.c **** 
 1272              		.loc 1 798 0 is_stmt 1
 1273 005a 0025     		movs	r5, #0
 1274              	.LVL214:
 1275              	.L73:
 846:..\FreeRTOS10/stream_buffer.c **** /*-----------------------------------------------------------*/
 1276              		.loc 1 846 0
 1277 005c 2800     		movs	r0, r5
 1278 005e 05B0     		add	sp, sp, #20
 1279              		@ sp needed
 1280              	.LVL215:
 1281              	.LVL216:
 1282              	.LVL217:
 1283 0060 F0BD     		pop	{r4, r5, r6, r7, pc}
 1284              		.cfi_endproc
 1285              	.LFE42:
 1286              		.size	xStreamBufferReceiveFromISR, .-xStreamBufferReceiveFromISR
 1287 0062 C046     		.section	.text.xStreamBufferIsEmpty,"ax",%progbits
 1288              		.align	2
 1289              		.global	xStreamBufferIsEmpty
 1290              		.code	16
ARM GAS  C:\Users\Xwx47\AppData\Local\Temp\ccZsRkco.s 			page 47


 1291              		.thumb_func
 1292              		.type	xStreamBufferIsEmpty, %function
 1293              	xStreamBufferIsEmpty:
 1294              	.LFB44:
 900:..\FreeRTOS10/stream_buffer.c **** const StreamBuffer_t * const pxStreamBuffer = ( StreamBuffer_t * ) xStreamBuffer; /*lint !e9087 !e9
 1295              		.loc 1 900 0
 1296              		.cfi_startproc
 1297              		@ args = 0, pretend = 0, frame = 0
 1298              		@ frame_needed = 0, uses_anonymous_args = 0
 1299              		@ link register save eliminated.
 1300              	.LVL218:
 908:..\FreeRTOS10/stream_buffer.c **** 	if( pxStreamBuffer->xHead == xTail )
 1301              		.loc 1 908 0
 1302 0000 0268     		ldr	r2, [r0]
 1303              	.LVL219:
 909:..\FreeRTOS10/stream_buffer.c **** 	{
 1304              		.loc 1 909 0
 1305 0002 4368     		ldr	r3, [r0, #4]
 1306 0004 9A42     		cmp	r2, r3
 1307 0006 01D1     		bne	.L79
 911:..\FreeRTOS10/stream_buffer.c **** 	}
 1308              		.loc 1 911 0
 1309 0008 0120     		movs	r0, #1
 1310              	.LVL220:
 1311 000a 00E0     		b	.L78
 1312              	.LVL221:
 1313              	.L79:
 915:..\FreeRTOS10/stream_buffer.c **** 	}
 1314              		.loc 1 915 0
 1315 000c 0020     		movs	r0, #0
 1316              	.LVL222:
 1317              	.L78:
 919:..\FreeRTOS10/stream_buffer.c **** /*-----------------------------------------------------------*/
 1318              		.loc 1 919 0
 1319              		@ sp needed
 1320 000e 7047     		bx	lr
 1321              		.cfi_endproc
 1322              	.LFE44:
 1323              		.size	xStreamBufferIsEmpty, .-xStreamBufferIsEmpty
 1324              		.section	.text.xStreamBufferIsFull,"ax",%progbits
 1325              		.align	2
 1326              		.global	xStreamBufferIsFull
 1327              		.code	16
 1328              		.thumb_func
 1329              		.type	xStreamBufferIsFull, %function
 1330              	xStreamBufferIsFull:
 1331              	.LFB45:
 923:..\FreeRTOS10/stream_buffer.c **** BaseType_t xReturn;
 1332              		.loc 1 923 0
 1333              		.cfi_startproc
 1334              		@ args = 0, pretend = 0, frame = 0
 1335              		@ frame_needed = 0, uses_anonymous_args = 0
 1336              	.LVL223:
 1337 0000 10B5     		push	{r4, lr}
 1338              		.cfi_def_cfa_offset 8
 1339              		.cfi_offset 4, -8
 1340              		.cfi_offset 14, -4
ARM GAS  C:\Users\Xwx47\AppData\Local\Temp\ccZsRkco.s 			page 48


 1341              	.LVL224:
 934:..\FreeRTOS10/stream_buffer.c **** 	{
 1342              		.loc 1 934 0
 1343 0002 037F     		ldrb	r3, [r0, #28]
 1344 0004 DB07     		lsls	r3, r3, #31
 1345 0006 01D5     		bpl	.L83
 936:..\FreeRTOS10/stream_buffer.c **** 	}
 1346              		.loc 1 936 0
 1347 0008 0424     		movs	r4, #4
 1348 000a 00E0     		b	.L81
 1349              	.L83:
 940:..\FreeRTOS10/stream_buffer.c **** 	}
 1350              		.loc 1 940 0
 1351 000c 0024     		movs	r4, #0
 1352              	.L81:
 1353              	.LVL225:
 944:..\FreeRTOS10/stream_buffer.c **** 	{
 1354              		.loc 1 944 0
 1355 000e FFF7FEFF 		bl	xStreamBufferSpacesAvailable
 1356              	.LVL226:
 1357 0012 8442     		cmp	r4, r0
 1358 0014 01D3     		bcc	.L84
 946:..\FreeRTOS10/stream_buffer.c **** 	}
 1359              		.loc 1 946 0
 1360 0016 0120     		movs	r0, #1
 1361 0018 00E0     		b	.L82
 1362              	.L84:
 950:..\FreeRTOS10/stream_buffer.c **** 	}
 1363              		.loc 1 950 0
 1364 001a 0020     		movs	r0, #0
 1365              	.L82:
 1366              	.LVL227:
 954:..\FreeRTOS10/stream_buffer.c **** /*-----------------------------------------------------------*/
 1367              		.loc 1 954 0
 1368              		@ sp needed
 1369              	.LVL228:
 1370 001c 10BD     		pop	{r4, pc}
 1371              		.cfi_endproc
 1372              	.LFE45:
 1373              		.size	xStreamBufferIsFull, .-xStreamBufferIsFull
 1374 001e C046     		.section	.text.xStreamBufferSendCompletedFromISR,"ax",%progbits
 1375              		.align	2
 1376              		.global	xStreamBufferSendCompletedFromISR
 1377              		.code	16
 1378              		.thumb_func
 1379              		.type	xStreamBufferSendCompletedFromISR, %function
 1380              	xStreamBufferSendCompletedFromISR:
 1381              	.LFB46:
 958:..\FreeRTOS10/stream_buffer.c **** StreamBuffer_t * const pxStreamBuffer = ( StreamBuffer_t * ) xStreamBuffer; /*lint !e9087 !e9079 Sa
 1382              		.loc 1 958 0
 1383              		.cfi_startproc
 1384              		@ args = 0, pretend = 0, frame = 0
 1385              		@ frame_needed = 0, uses_anonymous_args = 0
 1386              	.LVL229:
 1387 0000 70B5     		push	{r4, r5, r6, lr}
 1388              		.cfi_def_cfa_offset 16
 1389              		.cfi_offset 4, -16
ARM GAS  C:\Users\Xwx47\AppData\Local\Temp\ccZsRkco.s 			page 49


 1390              		.cfi_offset 5, -12
 1391              		.cfi_offset 6, -8
 1392              		.cfi_offset 14, -4
 1393 0002 82B0     		sub	sp, sp, #8
 1394              		.cfi_def_cfa_offset 24
 1395 0004 0400     		movs	r4, r0
 1396 0006 0E00     		movs	r6, r1
 1397              	.LVL230:
 965:..\FreeRTOS10/stream_buffer.c **** 	{
 1398              		.loc 1 965 0
 1399 0008 FFF7FEFF 		bl	ulSetInterruptMaskFromISR
 1400              	.LVL231:
 1401 000c 0500     		movs	r5, r0
 1402              	.LVL232:
 967:..\FreeRTOS10/stream_buffer.c **** 		{
 1403              		.loc 1 967 0
 1404 000e 2369     		ldr	r3, [r4, #16]
 1405 0010 002B     		cmp	r3, #0
 1406 0012 0AD0     		beq	.L87
 969:..\FreeRTOS10/stream_buffer.c **** 										 ( uint32_t ) 0,
 1407              		.loc 1 969 0
 1408 0014 2069     		ldr	r0, [r4, #16]
 1409              	.LVL233:
 1410 0016 0096     		str	r6, [sp]
 1411 0018 0023     		movs	r3, #0
 1412 001a 0022     		movs	r2, #0
 1413 001c 0021     		movs	r1, #0
 1414 001e FFF7FEFF 		bl	xTaskGenericNotifyFromISR
 1415              	.LVL234:
 973:..\FreeRTOS10/stream_buffer.c **** 			xReturn = pdTRUE;
 1416              		.loc 1 973 0
 1417 0022 0023     		movs	r3, #0
 1418 0024 2361     		str	r3, [r4, #16]
 1419              	.LVL235:
 974:..\FreeRTOS10/stream_buffer.c **** 		}
 1420              		.loc 1 974 0
 1421 0026 0124     		movs	r4, #1
 1422              	.LVL236:
 1423 0028 00E0     		b	.L86
 1424              	.LVL237:
 1425              	.L87:
 978:..\FreeRTOS10/stream_buffer.c **** 		}
 1426              		.loc 1 978 0
 1427 002a 0024     		movs	r4, #0
 1428              	.LVL238:
 1429              	.L86:
 981:..\FreeRTOS10/stream_buffer.c **** 
 1430              		.loc 1 981 0
 1431 002c 2800     		movs	r0, r5
 1432 002e FFF7FEFF 		bl	vClearInterruptMaskFromISR
 1433              	.LVL239:
 984:..\FreeRTOS10/stream_buffer.c **** /*-----------------------------------------------------------*/
 1434              		.loc 1 984 0
 1435 0032 2000     		movs	r0, r4
 1436 0034 02B0     		add	sp, sp, #8
 1437              		@ sp needed
 1438              	.LVL240:
ARM GAS  C:\Users\Xwx47\AppData\Local\Temp\ccZsRkco.s 			page 50


 1439              	.LVL241:
 1440              	.LVL242:
 1441 0036 70BD     		pop	{r4, r5, r6, pc}
 1442              		.cfi_endproc
 1443              	.LFE46:
 1444              		.size	xStreamBufferSendCompletedFromISR, .-xStreamBufferSendCompletedFromISR
 1445              		.section	.text.xStreamBufferReceiveCompletedFromISR,"ax",%progbits
 1446              		.align	2
 1447              		.global	xStreamBufferReceiveCompletedFromISR
 1448              		.code	16
 1449              		.thumb_func
 1450              		.type	xStreamBufferReceiveCompletedFromISR, %function
 1451              	xStreamBufferReceiveCompletedFromISR:
 1452              	.LFB47:
 988:..\FreeRTOS10/stream_buffer.c **** StreamBuffer_t * const pxStreamBuffer = ( StreamBuffer_t * ) xStreamBuffer; /*lint !e9087 !e9079 Sa
 1453              		.loc 1 988 0
 1454              		.cfi_startproc
 1455              		@ args = 0, pretend = 0, frame = 0
 1456              		@ frame_needed = 0, uses_anonymous_args = 0
 1457              	.LVL243:
 1458 0000 70B5     		push	{r4, r5, r6, lr}
 1459              		.cfi_def_cfa_offset 16
 1460              		.cfi_offset 4, -16
 1461              		.cfi_offset 5, -12
 1462              		.cfi_offset 6, -8
 1463              		.cfi_offset 14, -4
 1464 0002 82B0     		sub	sp, sp, #8
 1465              		.cfi_def_cfa_offset 24
 1466 0004 0400     		movs	r4, r0
 1467 0006 0E00     		movs	r6, r1
 1468              	.LVL244:
 995:..\FreeRTOS10/stream_buffer.c **** 	{
 1469              		.loc 1 995 0
 1470 0008 FFF7FEFF 		bl	ulSetInterruptMaskFromISR
 1471              	.LVL245:
 1472 000c 0500     		movs	r5, r0
 1473              	.LVL246:
 997:..\FreeRTOS10/stream_buffer.c **** 		{
 1474              		.loc 1 997 0
 1475 000e 6369     		ldr	r3, [r4, #20]
 1476 0010 002B     		cmp	r3, #0
 1477 0012 0AD0     		beq	.L90
 999:..\FreeRTOS10/stream_buffer.c **** 										 ( uint32_t ) 0,
 1478              		.loc 1 999 0
 1479 0014 6069     		ldr	r0, [r4, #20]
 1480              	.LVL247:
 1481 0016 0096     		str	r6, [sp]
 1482 0018 0023     		movs	r3, #0
 1483 001a 0022     		movs	r2, #0
 1484 001c 0021     		movs	r1, #0
 1485 001e FFF7FEFF 		bl	xTaskGenericNotifyFromISR
 1486              	.LVL248:
1003:..\FreeRTOS10/stream_buffer.c **** 			xReturn = pdTRUE;
 1487              		.loc 1 1003 0
 1488 0022 0023     		movs	r3, #0
 1489 0024 6361     		str	r3, [r4, #20]
 1490              	.LVL249:
ARM GAS  C:\Users\Xwx47\AppData\Local\Temp\ccZsRkco.s 			page 51


1004:..\FreeRTOS10/stream_buffer.c **** 		}
 1491              		.loc 1 1004 0
 1492 0026 0124     		movs	r4, #1
 1493              	.LVL250:
 1494 0028 00E0     		b	.L89
 1495              	.LVL251:
 1496              	.L90:
1008:..\FreeRTOS10/stream_buffer.c **** 		}
 1497              		.loc 1 1008 0
 1498 002a 0024     		movs	r4, #0
 1499              	.LVL252:
 1500              	.L89:
1011:..\FreeRTOS10/stream_buffer.c **** 
 1501              		.loc 1 1011 0
 1502 002c 2800     		movs	r0, r5
 1503 002e FFF7FEFF 		bl	vClearInterruptMaskFromISR
 1504              	.LVL253:
1014:..\FreeRTOS10/stream_buffer.c **** /*-----------------------------------------------------------*/
 1505              		.loc 1 1014 0
 1506 0032 2000     		movs	r0, r4
 1507 0034 02B0     		add	sp, sp, #8
 1508              		@ sp needed
 1509              	.LVL254:
 1510              	.LVL255:
 1511              	.LVL256:
 1512 0036 70BD     		pop	{r4, r5, r6, pc}
 1513              		.cfi_endproc
 1514              	.LFE47:
 1515              		.size	xStreamBufferReceiveCompletedFromISR, .-xStreamBufferReceiveCompletedFromISR
 1516              		.text
 1517              	.Letext0:
 1518              		.file 2 "c:\\program files (x86)\\cypress\\psoc creator\\4.1\\psoc creator\\import\\gnu\\arm\\5.4.
 1519              		.file 3 "c:\\program files (x86)\\cypress\\psoc creator\\4.1\\psoc creator\\import\\gnu\\arm\\5.4.
 1520              		.file 4 "c:\\program files (x86)\\cypress\\psoc creator\\4.1\\psoc creator\\import\\gnu\\arm\\5.4.
 1521              		.file 5 "..\\FreeRTOS10\\portable\\GCC\\ARM_CM0/portmacro.h"
 1522              		.file 6 "..\\FreeRTOS10\\include/task.h"
 1523              		.file 7 "..\\FreeRTOS10\\include/stream_buffer.h"
 1524              		.file 8 "..\\FreeRTOS10\\include/portable.h"